TI ARM Assembler PC v5.2.4 Sat Feb 06 22:51:21 2016

Tools Copyright (c) 1996-2015 Texas Instruments Incorporated
esp8266.asm                                                          PAGE    1

       1                    ;******************************************************************************
       2                    ;* TI ARM C/C++ Codegen                                             PC v5.2.4 *
       3                    ;* Date/Time created: Sat Feb 06 22:51:21 2016                                *
       4                    ;******************************************************************************
       5                            .compiler_opts --abi=eabi --arm_vmrs_si_workaround=off --code_state=16 --diag_wrap=off --disab
       6 00000000                   .thumb
       7                    
       8                    $C$DW$CU        .dwtag  DW_TAG_compile_unit
       9                            .dwattr $C$DW$CU, DW_AT_name("../esp8266.c")
      10                            .dwattr $C$DW$CU, DW_AT_producer("TI TI ARM C/C++ Codegen PC v5.2.4 Copyright (c) 1996-2015 Te
      11                            .dwattr $C$DW$CU, DW_AT_TI_version(0x01)
      12                            .dwattr $C$DW$CU, DW_AT_comp_dir("C:\Dropbox\ArmBook\LaunchPad\ValvanoWareTM4C123\ESP8266_4C12
      13                    
      14                    $C$DW$1 .dwtag  DW_TAG_subprogram, DW_AT_name("__builtin_strlen")
      15                            .dwattr $C$DW$1, DW_AT_TI_symbol_name("__builtin_strlen")
      16                            .dwattr $C$DW$1, DW_AT_type(*$C$DW$T$11)
      17                            .dwattr $C$DW$1, DW_AT_declaration
      18                            .dwattr $C$DW$1, DW_AT_external
      19                    $C$DW$2 .dwtag  DW_TAG_formal_parameter
      20                            .dwattr $C$DW$2, DW_AT_type(*$C$DW$T$42)
      21                            .dwendtag $C$DW$1
      22                    
      23                    
      24                    $C$DW$3 .dwtag  DW_TAG_subprogram, DW_AT_name("printf")
      25                            .dwattr $C$DW$3, DW_AT_TI_symbol_name("printf")
      26                            .dwattr $C$DW$3, DW_AT_type(*$C$DW$T$10)
      27                            .dwattr $C$DW$3, DW_AT_declaration
      28                            .dwattr $C$DW$3, DW_AT_external
      29                            .dwattr $C$DW$3, DW_AT_decl_file("C:/ti/ccsv6/tools/compiler/ti-cgt-arm_5.2.4/include/stdio.h"
      30                            .dwattr $C$DW$3, DW_AT_decl_line(0xf5)
      31                            .dwattr $C$DW$3, DW_AT_decl_column(0x19)
      32                    $C$DW$4 .dwtag  DW_TAG_formal_parameter
      33                            .dwattr $C$DW$4, DW_AT_type(*$C$DW$T$42)
      34                    $C$DW$5 .dwtag  DW_TAG_unspecified_parameters
      35                            .dwendtag $C$DW$3
      36                    
      37                    
      38                    $C$DW$6 .dwtag  DW_TAG_subprogram, DW_AT_name("sprintf")
      39                            .dwattr $C$DW$6, DW_AT_TI_symbol_name("sprintf")
      40                            .dwattr $C$DW$6, DW_AT_type(*$C$DW$T$10)
      41                            .dwattr $C$DW$6, DW_AT_declaration
      42                            .dwattr $C$DW$6, DW_AT_external
      43                            .dwattr $C$DW$6, DW_AT_decl_file("C:/ti/ccsv6/tools/compiler/ti-cgt-arm_5.2.4/include/stdio.h"
      44                            .dwattr $C$DW$6, DW_AT_decl_line(0xf9)
      45                            .dwattr $C$DW$6, DW_AT_decl_column(0x19)
      46                    $C$DW$7 .dwtag  DW_TAG_formal_parameter
      47                            .dwattr $C$DW$7, DW_AT_type(*$C$DW$T$35)
      48                    $C$DW$8 .dwtag  DW_TAG_formal_parameter
      49                            .dwattr $C$DW$8, DW_AT_type(*$C$DW$T$42)
      50                    $C$DW$9 .dwtag  DW_TAG_unspecified_parameters
      51                            .dwendtag $C$DW$6
      52                    
      53                    
      54                    $C$DW$10        .dwtag  DW_TAG_subprogram, DW_AT_name("strlen")
      55                            .dwattr $C$DW$10, DW_AT_TI_symbol_name("strlen")
TI ARM Assembler PC v5.2.4 Sat Feb 06 22:51:21 2016

Tools Copyright (c) 1996-2015 Texas Instruments Incorporated
esp8266.asm                                                          PAGE    2

      56                            .dwattr $C$DW$10, DW_AT_type(*$C$DW$T$85)
      57                            .dwattr $C$DW$10, DW_AT_declaration
      58                            .dwattr $C$DW$10, DW_AT_external
      59                            .dwattr $C$DW$10, DW_AT_decl_file("C:/ti/ccsv6/tools/compiler/ti-cgt-arm_5.2.4/include/string.
      60                            .dwattr $C$DW$10, DW_AT_decl_line(0x4f)
      61                            .dwattr $C$DW$10, DW_AT_decl_column(0x14)
      62                    $C$DW$11        .dwtag  DW_TAG_formal_parameter
      63                            .dwattr $C$DW$11, DW_AT_type(*$C$DW$T$42)
      64                            .dwendtag $C$DW$10
      65                    
      66                    
      67                    $C$DW$12        .dwtag  DW_TAG_subprogram, DW_AT_name("strcpy")
      68                            .dwattr $C$DW$12, DW_AT_TI_symbol_name("strcpy")
      69                            .dwattr $C$DW$12, DW_AT_type(*$C$DW$T$35)
      70                            .dwattr $C$DW$12, DW_AT_declaration
      71                            .dwattr $C$DW$12, DW_AT_external
      72                            .dwattr $C$DW$12, DW_AT_decl_file("C:/ti/ccsv6/tools/compiler/ti-cgt-arm_5.2.4/include/string.
      73                            .dwattr $C$DW$12, DW_AT_decl_line(0x51)
      74                            .dwattr $C$DW$12, DW_AT_decl_column(0x12)
      75                    $C$DW$13        .dwtag  DW_TAG_formal_parameter
      76                            .dwattr $C$DW$13, DW_AT_type(*$C$DW$T$35)
      77                    $C$DW$14        .dwtag  DW_TAG_formal_parameter
      78                            .dwattr $C$DW$14, DW_AT_type(*$C$DW$T$42)
      79                            .dwendtag $C$DW$12
      80                    
      81                    
      82                    $C$DW$15        .dwtag  DW_TAG_subprogram, DW_AT_name("strstr")
      83                            .dwattr $C$DW$15, DW_AT_TI_symbol_name("strstr")
      84                            .dwattr $C$DW$15, DW_AT_type(*$C$DW$T$35)
      85                            .dwattr $C$DW$15, DW_AT_declaration
      86                            .dwattr $C$DW$15, DW_AT_external
      87                            .dwattr $C$DW$15, DW_AT_decl_file("C:/ti/ccsv6/tools/compiler/ti-cgt-arm_5.2.4/include/string.
      88                            .dwattr $C$DW$15, DW_AT_decl_line(0x60)
      89                            .dwattr $C$DW$15, DW_AT_decl_column(0x16)
      90                    $C$DW$16        .dwtag  DW_TAG_formal_parameter
      91                            .dwattr $C$DW$16, DW_AT_type(*$C$DW$T$42)
      92                    $C$DW$17        .dwtag  DW_TAG_formal_parameter
      93                            .dwattr $C$DW$17, DW_AT_type(*$C$DW$T$42)
      94                            .dwendtag $C$DW$15
      95                    
      96                    
      97                    $C$DW$18        .dwtag  DW_TAG_subprogram, DW_AT_name("UART_OutCharNonBlock")
      98                            .dwattr $C$DW$18, DW_AT_TI_symbol_name("UART_OutCharNonBlock")
      99                            .dwattr $C$DW$18, DW_AT_declaration
     100                            .dwattr $C$DW$18, DW_AT_external
     101                            .dwattr $C$DW$18, DW_AT_decl_file("..\UART.h")
     102                            .dwattr $C$DW$18, DW_AT_decl_line(0x44)
     103                            .dwattr $C$DW$18, DW_AT_decl_column(0x06)
     104                    $C$DW$19        .dwtag  DW_TAG_formal_parameter
     105                            .dwattr $C$DW$19, DW_AT_type(*$C$DW$T$6)
     106                            .dwendtag $C$DW$18
     107                    
     108                    
     109                    $C$DW$20        .dwtag  DW_TAG_subprogram, DW_AT_name("EnableInterrupts")
     110                            .dwattr $C$DW$20, DW_AT_TI_symbol_name("EnableInterrupts")
TI ARM Assembler PC v5.2.4 Sat Feb 06 22:51:21 2016

Tools Copyright (c) 1996-2015 Texas Instruments Incorporated
esp8266.asm                                                          PAGE    3

     111                            .dwattr $C$DW$20, DW_AT_declaration
     112                            .dwattr $C$DW$20, DW_AT_external
     113                            .dwattr $C$DW$20, DW_AT_decl_file("../esp8266.c")
     114                            .dwattr $C$DW$20, DW_AT_decl_line(0x44)
     115                            .dwattr $C$DW$20, DW_AT_decl_column(0x06)
     116                            .global RXBufferIndex
     117 00000000                   .data
     118                            .align  4
     119                            .elfsym RXBufferIndex,SYM_SIZE(4)
     120 00000000           RXBufferIndex:
     121 00000000 00000000          .bits   0,32                    ; RXBufferIndex @ 0
     122                    
     123                    $C$DW$21        .dwtag  DW_TAG_variable, DW_AT_name("RXBufferIndex")
     124                            .dwattr $C$DW$21, DW_AT_TI_symbol_name("RXBufferIndex")
     125                            .dwattr $C$DW$21, DW_AT_location[DW_OP_addr RXBufferIndex]
     126                            .dwattr $C$DW$21, DW_AT_type(*$C$DW$T$38)
     127                            .dwattr $C$DW$21, DW_AT_external
     128                            .dwattr $C$DW$21, DW_AT_decl_file("../esp8266.c")
     129                            .dwattr $C$DW$21, DW_AT_decl_line(0x5b)
     130                            .dwattr $C$DW$21, DW_AT_decl_column(0x0a)
     131                            .global LastReturnIndex
     132 00000004                   .data
     133                            .align  4
     134                            .elfsym LastReturnIndex,SYM_SIZE(4)
     135 00000004           LastReturnIndex:
     136 00000004 00000000          .bits   0,32                    ; LastReturnIndex @ 0
     137                    
     138                    $C$DW$22        .dwtag  DW_TAG_variable, DW_AT_name("LastReturnIndex")
     139                            .dwattr $C$DW$22, DW_AT_TI_symbol_name("LastReturnIndex")
     140                            .dwattr $C$DW$22, DW_AT_location[DW_OP_addr LastReturnIndex]
     141                            .dwattr $C$DW$22, DW_AT_type(*$C$DW$T$38)
     142                            .dwattr $C$DW$22, DW_AT_external
     143                            .dwattr $C$DW$22, DW_AT_decl_file("../esp8266.c")
     144                            .dwattr $C$DW$22, DW_AT_decl_line(0x5c)
     145                            .dwattr $C$DW$22, DW_AT_decl_column(0x0a)
     146                            .global CurrentReturnIndex
     147 00000008                   .data
     148                            .align  4
     149                            .elfsym CurrentReturnIndex,SYM_SIZE(4)
     150 00000008           CurrentReturnIndex:
     151 00000008 00000000          .bits   0,32                    ; CurrentReturnIndex @ 0
     152                    
     153                    $C$DW$23        .dwtag  DW_TAG_variable, DW_AT_name("CurrentReturnIndex")
     154                            .dwattr $C$DW$23, DW_AT_TI_symbol_name("CurrentReturnIndex")
     155                            .dwattr $C$DW$23, DW_AT_location[DW_OP_addr CurrentReturnIndex]
     156                            .dwattr $C$DW$23, DW_AT_type(*$C$DW$T$38)
     157                            .dwattr $C$DW$23, DW_AT_external
     158                            .dwattr $C$DW$23, DW_AT_decl_file("../esp8266.c")
     159                            .dwattr $C$DW$23, DW_AT_decl_line(0x5d)
     160                            .dwattr $C$DW$23, DW_AT_decl_column(0x0a)
     161                            .global RXBuffer
     162 00000000           RXBuffer:       .usect  ".bss:RXBuffer",1024,1
     163                    $C$DW$24        .dwtag  DW_TAG_variable, DW_AT_name("RXBuffer")
     164                            .dwattr $C$DW$24, DW_AT_TI_symbol_name("RXBuffer")
     165                            .dwattr $C$DW$24, DW_AT_location[DW_OP_addr RXBuffer]
TI ARM Assembler PC v5.2.4 Sat Feb 06 22:51:21 2016

Tools Copyright (c) 1996-2015 Texas Instruments Incorporated
esp8266.asm                                                          PAGE    4

     166                            .dwattr $C$DW$24, DW_AT_type(*$C$DW$T$118)
     167                            .dwattr $C$DW$24, DW_AT_external
     168                            .dwattr $C$DW$24, DW_AT_decl_file("../esp8266.c")
     169                            .dwattr $C$DW$24, DW_AT_decl_line(0x5e)
     170                            .dwattr $C$DW$24, DW_AT_decl_column(0x06)
     171                            .global TXBuffer
     172 00000000           TXBuffer:       .usect  ".bss:TXBuffer",1024,1
     173                    $C$DW$25        .dwtag  DW_TAG_variable, DW_AT_name("TXBuffer")
     174                            .dwattr $C$DW$25, DW_AT_TI_symbol_name("TXBuffer")
     175                            .dwattr $C$DW$25, DW_AT_location[DW_OP_addr TXBuffer]
     176                            .dwattr $C$DW$25, DW_AT_type(*$C$DW$T$118)
     177                            .dwattr $C$DW$25, DW_AT_external
     178                            .dwattr $C$DW$25, DW_AT_decl_file("../esp8266.c")
     179                            .dwattr $C$DW$25, DW_AT_decl_line(0x5f)
     180                            .dwattr $C$DW$25, DW_AT_decl_column(0x06)
     181                            .global ServerResponseBuffer
     182 00000000           ServerResponseBuffer:   .usect  ".bss:ServerResponseBuffer",1024,1
     183                    $C$DW$26        .dwtag  DW_TAG_variable, DW_AT_name("ServerResponseBuffer")
     184                            .dwattr $C$DW$26, DW_AT_TI_symbol_name("ServerResponseBuffer")
     185                            .dwattr $C$DW$26, DW_AT_location[DW_OP_addr ServerResponseBuffer]
     186                            .dwattr $C$DW$26, DW_AT_type(*$C$DW$T$118)
     187                            .dwattr $C$DW$26, DW_AT_external
     188                            .dwattr $C$DW$26, DW_AT_decl_file("../esp8266.c")
     189                            .dwattr $C$DW$26, DW_AT_decl_line(0x61)
     190                            .dwattr $C$DW$26, DW_AT_decl_column(0x06)
     191                            .global ServerResponseIndex
     192 0000000c                   .data
     193                            .align  4
     194                            .elfsym ServerResponseIndex,SYM_SIZE(4)
     195 0000000c           ServerResponseIndex:
     196 0000000c 00000000          .bits   0,32                    ; ServerResponseIndex @ 0
     197                    
     198                    $C$DW$27        .dwtag  DW_TAG_variable, DW_AT_name("ServerResponseIndex")
     199                            .dwattr $C$DW$27, DW_AT_TI_symbol_name("ServerResponseIndex")
     200                            .dwattr $C$DW$27, DW_AT_location[DW_OP_addr ServerResponseIndex]
     201                            .dwattr $C$DW$27, DW_AT_type(*$C$DW$T$38)
     202                            .dwattr $C$DW$27, DW_AT_external
     203                            .dwattr $C$DW$27, DW_AT_decl_file("../esp8266.c")
     204                            .dwattr $C$DW$27, DW_AT_decl_line(0x62)
     205                            .dwattr $C$DW$27, DW_AT_decl_column(0x0a)
     206                            .global ESP8266_ProcessBuffer
     207 00000010                   .data
     208                            .align  1
     209                            .elfsym ESP8266_ProcessBuffer,SYM_SIZE(1)
     210 00000010           ESP8266_ProcessBuffer:
     211 00000010 00000000          .bits   0,8                     ; ESP8266_ProcessBuffer @ 0
     212                    
     213                    $C$DW$28        .dwtag  DW_TAG_variable, DW_AT_name("ESP8266_ProcessBuffer")
     214                            .dwattr $C$DW$28, DW_AT_TI_symbol_name("ESP8266_ProcessBuffer")
     215                            .dwattr $C$DW$28, DW_AT_location[DW_OP_addr ESP8266_ProcessBuffer]
     216                            .dwattr $C$DW$28, DW_AT_type(*$C$DW$T$163)
     217                            .dwattr $C$DW$28, DW_AT_external
     218                            .dwattr $C$DW$28, DW_AT_decl_file("../esp8266.c")
     219                            .dwattr $C$DW$28, DW_AT_decl_line(0x64)
     220                            .dwattr $C$DW$28, DW_AT_decl_column(0x0f)
TI ARM Assembler PC v5.2.4 Sat Feb 06 22:51:21 2016

Tools Copyright (c) 1996-2015 Texas Instruments Incorporated
esp8266.asm                                                          PAGE    5

     221                            .global ESP8266_EchoResponse
     222 00000011                   .data
     223                            .align  1
     224                            .elfsym ESP8266_EchoResponse,SYM_SIZE(1)
     225 00000011           ESP8266_EchoResponse:
     226 00000010 00000000          .bits   0,8                     ; ESP8266_EchoResponse @ 0
     227                    
     228                    $C$DW$29        .dwtag  DW_TAG_variable, DW_AT_name("ESP8266_EchoResponse")
     229                            .dwattr $C$DW$29, DW_AT_TI_symbol_name("ESP8266_EchoResponse")
     230                            .dwattr $C$DW$29, DW_AT_location[DW_OP_addr ESP8266_EchoResponse]
     231                            .dwattr $C$DW$29, DW_AT_type(*$C$DW$T$163)
     232                            .dwattr $C$DW$29, DW_AT_external
     233                            .dwattr $C$DW$29, DW_AT_decl_file("../esp8266.c")
     234                            .dwattr $C$DW$29, DW_AT_decl_line(0x65)
     235                            .dwattr $C$DW$29, DW_AT_decl_column(0x0f)
     236                            .global ESP8266_ResponseComplete
     237 00000012                   .data
     238                            .align  1
     239                            .elfsym ESP8266_ResponseComplete,SYM_SIZE(1)
     240 00000012           ESP8266_ResponseComplete:
     241 00000010 00000000          .bits   0,8                     ; ESP8266_ResponseComplete @ 0
     242                    
     243                    $C$DW$30        .dwtag  DW_TAG_variable, DW_AT_name("ESP8266_ResponseComplete")
     244                            .dwattr $C$DW$30, DW_AT_TI_symbol_name("ESP8266_ResponseComplete")
     245                            .dwattr $C$DW$30, DW_AT_location[DW_OP_addr ESP8266_ResponseComplete]
     246                            .dwattr $C$DW$30, DW_AT_type(*$C$DW$T$163)
     247                            .dwattr $C$DW$30, DW_AT_external
     248                            .dwattr $C$DW$30, DW_AT_decl_file("../esp8266.c")
     249                            .dwattr $C$DW$30, DW_AT_decl_line(0x66)
     250                            .dwattr $C$DW$30, DW_AT_decl_column(0x0f)
     251                            .global ESP8266_APEnabled
     252 00000013                   .data
     253                            .align  1
     254                            .elfsym ESP8266_APEnabled,SYM_SIZE(1)
     255 00000013           ESP8266_APEnabled:
     256 00000010 00000000          .bits   0,8                     ; ESP8266_APEnabled @ 0
     257                    
     258                    $C$DW$31        .dwtag  DW_TAG_variable, DW_AT_name("ESP8266_APEnabled")
     259                            .dwattr $C$DW$31, DW_AT_TI_symbol_name("ESP8266_APEnabled")
     260                            .dwattr $C$DW$31, DW_AT_location[DW_OP_addr ESP8266_APEnabled]
     261                            .dwattr $C$DW$31, DW_AT_type(*$C$DW$T$163)
     262                            .dwattr $C$DW$31, DW_AT_external
     263                            .dwattr $C$DW$31, DW_AT_decl_file("../esp8266.c")
     264                            .dwattr $C$DW$31, DW_AT_decl_line(0x67)
     265                            .dwattr $C$DW$31, DW_AT_decl_column(0x0f)
     266                            .global ESP8266_ClientEnabled
     267 00000014                   .data
     268                            .align  1
     269                            .elfsym ESP8266_ClientEnabled,SYM_SIZE(1)
     270 00000014           ESP8266_ClientEnabled:
     271 00000014 00000000          .bits   0,8                     ; ESP8266_ClientEnabled @ 0
     272                    
     273                    $C$DW$32        .dwtag  DW_TAG_variable, DW_AT_name("ESP8266_ClientEnabled")
     274                            .dwattr $C$DW$32, DW_AT_TI_symbol_name("ESP8266_ClientEnabled")
     275                            .dwattr $C$DW$32, DW_AT_location[DW_OP_addr ESP8266_ClientEnabled]
TI ARM Assembler PC v5.2.4 Sat Feb 06 22:51:21 2016

Tools Copyright (c) 1996-2015 Texas Instruments Incorporated
esp8266.asm                                                          PAGE    6

     276                            .dwattr $C$DW$32, DW_AT_type(*$C$DW$T$163)
     277                            .dwattr $C$DW$32, DW_AT_external
     278                            .dwattr $C$DW$32, DW_AT_decl_file("../esp8266.c")
     279                            .dwattr $C$DW$32, DW_AT_decl_line(0x68)
     280                            .dwattr $C$DW$32, DW_AT_decl_column(0x0f)
     281                            .global ESP8266_ServerEnabled
     282 00000015                   .data
     283                            .align  1
     284                            .elfsym ESP8266_ServerEnabled,SYM_SIZE(1)
     285 00000015           ESP8266_ServerEnabled:
     286 00000014 00000000          .bits   0,8                     ; ESP8266_ServerEnabled @ 0
     287                    
     288                    $C$DW$33        .dwtag  DW_TAG_variable, DW_AT_name("ESP8266_ServerEnabled")
     289                            .dwattr $C$DW$33, DW_AT_TI_symbol_name("ESP8266_ServerEnabled")
     290                            .dwattr $C$DW$33, DW_AT_location[DW_OP_addr ESP8266_ServerEnabled]
     291                            .dwattr $C$DW$33, DW_AT_type(*$C$DW$T$163)
     292                            .dwattr $C$DW$33, DW_AT_external
     293                            .dwattr $C$DW$33, DW_AT_decl_file("../esp8266.c")
     294                            .dwattr $C$DW$33, DW_AT_decl_line(0x69)
     295                            .dwattr $C$DW$33, DW_AT_decl_column(0x0f)
     296                            .global ESP8266_InputProcessingEnabled
     297 00000016                   .data
     298                            .align  1
     299                            .elfsym ESP8266_InputProcessingEnabled,SYM_SIZE(1)
     300 00000016           ESP8266_InputProcessingEnabled:
     301 00000014 00000000          .bits   0,8                     ; ESP8266_InputProcessingEnabled @ 0
     302                    
     303                    $C$DW$34        .dwtag  DW_TAG_variable, DW_AT_name("ESP8266_InputProcessingEnabled")
     304                            .dwattr $C$DW$34, DW_AT_TI_symbol_name("ESP8266_InputProcessingEnabled")
     305                            .dwattr $C$DW$34, DW_AT_location[DW_OP_addr ESP8266_InputProcessingEnabled]
     306                            .dwattr $C$DW$34, DW_AT_type(*$C$DW$T$163)
     307                            .dwattr $C$DW$34, DW_AT_external
     308                            .dwattr $C$DW$34, DW_AT_decl_file("../esp8266.c")
     309                            .dwattr $C$DW$34, DW_AT_decl_line(0x6a)
     310                            .dwattr $C$DW$34, DW_AT_decl_column(0x0f)
     311                            .global ESP8266_PageRequested
     312 00000017                   .data
     313                            .align  1
     314                            .elfsym ESP8266_PageRequested,SYM_SIZE(1)
     315 00000017           ESP8266_PageRequested:
     316 00000014 00000000          .bits   0,8                     ; ESP8266_PageRequested @ 0
     317                    
     318                    $C$DW$35        .dwtag  DW_TAG_variable, DW_AT_name("ESP8266_PageRequested")
     319                            .dwattr $C$DW$35, DW_AT_TI_symbol_name("ESP8266_PageRequested")
     320                            .dwattr $C$DW$35, DW_AT_location[DW_OP_addr ESP8266_PageRequested]
     321                            .dwattr $C$DW$35, DW_AT_type(*$C$DW$T$163)
     322                            .dwattr $C$DW$35, DW_AT_external
     323                            .dwattr $C$DW$35, DW_AT_decl_file("../esp8266.c")
     324                            .dwattr $C$DW$35, DW_AT_decl_line(0x6b)
     325                            .dwattr $C$DW$35, DW_AT_decl_column(0x0f)
     326                            .global SearchString
     327                            .common SearchString,32,1
     328                    $C$DW$36        .dwtag  DW_TAG_variable, DW_AT_name("SearchString")
     329                            .dwattr $C$DW$36, DW_AT_TI_symbol_name("SearchString")
     330                            .dwattr $C$DW$36, DW_AT_location[DW_OP_addr SearchString]
TI ARM Assembler PC v5.2.4 Sat Feb 06 22:51:21 2016

Tools Copyright (c) 1996-2015 Texas Instruments Incorporated
esp8266.asm                                                          PAGE    7

     331                            .dwattr $C$DW$36, DW_AT_type(*$C$DW$T$120)
     332                            .dwattr $C$DW$36, DW_AT_external
     333                            .dwattr $C$DW$36, DW_AT_decl_file("../esp8266.c")
     334                            .dwattr $C$DW$36, DW_AT_decl_line(0x72)
     335                            .dwattr $C$DW$36, DW_AT_decl_column(0x06)
     336                            .global SearchLooking
     337 00000018                   .data
     338                            .align  1
     339                            .elfsym SearchLooking,SYM_SIZE(1)
     340 00000018           SearchLooking:
     341 00000018 00000000          .bits   0,8                     ; SearchLooking @ 0
     342                    
     343                    $C$DW$37        .dwtag  DW_TAG_variable, DW_AT_name("SearchLooking")
     344                            .dwattr $C$DW$37, DW_AT_TI_symbol_name("SearchLooking")
     345                            .dwattr $C$DW$37, DW_AT_location[DW_OP_addr SearchLooking]
     346                            .dwattr $C$DW$37, DW_AT_type(*$C$DW$T$163)
     347                            .dwattr $C$DW$37, DW_AT_external
     348                            .dwattr $C$DW$37, DW_AT_decl_file("../esp8266.c")
     349                            .dwattr $C$DW$37, DW_AT_decl_line(0x73)
     350                            .dwattr $C$DW$37, DW_AT_decl_column(0x0f)
     351                            .global SearchFound
     352 00000019                   .data
     353                            .align  1
     354                            .elfsym SearchFound,SYM_SIZE(1)
     355 00000019           SearchFound:
     356 00000018 00000000          .bits   0,8                     ; SearchFound @ 0
     357                    
     358                    $C$DW$38        .dwtag  DW_TAG_variable, DW_AT_name("SearchFound")
     359                            .dwattr $C$DW$38, DW_AT_TI_symbol_name("SearchFound")
     360                            .dwattr $C$DW$38, DW_AT_location[DW_OP_addr SearchFound]
     361                            .dwattr $C$DW$38, DW_AT_type(*$C$DW$T$163)
     362                            .dwattr $C$DW$38, DW_AT_external
     363                            .dwattr $C$DW$38, DW_AT_decl_file("../esp8266.c")
     364                            .dwattr $C$DW$38, DW_AT_decl_line(0x74)
     365                            .dwattr $C$DW$38, DW_AT_decl_column(0x0f)
     366                            .global SearchIndex
     367 0000001a                   .data
     368                            .align  4
     369                            .elfsym SearchIndex,SYM_SIZE(4)
     370 0000001c           SearchIndex:
     371 0000001c 00000000          .bits   0,32                    ; SearchIndex @ 0
     372                    
     373                    $C$DW$39        .dwtag  DW_TAG_variable, DW_AT_name("SearchIndex")
     374                            .dwattr $C$DW$39, DW_AT_TI_symbol_name("SearchIndex")
     375                            .dwattr $C$DW$39, DW_AT_location[DW_OP_addr SearchIndex]
     376                            .dwattr $C$DW$39, DW_AT_type(*$C$DW$T$88)
     377                            .dwattr $C$DW$39, DW_AT_external
     378                            .dwattr $C$DW$39, DW_AT_decl_file("../esp8266.c")
     379                            .dwattr $C$DW$39, DW_AT_decl_line(0x75)
     380                            .dwattr $C$DW$39, DW_AT_decl_column(0x13)
     381                            .global ServerResponseSearchString
     382 00000020                   .data
     383                            .align  1
     384                            .elfsym ServerResponseSearchString,SYM_SIZE(16)
     385 00000020           ServerResponseSearchString:
TI ARM Assembler PC v5.2.4 Sat Feb 06 22:51:21 2016

Tools Copyright (c) 1996-2015 Texas Instruments Incorporated
esp8266.asm                                                          PAGE    8

     386 00000020 0000002B          .bits   43,8                    ; ServerResponseSearchString[0] @ 0
     387 00000020 0000692B          .bits   105,8                   ; ServerResponseSearchString[1] @ 8
     388 00000020 0070692B          .bits   112,8                   ; ServerResponseSearchString[2] @ 16
     389 00000020 6470692B          .bits   100,8                   ; ServerResponseSearchString[3] @ 24
     390 00000024 0000002C          .bits   44,8                    ; ServerResponseSearchString[4] @ 32
     391 00000024 0000002C          .bits   0,8                     ; ServerResponseSearchString[5] @ 40
     392 00000026                   .space  10
     393                    
     394                    $C$DW$40        .dwtag  DW_TAG_variable, DW_AT_name("ServerResponseSearchString")
     395                            .dwattr $C$DW$40, DW_AT_TI_symbol_name("ServerResponseSearchString")
     396                            .dwattr $C$DW$40, DW_AT_location[DW_OP_addr ServerResponseSearchString]
     397                            .dwattr $C$DW$40, DW_AT_type(*$C$DW$T$121)
     398                            .dwattr $C$DW$40, DW_AT_external
     399                            .dwattr $C$DW$40, DW_AT_decl_file("../esp8266.c")
     400                            .dwattr $C$DW$40, DW_AT_decl_line(0x96)
     401                            .dwattr $C$DW$40, DW_AT_decl_column(0x06)
     402                            .global ServerResponseSearchFinished
     403 00000030                   .data
     404                            .align  4
     405                            .elfsym ServerResponseSearchFinished,SYM_SIZE(4)
     406 00000030           ServerResponseSearchFinished:
     407 00000030 00000000          .bits   0,32                    ; ServerResponseSearchFinished @ 0
     408                    
     409                    $C$DW$41        .dwtag  DW_TAG_variable, DW_AT_name("ServerResponseSearchFinished")
     410                            .dwattr $C$DW$41, DW_AT_TI_symbol_name("ServerResponseSearchFinished")
     411                            .dwattr $C$DW$41, DW_AT_location[DW_OP_addr ServerResponseSearchFinished]
     412                            .dwattr $C$DW$41, DW_AT_type(*$C$DW$T$88)
     413                            .dwattr $C$DW$41, DW_AT_external
     414                            .dwattr $C$DW$41, DW_AT_decl_file("../esp8266.c")
     415                            .dwattr $C$DW$41, DW_AT_decl_line(0x97)
     416                            .dwattr $C$DW$41, DW_AT_decl_column(0x13)
     417                            .global ServerResponseSearchIndex
     418 00000034                   .data
     419                            .align  4
     420                            .elfsym ServerResponseSearchIndex,SYM_SIZE(4)
     421 00000034           ServerResponseSearchIndex:
     422 00000034 00000000          .bits   0,32                    ; ServerResponseSearchIndex @ 0
     423                    
     424                    $C$DW$42        .dwtag  DW_TAG_variable, DW_AT_name("ServerResponseSearchIndex")
     425                            .dwattr $C$DW$42, DW_AT_TI_symbol_name("ServerResponseSearchIndex")
     426                            .dwattr $C$DW$42, DW_AT_location[DW_OP_addr ServerResponseSearchIndex]
     427                            .dwattr $C$DW$42, DW_AT_type(*$C$DW$T$88)
     428                            .dwattr $C$DW$42, DW_AT_external
     429                            .dwattr $C$DW$42, DW_AT_decl_file("../esp8266.c")
     430                            .dwattr $C$DW$42, DW_AT_decl_line(0x98)
     431                            .dwattr $C$DW$42, DW_AT_decl_column(0x13)
     432                            .global ServerResponseSearchLooking
     433 00000038                   .data
     434                            .align  4
     435                            .elfsym ServerResponseSearchLooking,SYM_SIZE(4)
     436 00000038           ServerResponseSearchLooking:
     437 00000038 00000000          .bits   0,32                    ; ServerResponseSearchLooking @ 0
     438                    
     439                    $C$DW$43        .dwtag  DW_TAG_variable, DW_AT_name("ServerResponseSearchLooking")
     440                            .dwattr $C$DW$43, DW_AT_TI_symbol_name("ServerResponseSearchLooking")
TI ARM Assembler PC v5.2.4 Sat Feb 06 22:51:21 2016

Tools Copyright (c) 1996-2015 Texas Instruments Incorporated
esp8266.asm                                                          PAGE    9

     441                            .dwattr $C$DW$43, DW_AT_location[DW_OP_addr ServerResponseSearchLooking]
     442                            .dwattr $C$DW$43, DW_AT_type(*$C$DW$T$88)
     443                            .dwattr $C$DW$43, DW_AT_external
     444                            .dwattr $C$DW$43, DW_AT_decl_file("../esp8266.c")
     445                            .dwattr $C$DW$43, DW_AT_decl_line(0x99)
     446                            .dwattr $C$DW$43, DW_AT_decl_column(0x13)
     447                            .global ESP8266_ServerPort
     448 0000003c                   .data
     449                            .align  2
     450                            .elfsym ESP8266_ServerPort,SYM_SIZE(2)
     451 0000003c           ESP8266_ServerPort:
     452 0000003c 00000050          .bits   80,16                   ; ESP8266_ServerPort @ 0
     453                    
     454                    $C$DW$44        .dwtag  DW_TAG_variable, DW_AT_name("ESP8266_ServerPort")
     455                            .dwattr $C$DW$44, DW_AT_TI_symbol_name("ESP8266_ServerPort")
     456                            .dwattr $C$DW$44, DW_AT_location[DW_OP_addr ESP8266_ServerPort]
     457                            .dwattr $C$DW$44, DW_AT_type(*$C$DW$T$47)
     458                            .dwattr $C$DW$44, DW_AT_external
     459                            .dwattr $C$DW$44, DW_AT_decl_file("../esp8266.c")
     460                            .dwattr $C$DW$44, DW_AT_decl_line(0x292)
     461                            .dwattr $C$DW$44, DW_AT_decl_column(0x0a)
     462                            .global ESP8266_ServerTimeout
     463 0000003e                   .data
     464                            .align  2
     465                            .elfsym ESP8266_ServerTimeout,SYM_SIZE(2)
     466 0000003e           ESP8266_ServerTimeout:
     467 0000003c 70800050          .bits   28800,16                        ; ESP8266_ServerTimeout @ 0
     468                    
     469                    $C$DW$45        .dwtag  DW_TAG_variable, DW_AT_name("ESP8266_ServerTimeout")
     470                            .dwattr $C$DW$45, DW_AT_TI_symbol_name("ESP8266_ServerTimeout")
     471                            .dwattr $C$DW$45, DW_AT_location[DW_OP_addr ESP8266_ServerTimeout]
     472                            .dwattr $C$DW$45, DW_AT_type(*$C$DW$T$47)
     473                            .dwattr $C$DW$45, DW_AT_external
     474                            .dwattr $C$DW$45, DW_AT_decl_file("../esp8266.c")
     475                            .dwattr $C$DW$45, DW_AT_decl_line(0x293)
     476                            .dwattr $C$DW$45, DW_AT_decl_column(0x0a)
     477                            .global formBody
     478 00000000                   .sect   ".const:.string:formBody"
     479                            .clink
     480                            .align  1
     481                            .elfsym formBody,SYM_SIZE(240)
     482 00000000           formBody:
     483 00000000 0000003C          .bits   60,8                    ; formBody[0] @ 0
     484 00000000 0000213C          .bits   33,8                    ; formBody[1] @ 8
     485 00000000 0044213C          .bits   68,8                    ; formBody[2] @ 16
     486 00000000 4F44213C          .bits   79,8                    ; formBody[3] @ 24
     487 00000004 00000043          .bits   67,8                    ; formBody[4] @ 32
     488 00000004 00005443          .bits   84,8                    ; formBody[5] @ 40
     489 00000004 00595443          .bits   89,8                    ; formBody[6] @ 48
     490 00000004 50595443          .bits   80,8                    ; formBody[7] @ 56
     491 00000008 00000045          .bits   69,8                    ; formBody[8] @ 64
     492 00000008 00002045          .bits   32,8                    ; formBody[9] @ 72
     493 00000008 00682045          .bits   104,8                   ; formBody[10] @ 80
     494 00000008 74682045          .bits   116,8                   ; formBody[11] @ 88
     495 0000000c 0000006D          .bits   109,8                   ; formBody[12] @ 96
TI ARM Assembler PC v5.2.4 Sat Feb 06 22:51:21 2016

Tools Copyright (c) 1996-2015 Texas Instruments Incorporated
esp8266.asm                                                          PAGE   10

     496 0000000c 00006C6D          .bits   108,8                   ; formBody[13] @ 104
     497 0000000c 003E6C6D          .bits   62,8                    ; formBody[14] @ 112
     498 0000000c 3C3E6C6D          .bits   60,8                    ; formBody[15] @ 120
     499 00000010 00000068          .bits   104,8                   ; formBody[16] @ 128
     500 00000010 00007468          .bits   116,8                   ; formBody[17] @ 136
     501 00000010 006D7468          .bits   109,8                   ; formBody[18] @ 144
     502 00000010 6C6D7468          .bits   108,8                   ; formBody[19] @ 152
     503 00000014 0000003E          .bits   62,8                    ; formBody[20] @ 160
     504 00000014 00003C3E          .bits   60,8                    ; formBody[21] @ 168
     505 00000014 00623C3E          .bits   98,8                    ; formBody[22] @ 176
     506 00000014 6F623C3E          .bits   111,8                   ; formBody[23] @ 184
     507 00000018 00000064          .bits   100,8                   ; formBody[24] @ 192
     508 00000018 00007964          .bits   121,8                   ; formBody[25] @ 200
     509 00000018 003E7964          .bits   62,8                    ; formBody[26] @ 208
     510 00000018 3C3E7964          .bits   60,8                    ; formBody[27] @ 216
     511 0000001c 00000063          .bits   99,8                    ; formBody[28] @ 224
     512 0000001c 00006563          .bits   101,8                   ; formBody[29] @ 232
     513 0000001c 006E6563          .bits   110,8                   ; formBody[30] @ 240
     514 0000001c 746E6563          .bits   116,8                   ; formBody[31] @ 248
     515 00000020 00000065          .bits   101,8                   ; formBody[32] @ 256
     516 00000020 00007265          .bits   114,8                   ; formBody[33] @ 264
     517 00000020 003E7265          .bits   62,8                    ; formBody[34] @ 272
     518 00000020 203E7265          .bits   32,8                    ; formBody[35] @ 280
     519 00000024 00000020          .bits   32,8                    ; formBody[36] @ 288
     520 00000024 00002020          .bits   32,8                    ; formBody[37] @ 296
     521 00000024 003C2020          .bits   60,8                    ; formBody[38] @ 304
     522 00000024 683C2020          .bits   104,8                   ; formBody[39] @ 312
     523 00000028 00000031          .bits   49,8                    ; formBody[40] @ 320
     524 00000028 00003E31          .bits   62,8                    ; formBody[41] @ 328
     525 00000028 00453E31          .bits   69,8                    ; formBody[42] @ 336
     526 00000028 6E453E31          .bits   110,8                   ; formBody[43] @ 344
     527 0000002c 00000074          .bits   116,8                   ; formBody[44] @ 352
     528 0000002c 00006574          .bits   101,8                   ; formBody[45] @ 360
     529 0000002c 00726574          .bits   114,8                   ; formBody[46] @ 368
     530 0000002c 20726574          .bits   32,8                    ; formBody[47] @ 376
     531 00000030 00000061          .bits   97,8                    ; formBody[48] @ 384
     532 00000030 00002061          .bits   32,8                    ; formBody[49] @ 392
     533 00000030 006D2061          .bits   109,8                   ; formBody[50] @ 400
     534 00000030 656D2061          .bits   101,8                   ; formBody[51] @ 408
     535 00000034 00000073          .bits   115,8                   ; formBody[52] @ 416
     536 00000034 00007373          .bits   115,8                   ; formBody[53] @ 424
     537 00000034 00617373          .bits   97,8                    ; formBody[54] @ 432
     538 00000034 67617373          .bits   103,8                   ; formBody[55] @ 440
     539 00000038 00000065          .bits   101,8                   ; formBody[56] @ 448
     540 00000038 00002065          .bits   32,8                    ; formBody[57] @ 456
     541 00000038 00742065          .bits   116,8                   ; formBody[58] @ 464
     542 00000038 6F742065          .bits   111,8                   ; formBody[59] @ 472
     543 0000003c 00000020          .bits   32,8                    ; formBody[60] @ 480
     544 0000003c 00007320          .bits   115,8                   ; formBody[61] @ 488
     545 0000003c 00657320          .bits   101,8                   ; formBody[62] @ 496
     546 0000003c 6E657320          .bits   110,8                   ; formBody[63] @ 504
     547 00000040 00000064          .bits   100,8                   ; formBody[64] @ 512
     548 00000040 00002064          .bits   32,8                    ; formBody[65] @ 520
     549 00000040 00742064          .bits   116,8                   ; formBody[66] @ 528
     550 00000040 6F742064          .bits   111,8                   ; formBody[67] @ 536
TI ARM Assembler PC v5.2.4 Sat Feb 06 22:51:21 2016

Tools Copyright (c) 1996-2015 Texas Instruments Incorporated
esp8266.asm                                                          PAGE   11

     551 00000044 00000020          .bits   32,8                    ; formBody[68] @ 544
     552 00000044 00007920          .bits   121,8                   ; formBody[69] @ 552
     553 00000044 006F7920          .bits   111,8                   ; formBody[70] @ 560
     554 00000044 756F7920          .bits   117,8                   ; formBody[71] @ 568
     555 00000048 00000072          .bits   114,8                   ; formBody[72] @ 576
     556 00000048 00002072          .bits   32,8                    ; formBody[73] @ 584
     557 00000048 006D2072          .bits   109,8                   ; formBody[74] @ 592
     558 00000048 696D2072          .bits   105,8                   ; formBody[75] @ 600
     559 0000004c 00000063          .bits   99,8                    ; formBody[76] @ 608
     560 0000004c 00007263          .bits   114,8                   ; formBody[77] @ 616
     561 0000004c 006F7263          .bits   111,8                   ; formBody[78] @ 624
     562 0000004c 636F7263          .bits   99,8                    ; formBody[79] @ 632
     563 00000050 0000006F          .bits   111,8                   ; formBody[80] @ 640
     564 00000050 00006E6F          .bits   110,8                   ; formBody[81] @ 648
     565 00000050 00746E6F          .bits   116,8                   ; formBody[82] @ 656
     566 00000050 72746E6F          .bits   114,8                   ; formBody[83] @ 664
     567 00000054 0000006F          .bits   111,8                   ; formBody[84] @ 672
     568 00000054 00006C6F          .bits   108,8                   ; formBody[85] @ 680
     569 00000054 006C6C6F          .bits   108,8                   ; formBody[86] @ 688
     570 00000054 656C6C6F          .bits   101,8                   ; formBody[87] @ 696
     571 00000058 00000072          .bits   114,8                   ; formBody[88] @ 704
     572 00000058 00002172          .bits   33,8                    ; formBody[89] @ 712
     573 00000058 003C2172          .bits   60,8                    ; formBody[90] @ 720
     574 00000058 2F3C2172          .bits   47,8                    ; formBody[91] @ 728
     575 0000005c 00000068          .bits   104,8                   ; formBody[92] @ 736
     576 0000005c 00003168          .bits   49,8                    ; formBody[93] @ 744
     577 0000005c 003E3168          .bits   62,8                    ; formBody[94] @ 752
     578 0000005c 203E3168          .bits   32,8                    ; formBody[95] @ 760
     579 00000060 00000020          .bits   32,8                    ; formBody[96] @ 768
     580 00000060 00002020          .bits   32,8                    ; formBody[97] @ 776
     581 00000060 003C2020          .bits   60,8                    ; formBody[98] @ 784
     582 00000060 663C2020          .bits   102,8                   ; formBody[99] @ 792
     583 00000064 0000006F          .bits   111,8                   ; formBody[100] @ 800
     584 00000064 0000726F          .bits   114,8                   ; formBody[101] @ 808
     585 00000064 006D726F          .bits   109,8                   ; formBody[102] @ 816
     586 00000064 3E6D726F          .bits   62,8                    ; formBody[103] @ 824
     587 00000068 00000020          .bits   32,8                    ; formBody[104] @ 832
     588 00000068 00002020          .bits   32,8                    ; formBody[105] @ 840
     589 00000068 00202020          .bits   32,8                    ; formBody[106] @ 848
     590 00000068 3C202020          .bits   60,8                    ; formBody[107] @ 856
     591 0000006c 00000069          .bits   105,8                   ; formBody[108] @ 864
     592 0000006c 00006E69          .bits   110,8                   ; formBody[109] @ 872
     593 0000006c 00706E69          .bits   112,8                   ; formBody[110] @ 880
     594 0000006c 75706E69          .bits   117,8                   ; formBody[111] @ 888
     595 00000070 00000074          .bits   116,8                   ; formBody[112] @ 896
     596 00000070 00002074          .bits   32,8                    ; formBody[113] @ 904
     597 00000070 00742074          .bits   116,8                   ; formBody[114] @ 912
     598 00000070 79742074          .bits   121,8                   ; formBody[115] @ 920
     599 00000074 00000070          .bits   112,8                   ; formBody[116] @ 928
     600 00000074 00006570          .bits   101,8                   ; formBody[117] @ 936
     601 00000074 003D6570          .bits   61,8                    ; formBody[118] @ 944
     602 00000074 223D6570          .bits   34,8                    ; formBody[119] @ 952
     603 00000078 00000074          .bits   116,8                   ; formBody[120] @ 960
     604 00000078 00006574          .bits   101,8                   ; formBody[121] @ 968
     605 00000078 00786574          .bits   120,8                   ; formBody[122] @ 976
TI ARM Assembler PC v5.2.4 Sat Feb 06 22:51:21 2016

Tools Copyright (c) 1996-2015 Texas Instruments Incorporated
esp8266.asm                                                          PAGE   12

     606 00000078 74786574          .bits   116,8                   ; formBody[123] @ 984
     607 0000007c 00000022          .bits   34,8                    ; formBody[124] @ 992
     608 0000007c 00002022          .bits   32,8                    ; formBody[125] @ 1000
     609 0000007c 006E2022          .bits   110,8                   ; formBody[126] @ 1008
     610 0000007c 616E2022          .bits   97,8                    ; formBody[127] @ 1016
     611 00000080 0000006D          .bits   109,8                   ; formBody[128] @ 1024
     612 00000080 0000656D          .bits   101,8                   ; formBody[129] @ 1032
     613 00000080 003D656D          .bits   61,8                    ; formBody[130] @ 1040
     614 00000080 223D656D          .bits   34,8                    ; formBody[131] @ 1048
     615 00000084 0000006D          .bits   109,8                   ; formBody[132] @ 1056
     616 00000084 0000656D          .bits   101,8                   ; formBody[133] @ 1064
     617 00000084 0073656D          .bits   115,8                   ; formBody[134] @ 1072
     618 00000084 7373656D          .bits   115,8                   ; formBody[135] @ 1080
     619 00000088 00000061          .bits   97,8                    ; formBody[136] @ 1088
     620 00000088 00006761          .bits   103,8                   ; formBody[137] @ 1096
     621 00000088 00656761          .bits   101,8                   ; formBody[138] @ 1104
     622 00000088 22656761          .bits   34,8                    ; formBody[139] @ 1112
     623 0000008c 00000020          .bits   32,8                    ; formBody[140] @ 1120
     624 0000008c 00007620          .bits   118,8                   ; formBody[141] @ 1128
     625 0000008c 00617620          .bits   97,8                    ; formBody[142] @ 1136
     626 0000008c 6C617620          .bits   108,8                   ; formBody[143] @ 1144
     627 00000090 00000075          .bits   117,8                   ; formBody[144] @ 1152
     628 00000090 00006575          .bits   101,8                   ; formBody[145] @ 1160
     629 00000090 003D6575          .bits   61,8                    ; formBody[146] @ 1168
     630 00000090 223D6575          .bits   34,8                    ; formBody[147] @ 1176
     631 00000094 00000048          .bits   72,8                    ; formBody[148] @ 1184
     632 00000094 00006548          .bits   101,8                   ; formBody[149] @ 1192
     633 00000094 006C6548          .bits   108,8                   ; formBody[150] @ 1200
     634 00000094 6C6C6548          .bits   108,8                   ; formBody[151] @ 1208
     635 00000098 0000006F          .bits   111,8                   ; formBody[152] @ 1216
     636 00000098 0000206F          .bits   32,8                    ; formBody[153] @ 1224
     637 00000098 0045206F          .bits   69,8                    ; formBody[154] @ 1232
     638 00000098 5345206F          .bits   83,8                    ; formBody[155] @ 1240
     639 0000009c 00000050          .bits   80,8                    ; formBody[156] @ 1248
     640 0000009c 00003850          .bits   56,8                    ; formBody[157] @ 1256
     641 0000009c 00323850          .bits   50,8                    ; formBody[158] @ 1264
     642 0000009c 36323850          .bits   54,8                    ; formBody[159] @ 1272
     643 000000a0 00000036          .bits   54,8                    ; formBody[160] @ 1280
     644 000000a0 00002136          .bits   33,8                    ; formBody[161] @ 1288
     645 000000a0 00222136          .bits   34,8                    ; formBody[162] @ 1296
     646 000000a0 3E222136          .bits   62,8                    ; formBody[163] @ 1304
     647 000000a4 00000020          .bits   32,8                    ; formBody[164] @ 1312
     648 000000a4 00002020          .bits   32,8                    ; formBody[165] @ 1320
     649 000000a4 00202020          .bits   32,8                    ; formBody[166] @ 1328
     650 000000a4 3C202020          .bits   60,8                    ; formBody[167] @ 1336
     651 000000a8 00000062          .bits   98,8                    ; formBody[168] @ 1344
     652 000000a8 00007262          .bits   114,8                   ; formBody[169] @ 1352
     653 000000a8 003E7262          .bits   62,8                    ; formBody[170] @ 1360
     654 000000a8 3C3E7262          .bits   60,8                    ; formBody[171] @ 1368
     655 000000ac 00000069          .bits   105,8                   ; formBody[172] @ 1376
     656 000000ac 00006E69          .bits   110,8                   ; formBody[173] @ 1384
     657 000000ac 00706E69          .bits   112,8                   ; formBody[174] @ 1392
     658 000000ac 75706E69          .bits   117,8                   ; formBody[175] @ 1400
     659 000000b0 00000074          .bits   116,8                   ; formBody[176] @ 1408
     660 000000b0 00002074          .bits   32,8                    ; formBody[177] @ 1416
TI ARM Assembler PC v5.2.4 Sat Feb 06 22:51:21 2016

Tools Copyright (c) 1996-2015 Texas Instruments Incorporated
esp8266.asm                                                          PAGE   13

     661 000000b0 00742074          .bits   116,8                   ; formBody[178] @ 1424
     662 000000b0 79742074          .bits   121,8                   ; formBody[179] @ 1432
     663 000000b4 00000070          .bits   112,8                   ; formBody[180] @ 1440
     664 000000b4 00006570          .bits   101,8                   ; formBody[181] @ 1448
     665 000000b4 003D6570          .bits   61,8                    ; formBody[182] @ 1456
     666 000000b4 223D6570          .bits   34,8                    ; formBody[183] @ 1464
     667 000000b8 00000073          .bits   115,8                   ; formBody[184] @ 1472
     668 000000b8 00007573          .bits   117,8                   ; formBody[185] @ 1480
     669 000000b8 00627573          .bits   98,8                    ; formBody[186] @ 1488
     670 000000b8 6D627573          .bits   109,8                   ; formBody[187] @ 1496
     671 000000bc 00000069          .bits   105,8                   ; formBody[188] @ 1504
     672 000000bc 00007469          .bits   116,8                   ; formBody[189] @ 1512
     673 000000bc 00227469          .bits   34,8                    ; formBody[190] @ 1520
     674 000000bc 20227469          .bits   32,8                    ; formBody[191] @ 1528
     675 000000c0 00000076          .bits   118,8                   ; formBody[192] @ 1536
     676 000000c0 00006176          .bits   97,8                    ; formBody[193] @ 1544
     677 000000c0 006C6176          .bits   108,8                   ; formBody[194] @ 1552
     678 000000c0 756C6176          .bits   117,8                   ; formBody[195] @ 1560
     679 000000c4 00000065          .bits   101,8                   ; formBody[196] @ 1568
     680 000000c4 00003D65          .bits   61,8                    ; formBody[197] @ 1576
     681 000000c4 00223D65          .bits   34,8                    ; formBody[198] @ 1584
     682 000000c4 47223D65          .bits   71,8                    ; formBody[199] @ 1592
     683 000000c8 0000006F          .bits   111,8                   ; formBody[200] @ 1600
     684 000000c8 0000216F          .bits   33,8                    ; formBody[201] @ 1608
     685 000000c8 0022216F          .bits   34,8                    ; formBody[202] @ 1616
     686 000000c8 3E22216F          .bits   62,8                    ; formBody[203] @ 1624
     687 000000cc 00000020          .bits   32,8                    ; formBody[204] @ 1632
     688 000000cc 00002020          .bits   32,8                    ; formBody[205] @ 1640
     689 000000cc 00202020          .bits   32,8                    ; formBody[206] @ 1648
     690 000000cc 3C202020          .bits   60,8                    ; formBody[207] @ 1656
     691 000000d0 0000002F          .bits   47,8                    ; formBody[208] @ 1664
     692 000000d0 0000662F          .bits   102,8                   ; formBody[209] @ 1672
     693 000000d0 006F662F          .bits   111,8                   ; formBody[210] @ 1680
     694 000000d0 726F662F          .bits   114,8                   ; formBody[211] @ 1688
     695 000000d4 0000006D          .bits   109,8                   ; formBody[212] @ 1696
     696 000000d4 00003E6D          .bits   62,8                    ; formBody[213] @ 1704
     697 000000d4 003C3E6D          .bits   60,8                    ; formBody[214] @ 1712
     698 000000d4 2F3C3E6D          .bits   47,8                    ; formBody[215] @ 1720
     699 000000d8 00000063          .bits   99,8                    ; formBody[216] @ 1728
     700 000000d8 00006563          .bits   101,8                   ; formBody[217] @ 1736
     701 000000d8 006E6563          .bits   110,8                   ; formBody[218] @ 1744
     702 000000d8 746E6563          .bits   116,8                   ; formBody[219] @ 1752
     703 000000dc 00000065          .bits   101,8                   ; formBody[220] @ 1760
     704 000000dc 00007265          .bits   114,8                   ; formBody[221] @ 1768
     705 000000dc 003E7265          .bits   62,8                    ; formBody[222] @ 1776
     706 000000dc 3C3E7265          .bits   60,8                    ; formBody[223] @ 1784
     707 000000e0 0000002F          .bits   47,8                    ; formBody[224] @ 1792
     708 000000e0 0000622F          .bits   98,8                    ; formBody[225] @ 1800
     709 000000e0 006F622F          .bits   111,8                   ; formBody[226] @ 1808
     710 000000e0 646F622F          .bits   100,8                   ; formBody[227] @ 1816
     711 000000e4 00000079          .bits   121,8                   ; formBody[228] @ 1824
     712 000000e4 00003E79          .bits   62,8                    ; formBody[229] @ 1832
     713 000000e4 003C3E79          .bits   60,8                    ; formBody[230] @ 1840
     714 000000e4 2F3C3E79          .bits   47,8                    ; formBody[231] @ 1848
     715 000000e8 00000068          .bits   104,8                   ; formBody[232] @ 1856
TI ARM Assembler PC v5.2.4 Sat Feb 06 22:51:21 2016

Tools Copyright (c) 1996-2015 Texas Instruments Incorporated
esp8266.asm                                                          PAGE   14

     716 000000e8 00007468          .bits   116,8                   ; formBody[233] @ 1864
     717 000000e8 006D7468          .bits   109,8                   ; formBody[234] @ 1872
     718 000000e8 6C6D7468          .bits   108,8                   ; formBody[235] @ 1880
     719 000000ec 0000003E          .bits   62,8                    ; formBody[236] @ 1888
     720 000000ec 0000003E          .bits   0,8                     ; formBody[237] @ 1896
     721                    
     722                    $C$DW$46        .dwtag  DW_TAG_variable, DW_AT_name("formBody")
     723                            .dwattr $C$DW$46, DW_AT_TI_symbol_name("formBody")
     724                            .dwattr $C$DW$46, DW_AT_location[DW_OP_addr formBody]
     725                            .dwattr $C$DW$46, DW_AT_type(*$C$DW$T$109)
     726                            .dwattr $C$DW$46, DW_AT_external
     727                            .dwattr $C$DW$46, DW_AT_decl_file("../esp8266.c")
     728                            .dwattr $C$DW$46, DW_AT_decl_line(0x2db)
     729                            .dwattr $C$DW$46, DW_AT_decl_column(0x0c)
     730 00000000                   .sect   ".const:.string:$P$T0$1"
     731                            .clink
     732                            .align  1
     733                            .elfsym ||$P$T0$1||,SYM_SIZE(80)
     734 00000000           ||$P$T0$1||:
     735 00000000 00000048          .bits   72,8                    ; $P$T0$1[0] @ 0
     736 00000000 00005448          .bits   84,8                    ; $P$T0$1[1] @ 8
     737 00000000 00545448          .bits   84,8                    ; $P$T0$1[2] @ 16
     738 00000000 50545448          .bits   80,8                    ; $P$T0$1[3] @ 24
     739 00000004 0000002F          .bits   47,8                    ; $P$T0$1[4] @ 32
     740 00000004 0000312F          .bits   49,8                    ; $P$T0$1[5] @ 40
     741 00000004 002E312F          .bits   46,8                    ; $P$T0$1[6] @ 48
     742 00000004 312E312F          .bits   49,8                    ; $P$T0$1[7] @ 56
     743 00000008 00000020          .bits   32,8                    ; $P$T0$1[8] @ 64
     744 00000008 00003220          .bits   50,8                    ; $P$T0$1[9] @ 72
     745 00000008 00303220          .bits   48,8                    ; $P$T0$1[10] @ 80
     746 00000008 30303220          .bits   48,8                    ; $P$T0$1[11] @ 88
     747 0000000c 00000020          .bits   32,8                    ; $P$T0$1[12] @ 96
     748 0000000c 00004F20          .bits   79,8                    ; $P$T0$1[13] @ 104
     749 0000000c 004B4F20          .bits   75,8                    ; $P$T0$1[14] @ 112
     750 0000000c 0D4B4F20          .bits   13,8                    ; $P$T0$1[15] @ 120
     751 00000010 0000000A          .bits   10,8                    ; $P$T0$1[16] @ 128
     752 00000010 0000430A          .bits   67,8                    ; $P$T0$1[17] @ 136
     753 00000010 006F430A          .bits   111,8                   ; $P$T0$1[18] @ 144
     754 00000010 6E6F430A          .bits   110,8                   ; $P$T0$1[19] @ 152
     755 00000014 00000074          .bits   116,8                   ; $P$T0$1[20] @ 160
     756 00000014 00006574          .bits   101,8                   ; $P$T0$1[21] @ 168
     757 00000014 006E6574          .bits   110,8                   ; $P$T0$1[22] @ 176
     758 00000014 746E6574          .bits   116,8                   ; $P$T0$1[23] @ 184
     759 00000018 0000002D          .bits   45,8                    ; $P$T0$1[24] @ 192
     760 00000018 0000542D          .bits   84,8                    ; $P$T0$1[25] @ 200
     761 00000018 0079542D          .bits   121,8                   ; $P$T0$1[26] @ 208
     762 00000018 7079542D          .bits   112,8                   ; $P$T0$1[27] @ 216
     763 0000001c 00000065          .bits   101,8                   ; $P$T0$1[28] @ 224
     764 0000001c 00003A65          .bits   58,8                    ; $P$T0$1[29] @ 232
     765 0000001c 00203A65          .bits   32,8                    ; $P$T0$1[30] @ 240
     766 0000001c 74203A65          .bits   116,8                   ; $P$T0$1[31] @ 248
     767 00000020 00000065          .bits   101,8                   ; $P$T0$1[32] @ 256
     768 00000020 00007865          .bits   120,8                   ; $P$T0$1[33] @ 264
     769 00000020 00747865          .bits   116,8                   ; $P$T0$1[34] @ 272
     770 00000020 2F747865          .bits   47,8                    ; $P$T0$1[35] @ 280
TI ARM Assembler PC v5.2.4 Sat Feb 06 22:51:21 2016

Tools Copyright (c) 1996-2015 Texas Instruments Incorporated
esp8266.asm                                                          PAGE   15

     771 00000024 00000068          .bits   104,8                   ; $P$T0$1[36] @ 288
     772 00000024 00007468          .bits   116,8                   ; $P$T0$1[37] @ 296
     773 00000024 006D7468          .bits   109,8                   ; $P$T0$1[38] @ 304
     774 00000024 6C6D7468          .bits   108,8                   ; $P$T0$1[39] @ 312
     775 00000028 0000000D          .bits   13,8                    ; $P$T0$1[40] @ 320
     776 00000028 00000A0D          .bits   10,8                    ; $P$T0$1[41] @ 328
     777 00000028 00430A0D          .bits   67,8                    ; $P$T0$1[42] @ 336
     778 00000028 6F430A0D          .bits   111,8                   ; $P$T0$1[43] @ 344
     779 0000002c 0000006E          .bits   110,8                   ; $P$T0$1[44] @ 352
     780 0000002c 00006E6E          .bits   110,8                   ; $P$T0$1[45] @ 360
     781 0000002c 00656E6E          .bits   101,8                   ; $P$T0$1[46] @ 368
     782 0000002c 63656E6E          .bits   99,8                    ; $P$T0$1[47] @ 376
     783 00000030 00000074          .bits   116,8                   ; $P$T0$1[48] @ 384
     784 00000030 00006974          .bits   105,8                   ; $P$T0$1[49] @ 392
     785 00000030 006F6974          .bits   111,8                   ; $P$T0$1[50] @ 400
     786 00000030 6E6F6974          .bits   110,8                   ; $P$T0$1[51] @ 408
     787 00000034 0000003A          .bits   58,8                    ; $P$T0$1[52] @ 416
     788 00000034 0000203A          .bits   32,8                    ; $P$T0$1[53] @ 424
     789 00000034 0063203A          .bits   99,8                    ; $P$T0$1[54] @ 432
     790 00000034 6C63203A          .bits   108,8                   ; $P$T0$1[55] @ 440
     791 00000038 0000006F          .bits   111,8                   ; $P$T0$1[56] @ 448
     792 00000038 0000736F          .bits   115,8                   ; $P$T0$1[57] @ 456
     793 00000038 0065736F          .bits   101,8                   ; $P$T0$1[58] @ 464
     794 00000038 0D65736F          .bits   13,8                    ; $P$T0$1[59] @ 472
     795 0000003c 0000000A          .bits   10,8                    ; $P$T0$1[60] @ 480
     796 0000003c 0000430A          .bits   67,8                    ; $P$T0$1[61] @ 488
     797 0000003c 006F430A          .bits   111,8                   ; $P$T0$1[62] @ 496
     798 0000003c 6E6F430A          .bits   110,8                   ; $P$T0$1[63] @ 504
     799 00000040 00000074          .bits   116,8                   ; $P$T0$1[64] @ 512
     800 00000040 00006574          .bits   101,8                   ; $P$T0$1[65] @ 520
     801 00000040 006E6574          .bits   110,8                   ; $P$T0$1[66] @ 528
     802 00000040 746E6574          .bits   116,8                   ; $P$T0$1[67] @ 536
     803 00000044 0000002D          .bits   45,8                    ; $P$T0$1[68] @ 544
     804 00000044 00004C2D          .bits   76,8                    ; $P$T0$1[69] @ 552
     805 00000044 00654C2D          .bits   101,8                   ; $P$T0$1[70] @ 560
     806 00000044 6E654C2D          .bits   110,8                   ; $P$T0$1[71] @ 568
     807 00000048 00000067          .bits   103,8                   ; $P$T0$1[72] @ 576
     808 00000048 00007467          .bits   116,8                   ; $P$T0$1[73] @ 584
     809 00000048 00687467          .bits   104,8                   ; $P$T0$1[74] @ 592
     810 00000048 3A687467          .bits   58,8                    ; $P$T0$1[75] @ 600
     811 0000004c 00000020          .bits   32,8                    ; $P$T0$1[76] @ 608
     812 0000004c 00000020          .bits   0,8                     ; $P$T0$1[77] @ 616
     813                    
     814                    $C$DW$47        .dwtag  DW_TAG_variable, DW_AT_name("$P$T0$1")
     815                            .dwattr $C$DW$47, DW_AT_TI_symbol_name("$P$T0$1")
     816                            .dwattr $C$DW$47, DW_AT_type(*$C$DW$T$110)
     817                            .dwattr $C$DW$47, DW_AT_location[DW_OP_addr ||$P$T0$1||]
     818                            .dwattr $C$DW$47, DW_AT_decl_file("../esp8266.c")
     819                            .dwattr $C$DW$47, DW_AT_decl_line(0x2f6)
     820                            .dwattr $C$DW$47, DW_AT_decl_column(0x08)
     821                    ;       C:\ti\ccsv6\tools\compiler\ti-cgt-arm_5.2.4\bin\armacpia.exe -@C:\\Users\\VALVAN~1\\AppData\\L
     822 00000000                   .sect   ".text"
     823                            .clink
     824                            .thumbfunc lc
     825 00000000                   .thumb
TI ARM Assembler PC v5.2.4 Sat Feb 06 22:51:21 2016

Tools Copyright (c) 1996-2015 Texas Instruments Incorporated
esp8266.asm                                                          PAGE   16

     826                            .global lc
     827                    
     828                    $C$DW$48        .dwtag  DW_TAG_subprogram, DW_AT_name("lc")
     829                            .dwattr $C$DW$48, DW_AT_low_pc(lc)
     830                            .dwattr $C$DW$48, DW_AT_high_pc(0x00)
     831                            .dwattr $C$DW$48, DW_AT_TI_symbol_name("lc")
     832                            .dwattr $C$DW$48, DW_AT_external
     833                            .dwattr $C$DW$48, DW_AT_type(*$C$DW$T$6)
     834                            .dwattr $C$DW$48, DW_AT_TI_begin_file("../esp8266.c")
     835                            .dwattr $C$DW$48, DW_AT_TI_begin_line(0x76)
     836                            .dwattr $C$DW$48, DW_AT_TI_begin_column(0x06)
     837                            .dwattr $C$DW$48, DW_AT_decl_file("../esp8266.c")
     838                            .dwattr $C$DW$48, DW_AT_decl_line(0x76)
     839                            .dwattr $C$DW$48, DW_AT_decl_column(0x06)
     840                            .dwattr $C$DW$48, DW_AT_TI_max_frame_size(0x08)
     841                            .dwpsn  file "../esp8266.c",line 118,column 21,is_stmt,address lc,isa 1
     842                    
     843                            .dwfde $C$DW$CIE, lc
     844                    $C$DW$49        .dwtag  DW_TAG_formal_parameter, DW_AT_name("letter")
     845                            .dwattr $C$DW$49, DW_AT_TI_symbol_name("letter")
     846                            .dwattr $C$DW$49, DW_AT_type(*$C$DW$T$6)
     847                            .dwattr $C$DW$49, DW_AT_location[DW_OP_reg0]
     848                    
     849                    ;*****************************************************************************
     850                    ;* FUNCTION NAME: lc                                                         *
     851                    ;*                                                                           *
     852                    ;*   Regs Modified     : A1,SP,SR                                            *
     853                    ;*   Regs Used         : A1,SP,LR,SR                                         *
     854                    ;*   Local Frame Size  : 0 Args + 4 Auto + 0 Save = 4 byte                   *
     855                    ;*****************************************************************************
     856 00000000           lc:
     857                    ;* --------------------------------------------------------------------------*
     858                            .dwcfi  cfa_offset, 0
     859 00000000 0D08F1AD          SUB       SP, SP, #8            ; [DPU_3_PIPE]  ; [KEEP 32-BIT INS]
     860                            .dwcfi  cfa_offset, 8
     861                    $C$DW$50        .dwtag  DW_TAG_variable, DW_AT_name("letter")
     862                            .dwattr $C$DW$50, DW_AT_TI_symbol_name("letter")
     863                            .dwattr $C$DW$50, DW_AT_type(*$C$DW$T$6)
     864                            .dwattr $C$DW$50, DW_AT_location[DW_OP_breg13 0]
     865                    ;----------------------------------------------------------------------
     866                    ; 118 | char lc(char letter){                                                  
     867                    ;----------------------------------------------------------------------
     868 00000004 0000F88D          STRB      A1, [SP, #0]          ; [DPU_3_PIPE] |118|  ; [KEEP 32-BIT INS]
     869                            .dwpsn  file "../esp8266.c",line 119,column 3,is_stmt,isa 1
     870                    ;----------------------------------------------------------------------
     871                    ; 119 | if((letter>='A')&&(letter<='Z')) letter |= 0x20;                       
     872                    ;----------------------------------------------------------------------
     873 00000008 0000F89D          LDRB      A1, [SP, #0]          ; [DPU_3_PIPE] |119|  ; [KEEP 32-BIT INS]
     874 0000000c 2841              CMP       A1, #65               ; [DPU_3_PIPE] |119|  ; [ORIG 16-BIT INS]
     875 0000000e DB09              BLT       ||$C$L1||             ; [DPU_3_PIPE] |119|  ; [ORIG 16-BIT INS]
     876                            ; BRANCHCC OCCURS {||$C$L1||}    ; [] |119| 
     877                    ;* --------------------------------------------------------------------------*
     878 00000010 0000F89D          LDRB      A1, [SP, #0]          ; [DPU_3_PIPE] |119|  ; [KEEP 32-BIT INS]
     879 00000014 285A              CMP       A1, #90               ; [DPU_3_PIPE] |119|  ; [ORIG 16-BIT INS]
     880 00000016 DC05              BGT       ||$C$L1||             ; [DPU_3_PIPE] |119|  ; [ORIG 16-BIT INS]
TI ARM Assembler PC v5.2.4 Sat Feb 06 22:51:21 2016

Tools Copyright (c) 1996-2015 Texas Instruments Incorporated
esp8266.asm                                                          PAGE   17

     881                            ; BRANCHCC OCCURS {||$C$L1||}    ; [] |119| 
     882                    ;* --------------------------------------------------------------------------*
     883                            .dwpsn  file "../esp8266.c",line 119,column 36,is_stmt,isa 1
     884 00000018 0000F89D          LDRB      A1, [SP, #0]          ; [DPU_3_PIPE] |119|  ; [KEEP 32-BIT INS]
     885 0000001c 0020F040          ORR       A1, A1, #32           ; [DPU_3_PIPE] |119|  ; [KEEP 32-BIT INS]
     886 00000020 0000F88D          STRB      A1, [SP, #0]          ; [DPU_3_PIPE] |119|  ; [KEEP 32-BIT INS]
     887                    ;* --------------------------------------------------------------------------*
     888 00000024           ||$C$L1||:    
     889                            .dwpsn  file "../esp8266.c",line 120,column 3,is_stmt,isa 1
     890                    ;----------------------------------------------------------------------
     891                    ; 120 | return letter;                                                         
     892                    ;----------------------------------------------------------------------
     893 00000024 0000F89D          LDRB      A1, [SP, #0]          ; [DPU_3_PIPE] |120|  ; [KEEP 32-BIT INS]
     894                            .dwpsn  file "../esp8266.c",line 121,column 1,is_stmt,isa 1
     895 00000028 B002              ADD       SP, SP, #8            ; [DPU_3_PIPE]  ; [ORIG 16-BIT INS]
     896                            .dwcfi  cfa_offset, 0
     897                    $C$DW$51        .dwtag  DW_TAG_TI_branch
     898                            .dwattr $C$DW$51, DW_AT_low_pc(0x00)
     899                            .dwattr $C$DW$51, DW_AT_TI_return
     900 0000002a 4770              BX        LR                    ; [DPU_3_PIPE]  ; [ORIG 16-BIT INS]
     901                            ; BRANCH OCCURS                  ; [] 
     902                            .dwattr $C$DW$48, DW_AT_TI_end_file("../esp8266.c")
     903                            .dwattr $C$DW$48, DW_AT_TI_end_line(0x79)
     904                            .dwattr $C$DW$48, DW_AT_TI_end_column(0x01)
     905                            .dwendentry
     906                            .dwendtag $C$DW$48
     907                    
     908 0000002c                   .sect   ".text"
     909                            .clink
     910                            .thumbfunc SearchStart
     911 0000002c                   .thumb
     912                            .global SearchStart
     913                    
     914                    $C$DW$52        .dwtag  DW_TAG_subprogram, DW_AT_name("SearchStart")
     915                            .dwattr $C$DW$52, DW_AT_low_pc(SearchStart)
     916                            .dwattr $C$DW$52, DW_AT_high_pc(0x00)
     917                            .dwattr $C$DW$52, DW_AT_TI_symbol_name("SearchStart")
     918                            .dwattr $C$DW$52, DW_AT_external
     919                            .dwattr $C$DW$52, DW_AT_TI_begin_file("../esp8266.c")
     920                            .dwattr $C$DW$52, DW_AT_TI_begin_line(0x7e)
     921                            .dwattr $C$DW$52, DW_AT_TI_begin_column(0x06)
     922                            .dwattr $C$DW$52, DW_AT_decl_file("../esp8266.c")
     923                            .dwattr $C$DW$52, DW_AT_decl_line(0x7e)
     924                            .dwattr $C$DW$52, DW_AT_decl_column(0x06)
     925                            .dwattr $C$DW$52, DW_AT_TI_max_frame_size(0x08)
     926                            .dwpsn  file "../esp8266.c",line 126,column 27,is_stmt,address SearchStart,isa 1
     927                    
     928                            .dwfde $C$DW$CIE, SearchStart
     929                    $C$DW$53        .dwtag  DW_TAG_formal_parameter, DW_AT_name("pt")
     930                            .dwattr $C$DW$53, DW_AT_TI_symbol_name("pt")
     931                            .dwattr $C$DW$53, DW_AT_type(*$C$DW$T$35)
     932                            .dwattr $C$DW$53, DW_AT_location[DW_OP_reg0]
     933                    
     934                    ;*****************************************************************************
     935                    ;* FUNCTION NAME: SearchStart                                                *
TI ARM Assembler PC v5.2.4 Sat Feb 06 22:51:21 2016

Tools Copyright (c) 1996-2015 Texas Instruments Incorporated
esp8266.asm                                                          PAGE   18

     936                    ;*                                                                           *
     937                    ;*   Regs Modified     : A1,A2,A3,A4,V9,SP,LR,SR,D0,D0_hi,D1,D1_hi,D2,D2_hi, *
     938                    ;*                           D3,D3_hi,D4,D4_hi,D5,D5_hi,D6,D6_hi,D7,D7_hi,   *
     939                    ;*                           FPEXC,FPSCR                                     *
     940                    ;*   Regs Used         : A1,A2,A3,A4,V9,SP,LR,SR,D0,D0_hi,D1,D1_hi,D2,D2_hi, *
     941                    ;*                           D3,D3_hi,D4,D4_hi,D5,D5_hi,D6,D6_hi,D7,D7_hi,   *
     942                    ;*                           FPEXC,FPSCR                                     *
     943                    ;*   Local Frame Size  : 0 Args + 4 Auto + 4 Save = 8 byte                   *
     944                    ;*****************************************************************************
     945 0000002c           SearchStart:
     946                    ;* --------------------------------------------------------------------------*
     947                            .dwcfi  cfa_offset, 0
     948 0000002c B508              PUSH      {A4, LR}              ; [DPU_3_PIPE]  ; [ORIG 16-BIT INS]
     949                            .dwcfi  cfa_offset, 8
     950                            .dwcfi  save_reg_to_mem, 14, -4
     951                            .dwcfi  save_reg_to_mem, 3, -8
     952                    $C$DW$54        .dwtag  DW_TAG_variable, DW_AT_name("pt")
     953                            .dwattr $C$DW$54, DW_AT_TI_symbol_name("pt")
     954                            .dwattr $C$DW$54, DW_AT_type(*$C$DW$T$35)
     955                            .dwattr $C$DW$54, DW_AT_location[DW_OP_breg13 0]
     956                    ;----------------------------------------------------------------------
     957                    ; 126 | void SearchStart(char *pt){                                            
     958                    ;----------------------------------------------------------------------
     959 0000002e 9000              STR       A1, [SP, #0]          ; [DPU_3_PIPE] |126|  ; [ORIG 16-BIT INS]
     960                            .dwpsn  file "../esp8266.c",line 127,column 3,is_stmt,isa 1
     961                    ;----------------------------------------------------------------------
     962                    ; 127 | strcpy(SearchString,pt);                                               
     963                    ;----------------------------------------------------------------------
     964 00000030 48B3              LDR       A1, $C$CON1           ; [DPU_3_PIPE] |127|  ; [ORIG 16-BIT INS]
     965 00000032 9900              LDR       A2, [SP, #0]          ; [DPU_3_PIPE] |127|  ; [ORIG 16-BIT INS]
     966                    $C$DW$55        .dwtag  DW_TAG_TI_branch
     967                            .dwattr $C$DW$55, DW_AT_low_pc(0x00)
     968                            .dwattr $C$DW$55, DW_AT_name("strcpy")
     969                            .dwattr $C$DW$55, DW_AT_TI_call
     970 00000034 FFFEF7FF!         BL        strcpy                ; [DPU_3_PIPE] |127|  ; [KEEP 32-BIT INS]
     971                            ; CALL OCCURS {strcpy }          ; [] |127| 
     972                            .dwpsn  file "../esp8266.c",line 128,column 3,is_stmt,isa 1
     973                    ;----------------------------------------------------------------------
     974                    ; 128 | SearchIndex = 0;                                                       
     975                    ;----------------------------------------------------------------------
     976 00000038 49BB              LDR       A2, $C$CON2           ; [DPU_3_PIPE] |128|  ; [ORIG 16-BIT INS]
     977 0000003a 2000              MOVS      A1, #0                ; [DPU_3_PIPE] |128|  ; [ORIG 16-BIT INS]
     978 0000003c 6008              STR       A1, [A2, #0]          ; [DPU_3_PIPE] |128|  ; [ORIG 16-BIT INS]
     979                            .dwpsn  file "../esp8266.c",line 129,column 3,is_stmt,isa 1
     980                    ;----------------------------------------------------------------------
     981                    ; 129 | SearchFound = false;                                                   
     982                    ;----------------------------------------------------------------------
     983 0000003e 49BB              LDR       A2, $C$CON3           ; [DPU_3_PIPE] |129|  ; [ORIG 16-BIT INS]
     984 00000040 2000              MOVS      A1, #0                ; [DPU_3_PIPE] |129|  ; [ORIG 16-BIT INS]
     985 00000042 7008              STRB      A1, [A2, #0]          ; [DPU_3_PIPE] |129|  ; [ORIG 16-BIT INS]
     986                            .dwpsn  file "../esp8266.c",line 130,column 3,is_stmt,isa 1
     987                    ;----------------------------------------------------------------------
     988                    ; 130 | SearchLooking = true;                                                  
     989                    ;----------------------------------------------------------------------
     990 00000044 49BA              LDR       A2, $C$CON4           ; [DPU_3_PIPE] |130|  ; [ORIG 16-BIT INS]
TI ARM Assembler PC v5.2.4 Sat Feb 06 22:51:21 2016

Tools Copyright (c) 1996-2015 Texas Instruments Incorporated
esp8266.asm                                                          PAGE   19

     991 00000046 2001              MOVS      A1, #1                ; [DPU_3_PIPE] |130|  ; [ORIG 16-BIT INS]
     992 00000048 7008              STRB      A1, [A2, #0]          ; [DPU_3_PIPE] |130|  ; [ORIG 16-BIT INS]
     993                            .dwpsn  file "../esp8266.c",line 131,column 1,is_stmt,isa 1
     994                    $C$DW$56        .dwtag  DW_TAG_TI_branch
     995                            .dwattr $C$DW$56, DW_AT_low_pc(0x00)
     996                            .dwattr $C$DW$56, DW_AT_TI_return
     997 0000004a BD08              POP       {A4, PC}              ; [DPU_3_PIPE]  ; [ORIG 16-BIT INS]
     998                            .dwcfi  cfa_offset, 0
     999                            ; BRANCH OCCURS                  ; [] 
    1000                            .dwattr $C$DW$52, DW_AT_TI_end_file("../esp8266.c")
    1001                            .dwattr $C$DW$52, DW_AT_TI_end_line(0x83)
    1002                            .dwattr $C$DW$52, DW_AT_TI_end_column(0x01)
    1003                            .dwendentry
    1004                            .dwendtag $C$DW$52
    1005                    
    1006 0000004c                   .sect   ".text"
    1007                            .clink
    1008                            .thumbfunc SearchCheck
    1009 0000004c                   .thumb
    1010                            .global SearchCheck
    1011                    
    1012                    $C$DW$57        .dwtag  DW_TAG_subprogram, DW_AT_name("SearchCheck")
    1013                            .dwattr $C$DW$57, DW_AT_low_pc(SearchCheck)
    1014                            .dwattr $C$DW$57, DW_AT_high_pc(0x00)
    1015                            .dwattr $C$DW$57, DW_AT_TI_symbol_name("SearchCheck")
    1016                            .dwattr $C$DW$57, DW_AT_external
    1017                            .dwattr $C$DW$57, DW_AT_TI_begin_file("../esp8266.c")
    1018                            .dwattr $C$DW$57, DW_AT_TI_begin_line(0x88)
    1019                            .dwattr $C$DW$57, DW_AT_TI_begin_column(0x06)
    1020                            .dwattr $C$DW$57, DW_AT_decl_file("../esp8266.c")
    1021                            .dwattr $C$DW$57, DW_AT_decl_line(0x88)
    1022                            .dwattr $C$DW$57, DW_AT_decl_column(0x06)
    1023                            .dwattr $C$DW$57, DW_AT_TI_max_frame_size(0x08)
    1024                            .dwpsn  file "../esp8266.c",line 136,column 30,is_stmt,address SearchCheck,isa 1
    1025                    
    1026                            .dwfde $C$DW$CIE, SearchCheck
    1027                    $C$DW$58        .dwtag  DW_TAG_formal_parameter, DW_AT_name("letter")
    1028                            .dwattr $C$DW$58, DW_AT_TI_symbol_name("letter")
    1029                            .dwattr $C$DW$58, DW_AT_type(*$C$DW$T$6)
    1030                            .dwattr $C$DW$58, DW_AT_location[DW_OP_reg0]
    1031                    
    1032                    ;*****************************************************************************
    1033                    ;* FUNCTION NAME: SearchCheck                                                *
    1034                    ;*                                                                           *
    1035                    ;*   Regs Modified     : A1,A2,A3,A4,SP,LR,SR,FPEXC,FPSCR                    *
    1036                    ;*   Regs Used         : A1,A2,A3,A4,SP,LR,SR,FPEXC,FPSCR                    *
    1037                    ;*   Local Frame Size  : 0 Args + 4 Auto + 4 Save = 8 byte                   *
    1038                    ;*****************************************************************************
    1039 0000004c           SearchCheck:
    1040                    ;* --------------------------------------------------------------------------*
    1041                            .dwcfi  cfa_offset, 0
    1042 0000004c B508              PUSH      {A4, LR}              ; [DPU_3_PIPE]  ; [ORIG 16-BIT INS]
    1043                            .dwcfi  cfa_offset, 8
    1044                            .dwcfi  save_reg_to_mem, 14, -4
    1045                            .dwcfi  save_reg_to_mem, 3, -8
TI ARM Assembler PC v5.2.4 Sat Feb 06 22:51:21 2016

Tools Copyright (c) 1996-2015 Texas Instruments Incorporated
esp8266.asm                                                          PAGE   20

    1046                    $C$DW$59        .dwtag  DW_TAG_variable, DW_AT_name("letter")
    1047                            .dwattr $C$DW$59, DW_AT_TI_symbol_name("letter")
    1048                            .dwattr $C$DW$59, DW_AT_type(*$C$DW$T$6)
    1049                            .dwattr $C$DW$59, DW_AT_location[DW_OP_breg13 0]
    1050                    ;----------------------------------------------------------------------
    1051                    ; 136 | void SearchCheck(char letter){                                         
    1052                    ;----------------------------------------------------------------------
    1053 0000004e 0000F88D          STRB      A1, [SP, #0]          ; [DPU_3_PIPE] |136|  ; [KEEP 32-BIT INS]
    1054                            .dwpsn  file "../esp8266.c",line 137,column 3,is_stmt,isa 1
    1055                    ;----------------------------------------------------------------------
    1056                    ; 137 | if(SearchLooking){                                                     
    1057                    ;----------------------------------------------------------------------
    1058 00000052 48B7              LDR       A1, $C$CON4           ; [DPU_3_PIPE] |137|  ; [ORIG 16-BIT INS]
    1059 00000054 7800              LDRB      A1, [A1, #0]          ; [DPU_3_PIPE] |137|  ; [ORIG 16-BIT INS]
    1060 00000056 B1E0              CBZ       A1, ||$C$L3||         ; []  ; [ORIG 16-BIT INS]
    1061                            ; BRANCHCC OCCURS {||$C$L3||}    ; [] |137| 
    1062                    ;* --------------------------------------------------------------------------*
    1063                            .dwpsn  file "../esp8266.c",line 138,column 5,is_stmt,isa 1
    1064                    ;----------------------------------------------------------------------
    1065                    ; 138 | if(SearchString[SearchIndex] == lc(letter)){ // match letter?          
    1066                    ;----------------------------------------------------------------------
    1067 00000058 0000F89D          LDRB      A1, [SP, #0]          ; [DPU_3_PIPE] |138|  ; [KEEP 32-BIT INS]
    1068                    $C$DW$60        .dwtag  DW_TAG_TI_branch
    1069                            .dwattr $C$DW$60, DW_AT_low_pc(0x00)
    1070                            .dwattr $C$DW$60, DW_AT_name("lc")
    1071                            .dwattr $C$DW$60, DW_AT_TI_call
    1072 0000005c FFD0F7FF          BL        lc                    ; [DPU_3_PIPE] |138|  ; [KEEP 32-BIT INS]
    1073                            ; CALL OCCURS {lc }              ; [] |138| 
    1074 00000060 49B1              LDR       A2, $C$CON2           ; [DPU_3_PIPE] |138|  ; [ORIG 16-BIT INS]
    1075 00000062 4AA7              LDR       A3, $C$CON1           ; [DPU_3_PIPE] |138|  ; [ORIG 16-BIT INS]
    1076 00000064 6809              LDR       A2, [A2, #0]          ; [DPU_3_PIPE] |138|  ; [ORIG 16-BIT INS]
    1077 00000066 5C51              LDRB      A2, [A3, +A2]         ; [DPU_3_PIPE] |138|  ; [ORIG 16-BIT INS]
    1078 00000068 4288              CMP       A1, A2                ; [DPU_3_PIPE] |138|  ; [ORIG 16-BIT INS]
    1079 0000006a D10F              BNE       ||$C$L2||             ; [DPU_3_PIPE] |138|  ; [ORIG 16-BIT INS]
    1080                            ; BRANCHCC OCCURS {||$C$L2||}    ; [] |138| 
    1081                    ;* --------------------------------------------------------------------------*
    1082                            .dwpsn  file "../esp8266.c",line 139,column 7,is_stmt,isa 1
    1083                    ;----------------------------------------------------------------------
    1084                    ; 139 | SearchIndex++;                                                         
    1085                    ;----------------------------------------------------------------------
    1086 0000006c 49AE              LDR       A2, $C$CON2           ; [DPU_3_PIPE] |139|  ; [ORIG 16-BIT INS]
    1087 0000006e 6808              LDR       A1, [A2, #0]          ; [DPU_3_PIPE] |139|  ; [ORIG 16-BIT INS]
    1088 00000070 1C40              ADDS      A1, A1, #1            ; [DPU_3_PIPE] |139|  ; [ORIG 16-BIT INS]
    1089 00000072 6008              STR       A1, [A2, #0]          ; [DPU_3_PIPE] |139|  ; [ORIG 16-BIT INS]
    1090                            .dwpsn  file "../esp8266.c",line 140,column 7,is_stmt,isa 1
    1091                    ;----------------------------------------------------------------------
    1092                    ; 140 | if(SearchString[SearchIndex] == 0){ // match string?                   
    1093                    ;----------------------------------------------------------------------
    1094 00000074 48AC              LDR       A1, $C$CON2           ; [DPU_3_PIPE] |140|  ; [ORIG 16-BIT INS]
    1095 00000076 49A2              LDR       A2, $C$CON1           ; [DPU_3_PIPE] |140|  ; [ORIG 16-BIT INS]
    1096 00000078 6800              LDR       A1, [A1, #0]          ; [DPU_3_PIPE] |140|  ; [ORIG 16-BIT INS]
    1097 0000007a 5C08              LDRB      A1, [A2, +A1]         ; [DPU_3_PIPE] |140|  ; [ORIG 16-BIT INS]
    1098 0000007c B948              CBNZ      A1, ||$C$L3||         ; []  ; [ORIG 16-BIT INS]
    1099                            ; BRANCHCC OCCURS {||$C$L3||}    ; [] |140| 
    1100                    ;* --------------------------------------------------------------------------*
TI ARM Assembler PC v5.2.4 Sat Feb 06 22:51:21 2016

Tools Copyright (c) 1996-2015 Texas Instruments Incorporated
esp8266.asm                                                          PAGE   21

    1101                            .dwpsn  file "../esp8266.c",line 141,column 9,is_stmt,isa 1
    1102                    ;----------------------------------------------------------------------
    1103                    ; 141 | SearchFound = true;                                                    
    1104                    ;----------------------------------------------------------------------
    1105 0000007e 49AB              LDR       A2, $C$CON3           ; [DPU_3_PIPE] |141|  ; [ORIG 16-BIT INS]
    1106 00000080 2001              MOVS      A1, #1                ; [DPU_3_PIPE] |141|  ; [ORIG 16-BIT INS]
    1107 00000082 7008              STRB      A1, [A2, #0]          ; [DPU_3_PIPE] |141|  ; [ORIG 16-BIT INS]
    1108                            .dwpsn  file "../esp8266.c",line 142,column 9,is_stmt,isa 1
    1109                    ;----------------------------------------------------------------------
    1110                    ; 142 | SearchLooking = false;                                                 
    1111                    ;----------------------------------------------------------------------
    1112 00000084 49AA              LDR       A2, $C$CON4           ; [DPU_3_PIPE] |142|  ; [ORIG 16-BIT INS]
    1113 00000086 2000              MOVS      A1, #0                ; [DPU_3_PIPE] |142|  ; [ORIG 16-BIT INS]
    1114 00000088 7008              STRB      A1, [A2, #0]          ; [DPU_3_PIPE] |142|  ; [ORIG 16-BIT INS]
    1115                            .dwpsn  file "../esp8266.c",line 144,column 5,is_stmt,isa 1
    1116                    ;----------------------------------------------------------------------
    1117                    ; 144 | }else{                                                                 
    1118                    ;----------------------------------------------------------------------
    1119 0000008a E002              B         ||$C$L3||             ; [DPU_3_PIPE] |144|  ; [ORIG 16-BIT INS]
    1120                            ; BRANCH OCCURS {||$C$L3||}      ; [] |144| 
    1121                    ;* --------------------------------------------------------------------------*
    1122 0000008c           ||$C$L2||:    
    1123                            .dwpsn  file "../esp8266.c",line 145,column 7,is_stmt,isa 1
    1124                    ;----------------------------------------------------------------------
    1125                    ; 145 | SearchIndex = 0; // start over                                         
    1126                    ;----------------------------------------------------------------------
    1127 0000008c 49A6              LDR       A2, $C$CON2           ; [DPU_3_PIPE] |145|  ; [ORIG 16-BIT INS]
    1128 0000008e 2000              MOVS      A1, #0                ; [DPU_3_PIPE] |145|  ; [ORIG 16-BIT INS]
    1129 00000090 6008              STR       A1, [A2, #0]          ; [DPU_3_PIPE] |145|  ; [ORIG 16-BIT INS]
    1130                            .dwpsn  file "../esp8266.c",line 148,column 1,is_stmt,isa 1
    1131                    ;* --------------------------------------------------------------------------*
    1132                    ||$C$L3||:    
    1133                    $C$DW$61        .dwtag  DW_TAG_TI_branch
    1134                            .dwattr $C$DW$61, DW_AT_low_pc(0x00)
    1135                            .dwattr $C$DW$61, DW_AT_TI_return
    1136 00000092 BD08              POP       {A4, PC}              ; [DPU_3_PIPE]  ; [ORIG 16-BIT INS]
    1137                            .dwcfi  cfa_offset, 0
    1138                            ; BRANCH OCCURS                  ; [] 
    1139                            .dwattr $C$DW$57, DW_AT_TI_end_file("../esp8266.c")
    1140                            .dwattr $C$DW$57, DW_AT_TI_end_line(0x94)
    1141                            .dwattr $C$DW$57, DW_AT_TI_end_column(0x01)
    1142                            .dwendentry
    1143                            .dwendtag $C$DW$57
    1144                    
    1145 00000094                   .sect   ".text"
    1146                            .clink
    1147                            .thumbfunc ServerResponseSearchStart
    1148 00000094                   .thumb
    1149                            .global ServerResponseSearchStart
    1150                    
    1151                    $C$DW$62        .dwtag  DW_TAG_subprogram, DW_AT_name("ServerResponseSearchStart")
    1152                            .dwattr $C$DW$62, DW_AT_low_pc(ServerResponseSearchStart)
    1153                            .dwattr $C$DW$62, DW_AT_high_pc(0x00)
    1154                            .dwattr $C$DW$62, DW_AT_TI_symbol_name("ServerResponseSearchStart")
    1155                            .dwattr $C$DW$62, DW_AT_external
TI ARM Assembler PC v5.2.4 Sat Feb 06 22:51:21 2016

Tools Copyright (c) 1996-2015 Texas Instruments Incorporated
esp8266.asm                                                          PAGE   22

    1156                            .dwattr $C$DW$62, DW_AT_TI_begin_file("../esp8266.c")
    1157                            .dwattr $C$DW$62, DW_AT_TI_begin_line(0x9f)
    1158                            .dwattr $C$DW$62, DW_AT_TI_begin_column(0x06)
    1159                            .dwattr $C$DW$62, DW_AT_decl_file("../esp8266.c")
    1160                            .dwattr $C$DW$62, DW_AT_decl_line(0x9f)
    1161                            .dwattr $C$DW$62, DW_AT_decl_column(0x06)
    1162                            .dwattr $C$DW$62, DW_AT_TI_max_frame_size(0x08)
    1163                            .dwpsn  file "../esp8266.c",line 159,column 37,is_stmt,address ServerResponseSearchStart,isa 1
    1164                    
    1165                            .dwfde $C$DW$CIE, ServerResponseSearchStart
    1166                    ;----------------------------------------------------------------------
    1167                    ; 159 | void ServerResponseSearchStart(void){                                  
    1168                    ;----------------------------------------------------------------------
    1169                    
    1170                    ;*****************************************************************************
    1171                    ;* FUNCTION NAME: ServerResponseSearchStart                                  *
    1172                    ;*                                                                           *
    1173                    ;*   Regs Modified     : A1,A2,A3,A4,V9,SP,LR,SR,D0,D0_hi,D1,D1_hi,D2,D2_hi, *
    1174                    ;*                           D3,D3_hi,D4,D4_hi,D5,D5_hi,D6,D6_hi,D7,D7_hi,   *
    1175                    ;*                           FPEXC,FPSCR                                     *
    1176                    ;*   Regs Used         : A1,A2,A3,A4,V9,SP,LR,SR,D0,D0_hi,D1,D1_hi,D2,D2_hi, *
    1177                    ;*                           D3,D3_hi,D4,D4_hi,D5,D5_hi,D6,D6_hi,D7,D7_hi,   *
    1178                    ;*                           FPEXC,FPSCR                                     *
    1179                    ;*   Local Frame Size  : 0 Args + 0 Auto + 4 Save = 4 byte                   *
    1180                    ;*****************************************************************************
    1181 00000094           ServerResponseSearchStart:
    1182                    ;* --------------------------------------------------------------------------*
    1183                            .dwcfi  cfa_offset, 0
    1184 00000094 B508              PUSH      {A4, LR}              ; [DPU_3_PIPE]  ; [ORIG 16-BIT INS]
    1185                            .dwcfi  cfa_offset, 8
    1186                            .dwcfi  save_reg_to_mem, 14, -4
    1187                            .dwcfi  save_reg_to_mem, 3, -8
    1188                            .dwpsn  file "../esp8266.c",line 160,column 3,is_stmt,isa 1
    1189                    ;----------------------------------------------------------------------
    1190                    ; 160 | strcpy(ServerResponseSearchString,"+ipd,");                            
    1191                    ;----------------------------------------------------------------------
    1192 00000096 48B5              LDR       A1, $C$CON5           ; [DPU_3_PIPE] |160|  ; [ORIG 16-BIT INS]
    1193 00000098 A1B2              ADR       A2, $C$SL1            ; [DPU_3_PIPE] |160|  ; [ORIG 16-BIT INS]
    1194                    $C$DW$63        .dwtag  DW_TAG_TI_branch
    1195                            .dwattr $C$DW$63, DW_AT_low_pc(0x00)
    1196                            .dwattr $C$DW$63, DW_AT_name("strcpy")
    1197                            .dwattr $C$DW$63, DW_AT_TI_call
    1198 0000009a FFFEF7FF!         BL        strcpy                ; [DPU_3_PIPE] |160|  ; [KEEP 32-BIT INS]
    1199                            ; CALL OCCURS {strcpy }          ; [] |160| 
    1200                            .dwpsn  file "../esp8266.c",line 161,column 3,is_stmt,isa 1
    1201                    ;----------------------------------------------------------------------
    1202                    ; 161 | ServerResponseSearchIndex = 0;                                         
    1203                    ;----------------------------------------------------------------------
    1204 0000009e 49B4              LDR       A2, $C$CON6           ; [DPU_3_PIPE] |161|  ; [ORIG 16-BIT INS]
    1205 000000a0 2000              MOVS      A1, #0                ; [DPU_3_PIPE] |161|  ; [ORIG 16-BIT INS]
    1206 000000a2 6008              STR       A1, [A2, #0]          ; [DPU_3_PIPE] |161|  ; [ORIG 16-BIT INS]
    1207                            .dwpsn  file "../esp8266.c",line 162,column 3,is_stmt,isa 1
    1208                    ;----------------------------------------------------------------------
    1209                    ; 162 | ServerResponseSearchLooking = 1; // means look for "+IPD"              
    1210                    ;----------------------------------------------------------------------
TI ARM Assembler PC v5.2.4 Sat Feb 06 22:51:21 2016

Tools Copyright (c) 1996-2015 Texas Instruments Incorporated
esp8266.asm                                                          PAGE   23

    1211 000000a4 49B3              LDR       A2, $C$CON7           ; [DPU_3_PIPE] |162|  ; [ORIG 16-BIT INS]
    1212 000000a6 2001              MOVS      A1, #1                ; [DPU_3_PIPE] |162|  ; [ORIG 16-BIT INS]
    1213 000000a8 6008              STR       A1, [A2, #0]          ; [DPU_3_PIPE] |162|  ; [ORIG 16-BIT INS]
    1214                            .dwpsn  file "../esp8266.c",line 163,column 3,is_stmt,isa 1
    1215                    ;----------------------------------------------------------------------
    1216                    ; 163 | ServerResponseSearchFinished = 0;                                      
    1217                    ;----------------------------------------------------------------------
    1218 000000aa 49B3              LDR       A2, $C$CON8           ; [DPU_3_PIPE] |163|  ; [ORIG 16-BIT INS]
    1219 000000ac 2000              MOVS      A1, #0                ; [DPU_3_PIPE] |163|  ; [ORIG 16-BIT INS]
    1220 000000ae 6008              STR       A1, [A2, #0]          ; [DPU_3_PIPE] |163|  ; [ORIG 16-BIT INS]
    1221                            .dwpsn  file "../esp8266.c",line 164,column 3,is_stmt,isa 1
    1222                    ;----------------------------------------------------------------------
    1223                    ; 164 | ServerResponseIndex = 0;                                               
    1224                    ;----------------------------------------------------------------------
    1225 000000b0 49B2              LDR       A2, $C$CON9           ; [DPU_3_PIPE] |164|  ; [ORIG 16-BIT INS]
    1226 000000b2 2000              MOVS      A1, #0                ; [DPU_3_PIPE] |164|  ; [ORIG 16-BIT INS]
    1227 000000b4 6008              STR       A1, [A2, #0]          ; [DPU_3_PIPE] |164|  ; [ORIG 16-BIT INS]
    1228                            .dwpsn  file "../esp8266.c",line 165,column 1,is_stmt,isa 1
    1229                    $C$DW$64        .dwtag  DW_TAG_TI_branch
    1230                            .dwattr $C$DW$64, DW_AT_low_pc(0x00)
    1231                            .dwattr $C$DW$64, DW_AT_TI_return
    1232 000000b6 BD08              POP       {A4, PC}              ; [DPU_3_PIPE]  ; [ORIG 16-BIT INS]
    1233                            .dwcfi  cfa_offset, 0
    1234                            ; BRANCH OCCURS                  ; [] 
    1235                            .dwattr $C$DW$62, DW_AT_TI_end_file("../esp8266.c")
    1236                            .dwattr $C$DW$62, DW_AT_TI_end_line(0xa5)
    1237                            .dwattr $C$DW$62, DW_AT_TI_end_column(0x01)
    1238                            .dwendentry
    1239                            .dwendtag $C$DW$62
    1240                    
    1241 000000b8                   .sect   ".text"
    1242                            .clink
    1243                            .thumbfunc ServerResponseSearchCheck
    1244 000000b8                   .thumb
    1245                            .global ServerResponseSearchCheck
    1246                    
    1247                    $C$DW$65        .dwtag  DW_TAG_subprogram, DW_AT_name("ServerResponseSearchCheck")
    1248                            .dwattr $C$DW$65, DW_AT_low_pc(ServerResponseSearchCheck)
    1249                            .dwattr $C$DW$65, DW_AT_high_pc(0x00)
    1250                            .dwattr $C$DW$65, DW_AT_TI_symbol_name("ServerResponseSearchCheck")
    1251                            .dwattr $C$DW$65, DW_AT_external
    1252                            .dwattr $C$DW$65, DW_AT_TI_begin_file("../esp8266.c")
    1253                            .dwattr $C$DW$65, DW_AT_TI_begin_line(0xab)
    1254                            .dwattr $C$DW$65, DW_AT_TI_begin_column(0x06)
    1255                            .dwattr $C$DW$65, DW_AT_decl_file("../esp8266.c")
    1256                            .dwattr $C$DW$65, DW_AT_decl_line(0xab)
    1257                            .dwattr $C$DW$65, DW_AT_decl_column(0x06)
    1258                            .dwattr $C$DW$65, DW_AT_TI_max_frame_size(0x08)
    1259                            .dwpsn  file "../esp8266.c",line 171,column 44,is_stmt,address ServerResponseSearchCheck,isa 1
    1260                    
    1261                            .dwfde $C$DW$CIE, ServerResponseSearchCheck
    1262                    $C$DW$66        .dwtag  DW_TAG_formal_parameter, DW_AT_name("letter")
    1263                            .dwattr $C$DW$66, DW_AT_TI_symbol_name("letter")
    1264                            .dwattr $C$DW$66, DW_AT_type(*$C$DW$T$6)
    1265                            .dwattr $C$DW$66, DW_AT_location[DW_OP_reg0]
TI ARM Assembler PC v5.2.4 Sat Feb 06 22:51:21 2016

Tools Copyright (c) 1996-2015 Texas Instruments Incorporated
esp8266.asm                                                          PAGE   24

    1266                    
    1267                    ;*****************************************************************************
    1268                    ;* FUNCTION NAME: ServerResponseSearchCheck                                  *
    1269                    ;*                                                                           *
    1270                    ;*   Regs Modified     : A1,A2,A3,A4,V9,SP,LR,SR,D0,D0_hi,D1,D1_hi,D2,D2_hi, *
    1271                    ;*                           D3,D3_hi,D4,D4_hi,D5,D5_hi,D6,D6_hi,D7,D7_hi,   *
    1272                    ;*                           FPEXC,FPSCR                                     *
    1273                    ;*   Regs Used         : A1,A2,A3,A4,V9,SP,LR,SR,D0,D0_hi,D1,D1_hi,D2,D2_hi, *
    1274                    ;*                           D3,D3_hi,D4,D4_hi,D5,D5_hi,D6,D6_hi,D7,D7_hi,   *
    1275                    ;*                           FPEXC,FPSCR                                     *
    1276                    ;*   Local Frame Size  : 0 Args + 4 Auto + 4 Save = 8 byte                   *
    1277                    ;*****************************************************************************
    1278 000000b8           ServerResponseSearchCheck:
    1279                    ;* --------------------------------------------------------------------------*
    1280                            .dwcfi  cfa_offset, 0
    1281 000000b8 B508              PUSH      {A4, LR}              ; [DPU_3_PIPE]  ; [ORIG 16-BIT INS]
    1282                            .dwcfi  cfa_offset, 8
    1283                            .dwcfi  save_reg_to_mem, 14, -4
    1284                            .dwcfi  save_reg_to_mem, 3, -8
    1285                    $C$DW$67        .dwtag  DW_TAG_variable, DW_AT_name("letter")
    1286                            .dwattr $C$DW$67, DW_AT_TI_symbol_name("letter")
    1287                            .dwattr $C$DW$67, DW_AT_type(*$C$DW$T$6)
    1288                            .dwattr $C$DW$67, DW_AT_location[DW_OP_breg13 0]
    1289                    ;----------------------------------------------------------------------
    1290                    ; 171 | void ServerResponseSearchCheck(char letter){                           
    1291                    ;----------------------------------------------------------------------
    1292 000000ba 0000F88D          STRB      A1, [SP, #0]          ; [DPU_3_PIPE] |171|  ; [KEEP 32-BIT INS]
    1293                            .dwpsn  file "../esp8266.c",line 172,column 3,is_stmt,isa 1
    1294                    ;----------------------------------------------------------------------
    1295                    ; 172 | if(ServerResponseSearchLooking==1){                                    
    1296                    ;----------------------------------------------------------------------
    1297 000000be 48AD              LDR       A1, $C$CON7           ; [DPU_3_PIPE] |172|  ; [ORIG 16-BIT INS]
    1298 000000c0 6800              LDR       A1, [A1, #0]          ; [DPU_3_PIPE] |172|  ; [ORIG 16-BIT INS]
    1299 000000c2 2801              CMP       A1, #1                ; [DPU_3_PIPE] |172|  ; [ORIG 16-BIT INS]
    1300 000000c4 D122              BNE       ||$C$L5||             ; [DPU_3_PIPE] |172|  ; [ORIG 16-BIT INS]
    1301                            ; BRANCHCC OCCURS {||$C$L5||}    ; [] |172| 
    1302                    ;* --------------------------------------------------------------------------*
    1303                            .dwpsn  file "../esp8266.c",line 173,column 5,is_stmt,isa 1
    1304                    ;----------------------------------------------------------------------
    1305                    ; 173 | if(ServerResponseSearchString[ServerResponseSearchIndex] == lc(letter))
    1306                    ;     | { // match letter?                                                     
    1307                    ;----------------------------------------------------------------------
    1308 000000c6 0000F89D          LDRB      A1, [SP, #0]          ; [DPU_3_PIPE] |173|  ; [KEEP 32-BIT INS]
    1309                    $C$DW$68        .dwtag  DW_TAG_TI_branch
    1310                            .dwattr $C$DW$68, DW_AT_low_pc(0x00)
    1311                            .dwattr $C$DW$68, DW_AT_name("lc")
    1312                            .dwattr $C$DW$68, DW_AT_TI_call
    1313 000000ca FF99F7FF          BL        lc                    ; [DPU_3_PIPE] |173|  ; [KEEP 32-BIT INS]
    1314                            ; CALL OCCURS {lc }              ; [] |173| 
    1315 000000ce 49A8              LDR       A2, $C$CON6           ; [DPU_3_PIPE] |173|  ; [ORIG 16-BIT INS]
    1316 000000d0 4AA6              LDR       A3, $C$CON5           ; [DPU_3_PIPE] |173|  ; [ORIG 16-BIT INS]
    1317 000000d2 6809              LDR       A2, [A2, #0]          ; [DPU_3_PIPE] |173|  ; [ORIG 16-BIT INS]
    1318 000000d4 5C51              LDRB      A2, [A3, +A2]         ; [DPU_3_PIPE] |173|  ; [ORIG 16-BIT INS]
    1319 000000d6 4288              CMP       A1, A2                ; [DPU_3_PIPE] |173|  ; [ORIG 16-BIT INS]
    1320 000000d8 D114              BNE       ||$C$L4||             ; [DPU_3_PIPE] |173|  ; [ORIG 16-BIT INS]
TI ARM Assembler PC v5.2.4 Sat Feb 06 22:51:21 2016

Tools Copyright (c) 1996-2015 Texas Instruments Incorporated
esp8266.asm                                                          PAGE   25

    1321                            ; BRANCHCC OCCURS {||$C$L4||}    ; [] |173| 
    1322                    ;* --------------------------------------------------------------------------*
    1323                            .dwpsn  file "../esp8266.c",line 174,column 7,is_stmt,isa 1
    1324                    ;----------------------------------------------------------------------
    1325                    ; 174 | ServerResponseSearchIndex++;                                           
    1326                    ;----------------------------------------------------------------------
    1327 000000da 49A5              LDR       A2, $C$CON6           ; [DPU_3_PIPE] |174|  ; [ORIG 16-BIT INS]
    1328 000000dc 6808              LDR       A1, [A2, #0]          ; [DPU_3_PIPE] |174|  ; [ORIG 16-BIT INS]
    1329 000000de 1C40              ADDS      A1, A1, #1            ; [DPU_3_PIPE] |174|  ; [ORIG 16-BIT INS]
    1330 000000e0 6008              STR       A1, [A2, #0]          ; [DPU_3_PIPE] |174|  ; [ORIG 16-BIT INS]
    1331                            .dwpsn  file "../esp8266.c",line 175,column 7,is_stmt,isa 1
    1332                    ;----------------------------------------------------------------------
    1333                    ; 175 | if(ServerResponseSearchString[ServerResponseSearchIndex] == 0){ // matc
    1334                    ;     | h string?                                                              
    1335                    ;----------------------------------------------------------------------
    1336 000000e2 48A3              LDR       A1, $C$CON6           ; [DPU_3_PIPE] |175|  ; [ORIG 16-BIT INS]
    1337 000000e4 49A1              LDR       A2, $C$CON5           ; [DPU_3_PIPE] |175|  ; [ORIG 16-BIT INS]
    1338 000000e6 6800              LDR       A1, [A1, #0]          ; [DPU_3_PIPE] |175|  ; [ORIG 16-BIT INS]
    1339 000000e8 5C08              LDRB      A1, [A2, +A1]         ; [DPU_3_PIPE] |175|  ; [ORIG 16-BIT INS]
    1340 000000ea 2800              CMP       A1, #0                ; [DPU_3_PIPE] |175|  ; [ORIG 16-BIT INS]
    1341 000000ec D13F              BNE       ||$C$L8||             ; [DPU_3_PIPE] |175|  ; [ORIG 16-BIT INS]
    1342                            ; BRANCHCC OCCURS {||$C$L8||}    ; [] |175| 
    1343                    ;* --------------------------------------------------------------------------*
    1344                            .dwpsn  file "../esp8266.c",line 176,column 9,is_stmt,isa 1
    1345                    ;----------------------------------------------------------------------
    1346                    ; 176 | ServerResponseSearchLooking = 2;                                       
    1347                    ;----------------------------------------------------------------------
    1348 000000ee 49A1              LDR       A2, $C$CON7           ; [DPU_3_PIPE] |176|  ; [ORIG 16-BIT INS]
    1349 000000f0 2002              MOVS      A1, #2                ; [DPU_3_PIPE] |176|  ; [ORIG 16-BIT INS]
    1350 000000f2 6008              STR       A1, [A2, #0]          ; [DPU_3_PIPE] |176|  ; [ORIG 16-BIT INS]
    1351                            .dwpsn  file "../esp8266.c",line 177,column 9,is_stmt,isa 1
    1352                    ;----------------------------------------------------------------------
    1353                    ; 177 | strcpy(ServerResponseSearchString,"\r\nok\r\n");                       
    1354                    ;----------------------------------------------------------------------
    1355 000000f4 489D              LDR       A1, $C$CON5           ; [DPU_3_PIPE] |177|  ; [ORIG 16-BIT INS]
    1356 000000f6 A1B0              ADR       A2, $C$SL2            ; [DPU_3_PIPE] |177|  ; [ORIG 16-BIT INS]
    1357                    $C$DW$69        .dwtag  DW_TAG_TI_branch
    1358                            .dwattr $C$DW$69, DW_AT_low_pc(0x00)
    1359                            .dwattr $C$DW$69, DW_AT_name("strcpy")
    1360                            .dwattr $C$DW$69, DW_AT_TI_call
    1361 000000f8 FFFEF7FF!         BL        strcpy                ; [DPU_3_PIPE] |177|  ; [KEEP 32-BIT INS]
    1362                            ; CALL OCCURS {strcpy }          ; [] |177| 
    1363                            .dwpsn  file "../esp8266.c",line 178,column 9,is_stmt,isa 1
    1364                    ;----------------------------------------------------------------------
    1365                    ; 178 | ServerResponseSearchIndex = 0;                                         
    1366                    ;----------------------------------------------------------------------
    1367 000000fc 499C              LDR       A2, $C$CON6           ; [DPU_3_PIPE] |178|  ; [ORIG 16-BIT INS]
    1368 000000fe 2000              MOVS      A1, #0                ; [DPU_3_PIPE] |178|  ; [ORIG 16-BIT INS]
    1369 00000100 6008              STR       A1, [A2, #0]          ; [DPU_3_PIPE] |178|  ; [ORIG 16-BIT INS]
    1370                            .dwpsn  file "../esp8266.c",line 180,column 5,is_stmt,isa 1
    1371                    ;----------------------------------------------------------------------
    1372                    ; 180 | }else{                                                                 
    1373                    ;----------------------------------------------------------------------
    1374 00000102 E034              B         ||$C$L8||             ; [DPU_3_PIPE] |180|  ; [ORIG 16-BIT INS]
    1375                            ; BRANCH OCCURS {||$C$L8||}      ; [] |180| 
TI ARM Assembler PC v5.2.4 Sat Feb 06 22:51:21 2016

Tools Copyright (c) 1996-2015 Texas Instruments Incorporated
esp8266.asm                                                          PAGE   26

    1376                    ;* --------------------------------------------------------------------------*
    1377 00000104           ||$C$L4||:    
    1378                            .dwpsn  file "../esp8266.c",line 181,column 7,is_stmt,isa 1
    1379                    ;----------------------------------------------------------------------
    1380                    ; 181 | ServerResponseSearchIndex = 0; // start over                           
    1381                    ;----------------------------------------------------------------------
    1382 00000104 499A              LDR       A2, $C$CON6           ; [DPU_3_PIPE] |181|  ; [ORIG 16-BIT INS]
    1383 00000106 2000              MOVS      A1, #0                ; [DPU_3_PIPE] |181|  ; [ORIG 16-BIT INS]
    1384 00000108 6008              STR       A1, [A2, #0]          ; [DPU_3_PIPE] |181|  ; [ORIG 16-BIT INS]
    1385                            .dwpsn  file "../esp8266.c",line 183,column 3,is_stmt,isa 1
    1386                    ;----------------------------------------------------------------------
    1387                    ; 183 | }else if(ServerResponseSearchLooking==2){                              
    1388                    ;----------------------------------------------------------------------
    1389 0000010a E030              B         ||$C$L8||             ; [DPU_3_PIPE] |183|  ; [ORIG 16-BIT INS]
    1390                            ; BRANCH OCCURS {||$C$L8||}      ; [] |183| 
    1391                    ;* --------------------------------------------------------------------------*
    1392 0000010c           ||$C$L5||:    
    1393                            .dwpsn  file "../esp8266.c",line 183,column 9,is_stmt,isa 1
    1394 0000010c 4899              LDR       A1, $C$CON7           ; [DPU_3_PIPE] |183|  ; [ORIG 16-BIT INS]
    1395 0000010e 6800              LDR       A1, [A1, #0]          ; [DPU_3_PIPE] |183|  ; [ORIG 16-BIT INS]
    1396 00000110 2802              CMP       A1, #2                ; [DPU_3_PIPE] |183|  ; [ORIG 16-BIT INS]
    1397 00000112 D12C              BNE       ||$C$L8||             ; [DPU_3_PIPE] |183|  ; [ORIG 16-BIT INS]
    1398                            ; BRANCHCC OCCURS {||$C$L8||}    ; [] |183| 
    1399                    ;* --------------------------------------------------------------------------*
    1400                            .dwpsn  file "../esp8266.c",line 184,column 5,is_stmt,isa 1
    1401                    ;----------------------------------------------------------------------
    1402                    ; 184 | if(ServerResponseIndex < SERVER_RESPONSE_SIZE){                        
    1403                    ;----------------------------------------------------------------------
    1404 00000114 4899              LDR       A1, $C$CON9           ; [DPU_3_PIPE] |184|  ; [ORIG 16-BIT INS]
    1405 00000116 6800              LDR       A1, [A1, #0]          ; [DPU_3_PIPE] |184|  ; [ORIG 16-BIT INS]
    1406 00000118 0A80              LSRS      A1, A1, #10           ; [DPU_3_PIPE] |184|  ; [ORIG 16-BIT INS]
    1407 0000011a D10B              BNE       ||$C$L6||             ; [DPU_3_PIPE] |184|  ; [ORIG 16-BIT INS]
    1408                            ; BRANCHCC OCCURS {||$C$L6||}    ; [] |184| 
    1409                    ;* --------------------------------------------------------------------------*
    1410                            .dwpsn  file "../esp8266.c",line 185,column 7,is_stmt,isa 1
    1411                    ;----------------------------------------------------------------------
    1412                    ; 185 | ServerResponseBuffer[ServerResponseIndex] = lc(letter); // copy data fr
    1413                    ;     | om "+IPD," to "OK"                                                     
    1414                    ;----------------------------------------------------------------------
    1415 0000011c 0000F89D          LDRB      A1, [SP, #0]          ; [DPU_3_PIPE] |185|  ; [KEEP 32-BIT INS]
    1416                    $C$DW$70        .dwtag  DW_TAG_TI_branch
    1417                            .dwattr $C$DW$70, DW_AT_low_pc(0x00)
    1418                            .dwattr $C$DW$70, DW_AT_name("lc")
    1419                            .dwattr $C$DW$70, DW_AT_TI_call
    1420 00000120 FF6EF7FF          BL        lc                    ; [DPU_3_PIPE] |185|  ; [KEEP 32-BIT INS]
    1421                            ; CALL OCCURS {lc }              ; [] |185| 
    1422 00000124 4995              LDR       A2, $C$CON9           ; [DPU_3_PIPE] |185|  ; [ORIG 16-BIT INS]
    1423 00000126 4AA6              LDR       A3, $C$CON10          ; [DPU_3_PIPE] |185|  ; [ORIG 16-BIT INS]
    1424 00000128 6809              LDR       A2, [A2, #0]          ; [DPU_3_PIPE] |185|  ; [ORIG 16-BIT INS]
    1425 0000012a 5450              STRB      A1, [A3, +A2]         ; [DPU_3_PIPE] |185|  ; [ORIG 16-BIT INS]
    1426                            .dwpsn  file "../esp8266.c",line 186,column 7,is_stmt,isa 1
    1427                    ;----------------------------------------------------------------------
    1428                    ; 186 | ServerResponseIndex++;                                                 
    1429                    ;----------------------------------------------------------------------
    1430 0000012c 4993              LDR       A2, $C$CON9           ; [DPU_3_PIPE] |186|  ; [ORIG 16-BIT INS]
TI ARM Assembler PC v5.2.4 Sat Feb 06 22:51:21 2016

Tools Copyright (c) 1996-2015 Texas Instruments Incorporated
esp8266.asm                                                          PAGE   27

    1431 0000012e 6808              LDR       A1, [A2, #0]          ; [DPU_3_PIPE] |186|  ; [ORIG 16-BIT INS]
    1432 00000130 1C40              ADDS      A1, A1, #1            ; [DPU_3_PIPE] |186|  ; [ORIG 16-BIT INS]
    1433 00000132 6008              STR       A1, [A2, #0]          ; [DPU_3_PIPE] |186|  ; [ORIG 16-BIT INS]
    1434                    ;* --------------------------------------------------------------------------*
    1435 00000134           ||$C$L6||:    
    1436                            .dwpsn  file "../esp8266.c",line 188,column 5,is_stmt,isa 1
    1437                    ;----------------------------------------------------------------------
    1438                    ; 188 | if(ServerResponseSearchString[ServerResponseSearchIndex] == lc(letter))
    1439                    ;     | { // match letter?                                                     
    1440                    ;----------------------------------------------------------------------
    1441 00000134 0000F89D          LDRB      A1, [SP, #0]          ; [DPU_3_PIPE] |188|  ; [KEEP 32-BIT INS]
    1442                    $C$DW$71        .dwtag  DW_TAG_TI_branch
    1443                            .dwattr $C$DW$71, DW_AT_low_pc(0x00)
    1444                            .dwattr $C$DW$71, DW_AT_name("lc")
    1445                            .dwattr $C$DW$71, DW_AT_TI_call
    1446 00000138 FF62F7FF          BL        lc                    ; [DPU_3_PIPE] |188|  ; [KEEP 32-BIT INS]
    1447                            ; CALL OCCURS {lc }              ; [] |188| 
    1448 0000013c 498C              LDR       A2, $C$CON6           ; [DPU_3_PIPE] |188|  ; [ORIG 16-BIT INS]
    1449 0000013e 4A8B              LDR       A3, $C$CON5           ; [DPU_3_PIPE] |188|  ; [ORIG 16-BIT INS]
    1450 00000140 6809              LDR       A2, [A2, #0]          ; [DPU_3_PIPE] |188|  ; [ORIG 16-BIT INS]
    1451 00000142 5C51              LDRB      A2, [A3, +A2]         ; [DPU_3_PIPE] |188|  ; [ORIG 16-BIT INS]
    1452 00000144 4288              CMP       A1, A2                ; [DPU_3_PIPE] |188|  ; [ORIG 16-BIT INS]
    1453 00000146 D10F              BNE       ||$C$L7||             ; [DPU_3_PIPE] |188|  ; [ORIG 16-BIT INS]
    1454                            ; BRANCHCC OCCURS {||$C$L7||}    ; [] |188| 
    1455                    ;* --------------------------------------------------------------------------*
    1456                            .dwpsn  file "../esp8266.c",line 189,column 7,is_stmt,isa 1
    1457                    ;----------------------------------------------------------------------
    1458                    ; 189 | ServerResponseSearchIndex++;                                           
    1459                    ;----------------------------------------------------------------------
    1460 00000148 4989              LDR       A2, $C$CON6           ; [DPU_3_PIPE] |189|  ; [ORIG 16-BIT INS]
    1461 0000014a 6808              LDR       A1, [A2, #0]          ; [DPU_3_PIPE] |189|  ; [ORIG 16-BIT INS]
    1462 0000014c 1C40              ADDS      A1, A1, #1            ; [DPU_3_PIPE] |189|  ; [ORIG 16-BIT INS]
    1463 0000014e 6008              STR       A1, [A2, #0]          ; [DPU_3_PIPE] |189|  ; [ORIG 16-BIT INS]
    1464                            .dwpsn  file "../esp8266.c",line 190,column 7,is_stmt,isa 1
    1465                    ;----------------------------------------------------------------------
    1466                    ; 190 | if(ServerResponseSearchString[ServerResponseSearchIndex] == 0){   // ma
    1467                    ;     | tch OK string?                                                         
    1468                    ;----------------------------------------------------------------------
    1469 00000150 4887              LDR       A1, $C$CON6           ; [DPU_3_PIPE] |190|  ; [ORIG 16-BIT INS]
    1470 00000152 4986              LDR       A2, $C$CON5           ; [DPU_3_PIPE] |190|  ; [ORIG 16-BIT INS]
    1471 00000154 6800              LDR       A1, [A1, #0]          ; [DPU_3_PIPE] |190|  ; [ORIG 16-BIT INS]
    1472 00000156 5C08              LDRB      A1, [A2, +A1]         ; [DPU_3_PIPE] |190|  ; [ORIG 16-BIT INS]
    1473 00000158 B948              CBNZ      A1, ||$C$L8||         ; []  ; [ORIG 16-BIT INS]
    1474                            ; BRANCHCC OCCURS {||$C$L8||}    ; [] |190| 
    1475                    ;* --------------------------------------------------------------------------*
    1476                            .dwpsn  file "../esp8266.c",line 191,column 9,is_stmt,isa 1
    1477                    ;----------------------------------------------------------------------
    1478                    ; 191 | ServerResponseSearchFinished = 1;                                      
    1479                    ;----------------------------------------------------------------------
    1480 0000015a 4987              LDR       A2, $C$CON8           ; [DPU_3_PIPE] |191|  ; [ORIG 16-BIT INS]
    1481 0000015c 2001              MOVS      A1, #1                ; [DPU_3_PIPE] |191|  ; [ORIG 16-BIT INS]
    1482 0000015e 6008              STR       A1, [A2, #0]          ; [DPU_3_PIPE] |191|  ; [ORIG 16-BIT INS]
    1483                            .dwpsn  file "../esp8266.c",line 192,column 9,is_stmt,isa 1
    1484                    ;----------------------------------------------------------------------
    1485                    ; 192 | ServerResponseSearchLooking = 0;                                       
TI ARM Assembler PC v5.2.4 Sat Feb 06 22:51:21 2016

Tools Copyright (c) 1996-2015 Texas Instruments Incorporated
esp8266.asm                                                          PAGE   28

    1486                    ;----------------------------------------------------------------------
    1487 00000160 4984              LDR       A2, $C$CON7           ; [DPU_3_PIPE] |192|  ; [ORIG 16-BIT INS]
    1488 00000162 2000              MOVS      A1, #0                ; [DPU_3_PIPE] |192|  ; [ORIG 16-BIT INS]
    1489 00000164 6008              STR       A1, [A2, #0]          ; [DPU_3_PIPE] |192|  ; [ORIG 16-BIT INS]
    1490                            .dwpsn  file "../esp8266.c",line 194,column 5,is_stmt,isa 1
    1491                    ;----------------------------------------------------------------------
    1492                    ; 194 | }else{                                                                 
    1493                    ;----------------------------------------------------------------------
    1494 00000166 E002              B         ||$C$L8||             ; [DPU_3_PIPE] |194|  ; [ORIG 16-BIT INS]
    1495                            ; BRANCH OCCURS {||$C$L8||}      ; [] |194| 
    1496                    ;* --------------------------------------------------------------------------*
    1497 00000168           ||$C$L7||:    
    1498                            .dwpsn  file "../esp8266.c",line 195,column 7,is_stmt,isa 1
    1499                    ;----------------------------------------------------------------------
    1500                    ; 195 | ServerResponseSearchIndex = 0; // start over                           
    1501                    ;----------------------------------------------------------------------
    1502 00000168 4981              LDR       A2, $C$CON6           ; [DPU_3_PIPE] |195|  ; [ORIG 16-BIT INS]
    1503 0000016a 2000              MOVS      A1, #0                ; [DPU_3_PIPE] |195|  ; [ORIG 16-BIT INS]
    1504 0000016c 6008              STR       A1, [A2, #0]          ; [DPU_3_PIPE] |195|  ; [ORIG 16-BIT INS]
    1505                            .dwpsn  file "../esp8266.c",line 198,column 1,is_stmt,isa 1
    1506                    ;* --------------------------------------------------------------------------*
    1507                    ||$C$L8||:    
    1508                    $C$DW$72        .dwtag  DW_TAG_TI_branch
    1509                            .dwattr $C$DW$72, DW_AT_low_pc(0x00)
    1510                            .dwattr $C$DW$72, DW_AT_TI_return
    1511 0000016e BD08              POP       {A4, PC}              ; [DPU_3_PIPE]  ; [ORIG 16-BIT INS]
    1512                            .dwcfi  cfa_offset, 0
    1513                            ; BRANCH OCCURS                  ; [] 
    1514                            .dwattr $C$DW$65, DW_AT_TI_end_file("../esp8266.c")
    1515                            .dwattr $C$DW$65, DW_AT_TI_end_line(0xc6)
    1516                            .dwattr $C$DW$65, DW_AT_TI_end_column(0x01)
    1517                            .dwendentry
    1518                            .dwendtag $C$DW$65
    1519                    
    1520 00000170                   .sect   ".text"
    1521                            .clink
    1522                            .thumbfunc ESP8266_InitUART
    1523 00000170                   .thumb
    1524                            .global ESP8266_InitUART
    1525                    
    1526                    $C$DW$73        .dwtag  DW_TAG_subprogram, DW_AT_name("ESP8266_InitUART")
    1527                            .dwattr $C$DW$73, DW_AT_low_pc(ESP8266_InitUART)
    1528                            .dwattr $C$DW$73, DW_AT_high_pc(0x00)
    1529                            .dwattr $C$DW$73, DW_AT_TI_symbol_name("ESP8266_InitUART")
    1530                            .dwattr $C$DW$73, DW_AT_external
    1531                            .dwattr $C$DW$73, DW_AT_TI_begin_file("../esp8266.c")
    1532                            .dwattr $C$DW$73, DW_AT_TI_begin_line(0xd3)
    1533                            .dwattr $C$DW$73, DW_AT_TI_begin_column(0x06)
    1534                            .dwattr $C$DW$73, DW_AT_decl_file("../esp8266.c")
    1535                            .dwattr $C$DW$73, DW_AT_decl_line(0xd3)
    1536                            .dwattr $C$DW$73, DW_AT_decl_column(0x06)
    1537                            .dwattr $C$DW$73, DW_AT_TI_max_frame_size(0x18)
    1538                            .dwpsn  file "../esp8266.c",line 211,column 47,is_stmt,address ESP8266_InitUART,isa 1
    1539                    
    1540                            .dwfde $C$DW$CIE, ESP8266_InitUART
TI ARM Assembler PC v5.2.4 Sat Feb 06 22:51:21 2016

Tools Copyright (c) 1996-2015 Texas Instruments Incorporated
esp8266.asm                                                          PAGE   29

    1541                    $C$DW$74        .dwtag  DW_TAG_formal_parameter, DW_AT_name("baud")
    1542                            .dwattr $C$DW$74, DW_AT_TI_symbol_name("baud")
    1543                            .dwattr $C$DW$74, DW_AT_type(*$C$DW$T$38)
    1544                            .dwattr $C$DW$74, DW_AT_location[DW_OP_reg0]
    1545                    $C$DW$75        .dwtag  DW_TAG_formal_parameter, DW_AT_name("echo")
    1546                            .dwattr $C$DW$75, DW_AT_TI_symbol_name("echo")
    1547                            .dwattr $C$DW$75, DW_AT_type(*$C$DW$T$10)
    1548                            .dwattr $C$DW$75, DW_AT_location[DW_OP_reg1]
    1549                    
    1550                    ;*****************************************************************************
    1551                    ;* FUNCTION NAME: ESP8266_InitUART                                           *
    1552                    ;*                                                                           *
    1553                    ;*   Regs Modified     : A1,A2,A3,A4,V1,V2,SP,SR                             *
    1554                    ;*   Regs Used         : A1,A2,A3,A4,V1,V2,SP,LR,SR                          *
    1555                    ;*   Local Frame Size  : 0 Args + 8 Auto + 12 Save = 20 byte                 *
    1556                    ;*****************************************************************************
    1557 00000170           ESP8266_InitUART:
    1558                    ;* --------------------------------------------------------------------------*
    1559                            .dwcfi  cfa_offset, 0
    1560 00000170 B53E              PUSH      {A2, A3, A4, V1, V2, LR} ; [DPU_3_PIPE]  ; [ORIG 16-BIT INS]
    1561                            .dwcfi  cfa_offset, 24
    1562                            .dwcfi  save_reg_to_mem, 14, -4
    1563                            .dwcfi  save_reg_to_mem, 5, -8
    1564                            .dwcfi  save_reg_to_mem, 4, -12
    1565                            .dwcfi  save_reg_to_mem, 3, -16
    1566                            .dwcfi  save_reg_to_mem, 2, -20
    1567                            .dwcfi  save_reg_to_mem, 1, -24
    1568                    $C$DW$76        .dwtag  DW_TAG_variable, DW_AT_name("baud")
    1569                            .dwattr $C$DW$76, DW_AT_TI_symbol_name("baud")
    1570                            .dwattr $C$DW$76, DW_AT_type(*$C$DW$T$38)
    1571                            .dwattr $C$DW$76, DW_AT_location[DW_OP_breg13 0]
    1572                    $C$DW$77        .dwtag  DW_TAG_variable, DW_AT_name("echo")
    1573                            .dwattr $C$DW$77, DW_AT_TI_symbol_name("echo")
    1574                            .dwattr $C$DW$77, DW_AT_type(*$C$DW$T$10)
    1575                            .dwattr $C$DW$77, DW_AT_location[DW_OP_breg13 4]
    1576                    ;----------------------------------------------------------------------
    1577                    ; 211 | void ESP8266_InitUART(uint32_t baud, int echo){ volatile int delay;    
    1578                    ;----------------------------------------------------------------------
    1579 00000172 9101              STR       A2, [SP, #4]          ; [DPU_3_PIPE] |211|  ; [ORIG 16-BIT INS]
    1580 00000174 9000              STR       A1, [SP, #0]          ; [DPU_3_PIPE] |211|  ; [ORIG 16-BIT INS]
    1581                            .dwpsn  file "../esp8266.c",line 212,column 3,is_stmt,isa 1
    1582                    ;----------------------------------------------------------------------
    1583                    ; 212 | ESP8266_EchoResponse = echo;                                           
    1584                    ;----------------------------------------------------------------------
    1585 00000176 9801              LDR       A1, [SP, #4]          ; [DPU_3_PIPE] |212|  ; [ORIG 16-BIT INS]
    1586 00000178 2100              MOVS      A2, #0                ; [DPU_3_PIPE] |212|  ; [ORIG 16-BIT INS]
    1587 0000017a B100              CBZ       A1, ||$C$L9||         ; []  ; [ORIG 16-BIT INS]
    1588                            ; BRANCHCC OCCURS {||$C$L9||}    ; [] |212| 
    1589                    ;* --------------------------------------------------------------------------*
    1590 0000017c 2101              MOVS      A2, #1                ; [DPU_3_PIPE] |212|  ; [ORIG 16-BIT INS]
    1591                    ;* --------------------------------------------------------------------------*
    1592 0000017e           ||$C$L9||:    
    1593 0000017e 48C2              LDR       A1, $C$CON11          ; [DPU_3_PIPE] |212|  ; [ORIG 16-BIT INS]
    1594 00000180 7001              STRB      A2, [A1, #0]          ; [DPU_3_PIPE] |212|  ; [ORIG 16-BIT INS]
    1595                            .dwpsn  file "../esp8266.c",line 213,column 3,is_stmt,isa 1
TI ARM Assembler PC v5.2.4 Sat Feb 06 22:51:21 2016

Tools Copyright (c) 1996-2015 Texas Instruments Incorporated
esp8266.asm                                                          PAGE   30

    1596                    ;----------------------------------------------------------------------
    1597                    ; 213 | SYSCTL_RCGCUART_R |= 0x02; // Enable UART1                             
    1598                    ;----------------------------------------------------------------------
    1599 00000182 4990              LDR       A2, $C$CON12          ; [DPU_3_PIPE] |213|  ; [ORIG 16-BIT INS]
    1600 00000184 6808              LDR       A1, [A2, #0]          ; [DPU_3_PIPE] |213|  ; [ORIG 16-BIT INS]
    1601 00000186 0002F040          ORR       A1, A1, #2            ; [DPU_3_PIPE] |213|  ; [KEEP 32-BIT INS]
    1602 0000018a 6008              STR       A1, [A2, #0]          ; [DPU_3_PIPE] |213|  ; [ORIG 16-BIT INS]
    1603                            .dwpsn  file "../esp8266.c",line 214,column 3,is_stmt,isa 1
    1604                    ;----------------------------------------------------------------------
    1605                    ; 214 | while((SYSCTL_PRUART_R&0x02)==0){};                                    
    1606                    ;----------------------------------------------------------------------
    1607                    ;* --------------------------------------------------------------------------*
    1608                    ;*   BEGIN LOOP ||$C$L10||
    1609                    ;*
    1610                    ;*   Loop source line                : 214
    1611                    ;*   Loop closing brace source line  : 214
    1612                    ;*   Known Minimum Trip Count        : 1
    1613                    ;*   Known Maximum Trip Count        : 4294967295
    1614                    ;*   Known Max Trip Count Factor     : 1
    1615                    ;* --------------------------------------------------------------------------*
    1616 0000018c           ||$C$L10||:    
    1617                            .dwpsn  file "../esp8266.c",line 214,column 9,is_stmt,isa 1
    1618 0000018c 488E              LDR       A1, $C$CON13          ; [DPU_3_PIPE] |214|  ; [ORIG 16-BIT INS]
    1619 0000018e 6800              LDR       A1, [A1, #0]          ; [DPU_3_PIPE] |214|  ; [ORIG 16-BIT INS]
    1620 00000190 0880              LSRS      A1, A1, #2            ; [DPU_3_PIPE] |214|  ; [ORIG 16-BIT INS]
    1621 00000192 D3FB              BCC       ||$C$L10||            ; [DPU_3_PIPE] |214|  ; [ORIG 16-BIT INS]
    1622                            ; BRANCHCC OCCURS {||$C$L10||}   ; [] |214| 
    1623                    ;* --------------------------------------------------------------------------*
    1624                            .dwpsn  file "../esp8266.c",line 215,column 3,is_stmt,isa 1
    1625                    ;----------------------------------------------------------------------
    1626                    ; 215 | SYSCTL_RCGCGPIO_R |= 0x02; // Enable PORT B clock gating               
    1627                    ;----------------------------------------------------------------------
    1628 00000194 498D              LDR       A2, $C$CON14          ; [DPU_3_PIPE] |215|  ; [ORIG 16-BIT INS]
    1629 00000196 6808              LDR       A1, [A2, #0]          ; [DPU_3_PIPE] |215|  ; [ORIG 16-BIT INS]
    1630 00000198 0002F040          ORR       A1, A1, #2            ; [DPU_3_PIPE] |215|  ; [KEEP 32-BIT INS]
    1631 0000019c 6008              STR       A1, [A2, #0]          ; [DPU_3_PIPE] |215|  ; [ORIG 16-BIT INS]
    1632                            .dwpsn  file "../esp8266.c",line 216,column 3,is_stmt,isa 1
    1633                    ;----------------------------------------------------------------------
    1634                    ; 216 | while((SYSCTL_PRGPIO_R&0x02)==0){};                                    
    1635                    ;----------------------------------------------------------------------
    1636                    ;* --------------------------------------------------------------------------*
    1637                    ;*   BEGIN LOOP ||$C$L11||
    1638                    ;*
    1639                    ;*   Loop source line                : 216
    1640                    ;*   Loop closing brace source line  : 216
    1641                    ;*   Known Minimum Trip Count        : 1
    1642                    ;*   Known Maximum Trip Count        : 4294967295
    1643                    ;*   Known Max Trip Count Factor     : 1
    1644                    ;* --------------------------------------------------------------------------*
    1645 0000019e           ||$C$L11||:    
    1646                            .dwpsn  file "../esp8266.c",line 216,column 9,is_stmt,isa 1
    1647 0000019e 488C              LDR       A1, $C$CON15          ; [DPU_3_PIPE] |216|  ; [ORIG 16-BIT INS]
    1648 000001a0 6800              LDR       A1, [A1, #0]          ; [DPU_3_PIPE] |216|  ; [ORIG 16-BIT INS]
    1649 000001a2 0880              LSRS      A1, A1, #2            ; [DPU_3_PIPE] |216|  ; [ORIG 16-BIT INS]
    1650 000001a4 D3FB              BCC       ||$C$L11||            ; [DPU_3_PIPE] |216|  ; [ORIG 16-BIT INS]
TI ARM Assembler PC v5.2.4 Sat Feb 06 22:51:21 2016

Tools Copyright (c) 1996-2015 Texas Instruments Incorporated
esp8266.asm                                                          PAGE   31

    1651                            ; BRANCHCC OCCURS {||$C$L11||}   ; [] |216| 
    1652                    ;* --------------------------------------------------------------------------*
    1653                            .dwpsn  file "../esp8266.c",line 217,column 3,is_stmt,isa 1
    1654                    ;----------------------------------------------------------------------
    1655                    ; 217 | GPIO_PORTB_AFSEL_R |= 0x03;                                            
    1656                    ;----------------------------------------------------------------------
    1657 000001a6 498B              LDR       A2, $C$CON16          ; [DPU_3_PIPE] |217|  ; [ORIG 16-BIT INS]
    1658 000001a8 6808              LDR       A1, [A2, #0]          ; [DPU_3_PIPE] |217|  ; [ORIG 16-BIT INS]
    1659 000001aa 0003F040          ORR       A1, A1, #3            ; [DPU_3_PIPE] |217|  ; [KEEP 32-BIT INS]
    1660 000001ae 6008              STR       A1, [A2, #0]          ; [DPU_3_PIPE] |217|  ; [ORIG 16-BIT INS]
    1661                            .dwpsn  file "../esp8266.c",line 218,column 3,is_stmt,isa 1
    1662                    ;----------------------------------------------------------------------
    1663                    ; 218 | GPIO_PORTB_DIR_R |= 0x20; // PB5 output to reset                       
    1664                    ;----------------------------------------------------------------------
    1665 000001b0 4989              LDR       A2, $C$CON17          ; [DPU_3_PIPE] |218|  ; [ORIG 16-BIT INS]
    1666 000001b2 6808              LDR       A1, [A2, #0]          ; [DPU_3_PIPE] |218|  ; [ORIG 16-BIT INS]
    1667 000001b4 0020F040          ORR       A1, A1, #32           ; [DPU_3_PIPE] |218|  ; [KEEP 32-BIT INS]
    1668 000001b8 6008              STR       A1, [A2, #0]          ; [DPU_3_PIPE] |218|  ; [ORIG 16-BIT INS]
    1669                            .dwpsn  file "../esp8266.c",line 219,column 3,is_stmt,isa 1
    1670                    ;----------------------------------------------------------------------
    1671                    ; 219 | GPIO_PORTB_PCTL_R =(GPIO_PORTB_PCTL_R&0xFF0FFF00)|0x00000011;          
    1672                    ;----------------------------------------------------------------------
    1673 000001ba 4988              LDR       A2, $C$CON18          ; [DPU_3_PIPE] |219|  ; [ORIG 16-BIT INS]
    1674 000001bc 4888              LDR       A1, $C$CON19          ; [DPU_3_PIPE] |219|  ; [ORIG 16-BIT INS]
    1675 000001be 680A              LDR       A3, [A2, #0]          ; [DPU_3_PIPE] |219|  ; [ORIG 16-BIT INS]
    1676 000001c0 4986              LDR       A2, $C$CON18          ; [DPU_3_PIPE] |219|  ; [ORIG 16-BIT INS]
    1677 000001c2 4010              ANDS      A1, A1, A3            ; [DPU_3_PIPE] |219|  ; [ORIG 16-BIT INS]
    1678 000001c4 0011F040          ORR       A1, A1, #17           ; [DPU_3_PIPE] |219|  ; [KEEP 32-BIT INS]
    1679 000001c8 6008              STR       A1, [A2, #0]          ; [DPU_3_PIPE] |219|  ; [ORIG 16-BIT INS]
    1680                            .dwpsn  file "../esp8266.c",line 220,column 3,is_stmt,isa 1
    1681                    ;----------------------------------------------------------------------
    1682                    ; 220 | GPIO_PORTB_DEN_R   |= 0x23; //23                                       
    1683                    ;----------------------------------------------------------------------
    1684 000001ca 4986              LDR       A2, $C$CON20          ; [DPU_3_PIPE] |220|  ; [ORIG 16-BIT INS]
    1685 000001cc 6808              LDR       A1, [A2, #0]          ; [DPU_3_PIPE] |220|  ; [ORIG 16-BIT INS]
    1686 000001ce 0023F040          ORR       A1, A1, #35           ; [DPU_3_PIPE] |220|  ; [KEEP 32-BIT INS]
    1687 000001d2 6008              STR       A1, [A2, #0]          ; [DPU_3_PIPE] |220|  ; [ORIG 16-BIT INS]
    1688                            .dwpsn  file "../esp8266.c",line 221,column 3,is_stmt,isa 1
    1689                    ;----------------------------------------------------------------------
    1690                    ; 221 | GPIO_PORTB_DATA_R |= 0x20; // reset high                               
    1691                    ;----------------------------------------------------------------------
    1692 000001d4 4984              LDR       A2, $C$CON21          ; [DPU_3_PIPE] |221|  ; [ORIG 16-BIT INS]
    1693 000001d6 6808              LDR       A1, [A2, #0]          ; [DPU_3_PIPE] |221|  ; [ORIG 16-BIT INS]
    1694 000001d8 0020F040          ORR       A1, A1, #32           ; [DPU_3_PIPE] |221|  ; [KEEP 32-BIT INS]
    1695 000001dc 6008              STR       A1, [A2, #0]          ; [DPU_3_PIPE] |221|  ; [ORIG 16-BIT INS]
    1696                            .dwpsn  file "../esp8266.c",line 222,column 3,is_stmt,isa 1
    1697                    ;----------------------------------------------------------------------
    1698                    ; 222 | UART1_CTL_R &= ~UART_CTL_UARTEN;                  // Clear UART1 enable
    1699                    ;     |  bit during config                                                     
    1700                    ;----------------------------------------------------------------------
    1701 000001de 4983              LDR       A2, $C$CON22          ; [DPU_3_PIPE] |222|  ; [ORIG 16-BIT INS]
    1702 000001e0 6808              LDR       A1, [A2, #0]          ; [DPU_3_PIPE] |222|  ; [ORIG 16-BIT INS]
    1703 000001e2 0001F020          BIC       A1, A1, #1            ; [DPU_3_PIPE] |222|  ; [KEEP 32-BIT INS]
    1704 000001e6 6008              STR       A1, [A2, #0]          ; [DPU_3_PIPE] |222|  ; [ORIG 16-BIT INS]
    1705                            .dwpsn  file "../esp8266.c",line 223,column 3,is_stmt,isa 1
TI ARM Assembler PC v5.2.4 Sat Feb 06 22:51:21 2016

Tools Copyright (c) 1996-2015 Texas Instruments Incorporated
esp8266.asm                                                          PAGE   32

    1706                    ;----------------------------------------------------------------------
    1707                    ; 223 | UART1_IBRD_R = 5000000/baud;                                           
    1708                    ;----------------------------------------------------------------------
    1709 000001e8 4882              LDR       A1, $C$CON24          ; [DPU_3_PIPE] |223|  ; [ORIG 16-BIT INS]
    1710 000001ea 4981              LDR       A2, $C$CON23          ; [DPU_3_PIPE] |223|  ; [ORIG 16-BIT INS]
    1711 000001ec 9A00              LDR       A3, [SP, #0]          ; [DPU_3_PIPE] |223|  ; [ORIG 16-BIT INS]
    1712 000001ee F0F2FBB0          UDIV      A1, A1, A3            ; [DPU_3_PIPE] |223|  ; [KEEP 32-BIT INS]
    1713 000001f2 6008              STR       A1, [A2, #0]          ; [DPU_3_PIPE] |223|  ; [ORIG 16-BIT INS]
    1714                            .dwpsn  file "../esp8266.c",line 224,column 3,is_stmt,isa 1
    1715                    ;----------------------------------------------------------------------
    1716                    ; 224 | UART1_FBRD_R = ((64*(5000000%baud))+baud/2)/baud;                      
    1717                    ; 225 |  // UART1_IBRD_R = 43;       // IBRD = int(80,000,000 / (16 * 115,200))
    1718                    ;     |  = int(43.403)                                                         
    1719                    ; 226 |  // UART1_FBRD_R = 26;       // FBRD = round(0.4028 * 64 ) = 26        
    1720                    ;----------------------------------------------------------------------
    1721 000001f4 497F              LDR       A2, $C$CON24          ; [DPU_3_PIPE] |224|  ; [ORIG 16-BIT INS]
    1722 000001f6 4B80              LDR       A4, $C$CON25          ; [DPU_3_PIPE] |224|  ; [ORIG 16-BIT INS]
    1723 000001f8 9C00              LDR       V1, [SP, #0]          ; [DPU_3_PIPE] |224|  ; [ORIG 16-BIT INS]
    1724 000001fa 9A00              LDR       A3, [SP, #0]          ; [DPU_3_PIPE] |224|  ; [ORIG 16-BIT INS]
    1725 000001fc 9D00              LDR       V2, [SP, #0]          ; [DPU_3_PIPE] |224|  ; [ORIG 16-BIT INS]
    1726 000001fe F0F4FBB1          UDIV      A1, A2, V1            ; [DPU_3_PIPE] |224|  ; [KEEP 32-BIT INS]
    1727 00000202 0852              LSRS      A3, A3, #1            ; [DPU_3_PIPE] |224|  ; [ORIG 16-BIT INS]
    1728 00000204 4360              MULS      A1, A1, V1            ; [DPU_3_PIPE] |224|  ; [ORIG 16-BIT INS]
    1729 00000206 1A09              SUBS      A2, A2, A1            ; [DPU_3_PIPE] |224|  ; [ORIG 16-BIT INS]
    1730 00000208 1281EB02          ADD       A3, A3, A2, LSL #6    ; [DPU_3_PIPE] |224|  ; [KEEP 32-BIT INS]
    1731 0000020c F0F5FBB2          UDIV      A1, A3, V2            ; [DPU_3_PIPE] |224|  ; [KEEP 32-BIT INS]
    1732 00000210 6018              STR       A1, [A4, #0]          ; [DPU_3_PIPE] |224|  ; [ORIG 16-BIT INS]
    1733                            .dwpsn  file "../esp8266.c",line 228,column 3,is_stmt,isa 1
    1734                    ;----------------------------------------------------------------------
    1735                    ; 228 | UART1_LCRH_R = (UART_LCRH_WLEN_8|UART_LCRH_FEN);  // 8 bit word length,
    1736                    ;     |  1 stop, no parity, FIFOs enabled                                      
    1737                    ;----------------------------------------------------------------------
    1738 00000212 497A              LDR       A2, $C$CON26          ; [DPU_3_PIPE] |228|  ; [ORIG 16-BIT INS]
    1739 00000214 2070              MOVS      A1, #112              ; [DPU_3_PIPE] |228|  ; [ORIG 16-BIT INS]
    1740 00000216 6008              STR       A1, [A2, #0]          ; [DPU_3_PIPE] |228|  ; [ORIG 16-BIT INS]
    1741                            .dwpsn  file "../esp8266.c",line 229,column 3,is_stmt,isa 1
    1742                    ;----------------------------------------------------------------------
    1743                    ; 229 | UART1_IFLS_R &= ~0x3F;                            // Clear TX and RX in
    1744                    ;     | terrupt FIFO level fields                                              
    1745                    ;----------------------------------------------------------------------
    1746 00000218 4979              LDR       A2, $C$CON27          ; [DPU_3_PIPE] |229|  ; [ORIG 16-BIT INS]
    1747 0000021a 6808              LDR       A1, [A2, #0]          ; [DPU_3_PIPE] |229|  ; [ORIG 16-BIT INS]
    1748 0000021c 003FF020          BIC       A1, A1, #63           ; [DPU_3_PIPE] |229|  ; [KEEP 32-BIT INS]
    1749 00000220 6008              STR       A1, [A2, #0]          ; [DPU_3_PIPE] |229|  ; [ORIG 16-BIT INS]
    1750                            .dwpsn  file "../esp8266.c",line 230,column 3,is_stmt,isa 1
    1751                    ;----------------------------------------------------------------------
    1752                    ; 230 | UART1_IFLS_R += UART_IFLS_RX1_8 ;                 // RX FIFO interrupt
    1753                    ;     | threshold >= 1/8th full                                                
    1754                    ;----------------------------------------------------------------------
    1755 00000222 4977              LDR       A2, $C$CON27          ; [DPU_3_PIPE] |230|  ; [ORIG 16-BIT INS]
    1756 00000224 6808              LDR       A1, [A2, #0]          ; [DPU_3_PIPE] |230|  ; [ORIG 16-BIT INS]
    1757 00000226 6008              STR       A1, [A2, #0]          ; [DPU_3_PIPE] |230|  ; [ORIG 16-BIT INS]
    1758                            .dwpsn  file "../esp8266.c",line 231,column 3,is_stmt,isa 1
    1759                    ;----------------------------------------------------------------------
    1760                    ; 231 | UART1_IM_R  |= UART_IM_RXIM | UART_IM_RTIM;       // Enable interupt on
TI ARM Assembler PC v5.2.4 Sat Feb 06 22:51:21 2016

Tools Copyright (c) 1996-2015 Texas Instruments Incorporated
esp8266.asm                                                          PAGE   33

    1761                    ;     |  RX and RX transmission end                                            
    1762                    ;----------------------------------------------------------------------
    1763 00000228 4976              LDR       A2, $C$CON28          ; [DPU_3_PIPE] |231|  ; [ORIG 16-BIT INS]
    1764 0000022a 6808              LDR       A1, [A2, #0]          ; [DPU_3_PIPE] |231|  ; [ORIG 16-BIT INS]
    1765 0000022c 0050F040          ORR       A1, A1, #80           ; [DPU_3_PIPE] |231|  ; [KEEP 32-BIT INS]
    1766 00000230 6008              STR       A1, [A2, #0]          ; [DPU_3_PIPE] |231|  ; [ORIG 16-BIT INS]
    1767                            .dwpsn  file "../esp8266.c",line 232,column 3,is_stmt,isa 1
    1768                    ;----------------------------------------------------------------------
    1769                    ; 232 | UART1_CTL_R |= UART_CTL_UARTEN;                   // Set UART1 enable b
    1770                    ;     | it                                                                     
    1771                    ;----------------------------------------------------------------------
    1772 00000232 496E              LDR       A2, $C$CON22          ; [DPU_3_PIPE] |232|  ; [ORIG 16-BIT INS]
    1773 00000234 6808              LDR       A1, [A2, #0]          ; [DPU_3_PIPE] |232|  ; [ORIG 16-BIT INS]
    1774 00000236 0001F040          ORR       A1, A1, #1            ; [DPU_3_PIPE] |232|  ; [KEEP 32-BIT INS]
    1775 0000023a 6008              STR       A1, [A2, #0]          ; [DPU_3_PIPE] |232|  ; [ORIG 16-BIT INS]
    1776                            .dwpsn  file "../esp8266.c",line 233,column 1,is_stmt,isa 1
    1777                    $C$DW$78        .dwtag  DW_TAG_TI_branch
    1778                            .dwattr $C$DW$78, DW_AT_low_pc(0x00)
    1779                            .dwattr $C$DW$78, DW_AT_TI_return
    1780 0000023c BD3E              POP       {A2, A3, A4, V1, V2, PC} ; [DPU_3_PIPE]  ; [ORIG 16-BIT INS]
    1781                            .dwcfi  cfa_offset, 0
    1782                            ; BRANCH OCCURS                  ; [] 
    1783                            .dwattr $C$DW$73, DW_AT_TI_end_file("../esp8266.c")
    1784                            .dwattr $C$DW$73, DW_AT_TI_end_line(0xe9)
    1785                            .dwattr $C$DW$73, DW_AT_TI_end_column(0x01)
    1786                            .dwendentry
    1787                            .dwendtag $C$DW$73
    1788                    
    1789 0000023e                   .sect   ".text"
    1790                            .clink
    1791                            .thumbfunc UART1_Handler
    1792 0000023e                   .thumb
    1793                            .global UART1_Handler
    1794                    
    1795                    $C$DW$79        .dwtag  DW_TAG_subprogram, DW_AT_name("UART1_Handler")
    1796                            .dwattr $C$DW$79, DW_AT_low_pc(UART1_Handler)
    1797                            .dwattr $C$DW$79, DW_AT_high_pc(0x00)
    1798                            .dwattr $C$DW$79, DW_AT_TI_symbol_name("UART1_Handler")
    1799                            .dwattr $C$DW$79, DW_AT_external
    1800                            .dwattr $C$DW$79, DW_AT_TI_begin_file("../esp8266.c")
    1801                            .dwattr $C$DW$79, DW_AT_TI_begin_line(0xed)
    1802                            .dwattr $C$DW$79, DW_AT_TI_begin_column(0x06)
    1803                            .dwattr $C$DW$79, DW_AT_decl_file("../esp8266.c")
    1804                            .dwattr $C$DW$79, DW_AT_decl_line(0xed)
    1805                            .dwattr $C$DW$79, DW_AT_decl_column(0x06)
    1806                            .dwattr $C$DW$79, DW_AT_TI_max_frame_size(0x08)
    1807                            .dwpsn  file "../esp8266.c",line 237,column 25,is_stmt,address UART1_Handler,isa 1
    1808                    
    1809                            .dwfde $C$DW$CIE, UART1_Handler
    1810                    ;----------------------------------------------------------------------
    1811                    ; 237 | void UART1_Handler(void){                                              
    1812                    ;----------------------------------------------------------------------
    1813                    
    1814                    ;*****************************************************************************
    1815                    ;* FUNCTION NAME: UART1_Handler                                              *
TI ARM Assembler PC v5.2.4 Sat Feb 06 22:51:21 2016

Tools Copyright (c) 1996-2015 Texas Instruments Incorporated
esp8266.asm                                                          PAGE   34

    1816                    ;*                                                                           *
    1817                    ;*   Regs Modified     : A1,A2,A3,A4,V9,SP,LR,SR,D0,D0_hi,D1,D1_hi,D2,D2_hi, *
    1818                    ;*                           D3,D3_hi,D4,D4_hi,D5,D5_hi,D6,D6_hi,D7,D7_hi,   *
    1819                    ;*                           FPEXC,FPSCR                                     *
    1820                    ;*   Regs Used         : A1,A2,A3,A4,V9,SP,LR,SR,D0,D0_hi,D1,D1_hi,D2,D2_hi, *
    1821                    ;*                           D3,D3_hi,D4,D4_hi,D5,D5_hi,D6,D6_hi,D7,D7_hi,   *
    1822                    ;*                           FPEXC,FPSCR                                     *
    1823                    ;*   Local Frame Size  : 0 Args + 0 Auto + 4 Save = 4 byte                   *
    1824                    ;*****************************************************************************
    1825 0000023e           UART1_Handler:
    1826                    ;* --------------------------------------------------------------------------*
    1827                            .dwcfi  cfa_offset, 0
    1828 0000023e B508              PUSH      {A4, LR}              ; [DPU_3_PIPE]  ; [ORIG 16-BIT INS]
    1829                            .dwcfi  cfa_offset, 8
    1830                            .dwcfi  save_reg_to_mem, 14, -4
    1831                            .dwcfi  save_reg_to_mem, 3, -8
    1832                            .dwpsn  file "../esp8266.c",line 238,column 3,is_stmt,isa 1
    1833                    ;----------------------------------------------------------------------
    1834                    ; 238 | if(UART1_RIS_R & UART_RIS_RXRIS){   // rx fifo >= 1/8 full             
    1835                    ;----------------------------------------------------------------------
    1836 00000240 4871              LDR       A1, $C$CON29          ; [DPU_3_PIPE] |238|  ; [ORIG 16-BIT INS]
    1837 00000242 6800              LDR       A1, [A1, #0]          ; [DPU_3_PIPE] |238|  ; [ORIG 16-BIT INS]
    1838 00000244 0940              LSRS      A1, A1, #5            ; [DPU_3_PIPE] |238|  ; [ORIG 16-BIT INS]
    1839 00000246 D304              BCC       ||$C$L12||            ; [DPU_3_PIPE] |238|  ; [ORIG 16-BIT INS]
    1840                            ; BRANCHCC OCCURS {||$C$L12||}   ; [] |238| 
    1841                    ;* --------------------------------------------------------------------------*
    1842                            .dwpsn  file "../esp8266.c",line 239,column 5,is_stmt,isa 1
    1843                    ;----------------------------------------------------------------------
    1844                    ; 239 | UART1_ICR_R = UART_ICR_RXIC;      // acknowledge interrupt             
    1845                    ;----------------------------------------------------------------------
    1846 00000248 4970              LDR       A2, $C$CON30          ; [DPU_3_PIPE] |239|  ; [ORIG 16-BIT INS]
    1847 0000024a 2010              MOVS      A1, #16               ; [DPU_3_PIPE] |239|  ; [ORIG 16-BIT INS]
    1848 0000024c 6008              STR       A1, [A2, #0]          ; [DPU_3_PIPE] |239|  ; [ORIG 16-BIT INS]
    1849                            .dwpsn  file "../esp8266.c",line 240,column 5,is_stmt,isa 1
    1850                    ;----------------------------------------------------------------------
    1851                    ; 240 | ESP8266FIFOtoBuffer();                                                 
    1852                    ;----------------------------------------------------------------------
    1853                    $C$DW$80        .dwtag  DW_TAG_TI_branch
    1854                            .dwattr $C$DW$80, DW_AT_low_pc(0x00)
    1855                            .dwattr $C$DW$80, DW_AT_name("ESP8266FIFOtoBuffer")
    1856                            .dwattr $C$DW$80, DW_AT_TI_call
    1857 0000024e F820F000          BL        ESP8266FIFOtoBuffer   ; [DPU_3_PIPE] |240|  ; [KEEP 32-BIT INS]
    1858                            ; CALL OCCURS {ESP8266FIFOtoBuffer }  ; [] |240| 
    1859                    ;* --------------------------------------------------------------------------*
    1860 00000252           ||$C$L12||:    
    1861                            .dwpsn  file "../esp8266.c",line 242,column 3,is_stmt,isa 1
    1862                    ;----------------------------------------------------------------------
    1863                    ; 242 | if(UART1_RIS_R & UART_RIS_RTRIS){   // receiver timed out              
    1864                    ;----------------------------------------------------------------------
    1865 00000252 486D              LDR       A1, $C$CON29          ; [DPU_3_PIPE] |242|  ; [ORIG 16-BIT INS]
    1866 00000254 6800              LDR       A1, [A1, #0]          ; [DPU_3_PIPE] |242|  ; [ORIG 16-BIT INS]
    1867 00000256 09C0              LSRS      A1, A1, #7            ; [DPU_3_PIPE] |242|  ; [ORIG 16-BIT INS]
    1868 00000258 D304              BCC       ||$C$L13||            ; [DPU_3_PIPE] |242|  ; [ORIG 16-BIT INS]
    1869                            ; BRANCHCC OCCURS {||$C$L13||}   ; [] |242| 
    1870                    ;* --------------------------------------------------------------------------*
TI ARM Assembler PC v5.2.4 Sat Feb 06 22:51:21 2016

Tools Copyright (c) 1996-2015 Texas Instruments Incorporated
esp8266.asm                                                          PAGE   35

    1871                            .dwpsn  file "../esp8266.c",line 243,column 5,is_stmt,isa 1
    1872                    ;----------------------------------------------------------------------
    1873                    ; 243 | UART1_ICR_R = UART_ICR_RTIC;      // acknowledge receiver time         
    1874                    ;----------------------------------------------------------------------
    1875 0000025a 496C              LDR       A2, $C$CON30          ; [DPU_3_PIPE] |243|  ; [ORIG 16-BIT INS]
    1876 0000025c 2040              MOVS      A1, #64               ; [DPU_3_PIPE] |243|  ; [ORIG 16-BIT INS]
    1877 0000025e 6008              STR       A1, [A2, #0]          ; [DPU_3_PIPE] |243|  ; [ORIG 16-BIT INS]
    1878                            .dwpsn  file "../esp8266.c",line 244,column 5,is_stmt,isa 1
    1879                    ;----------------------------------------------------------------------
    1880                    ; 244 | ESP8266FIFOtoBuffer();                                                 
    1881                    ;----------------------------------------------------------------------
    1882                    $C$DW$81        .dwtag  DW_TAG_TI_branch
    1883                            .dwattr $C$DW$81, DW_AT_low_pc(0x00)
    1884                            .dwattr $C$DW$81, DW_AT_name("ESP8266FIFOtoBuffer")
    1885                            .dwattr $C$DW$81, DW_AT_TI_call
    1886 00000260 F817F000          BL        ESP8266FIFOtoBuffer   ; [DPU_3_PIPE] |244|  ; [KEEP 32-BIT INS]
    1887                            ; CALL OCCURS {ESP8266FIFOtoBuffer }  ; [] |244| 
    1888                            .dwpsn  file "../esp8266.c",line 246,column 1,is_stmt,isa 1
    1889                    ;* --------------------------------------------------------------------------*
    1890                    ||$C$L13||:    
    1891                    $C$DW$82        .dwtag  DW_TAG_TI_branch
    1892                            .dwattr $C$DW$82, DW_AT_low_pc(0x00)
    1893                            .dwattr $C$DW$82, DW_AT_TI_return
    1894 00000264 BD08              POP       {A4, PC}              ; [DPU_3_PIPE]  ; [ORIG 16-BIT INS]
    1895                            .dwcfi  cfa_offset, 0
    1896                            ; BRANCH OCCURS                  ; [] 
    1897                            .dwattr $C$DW$79, DW_AT_TI_end_file("../esp8266.c")
    1898                            .dwattr $C$DW$79, DW_AT_TI_end_line(0xf6)
    1899                            .dwattr $C$DW$79, DW_AT_TI_end_column(0x01)
    1900                            .dwendentry
    1901                            .dwendtag $C$DW$79
    1902                    
    1903 00000266                   .sect   ".text"
    1904                            .clink
    1905                            .thumbfunc ESP8266_EnableRXInterrupt
    1906 00000266                   .thumb
    1907                            .global ESP8266_EnableRXInterrupt
    1908                    
    1909                    $C$DW$83        .dwtag  DW_TAG_subprogram, DW_AT_name("ESP8266_EnableRXInterrupt")
    1910                            .dwattr $C$DW$83, DW_AT_low_pc(ESP8266_EnableRXInterrupt)
    1911                            .dwattr $C$DW$83, DW_AT_high_pc(0x00)
    1912                            .dwattr $C$DW$83, DW_AT_TI_symbol_name("ESP8266_EnableRXInterrupt")
    1913                            .dwattr $C$DW$83, DW_AT_external
    1914                            .dwattr $C$DW$83, DW_AT_TI_begin_file("../esp8266.c")
    1915                            .dwattr $C$DW$83, DW_AT_TI_begin_line(0xfb)
    1916                            .dwattr $C$DW$83, DW_AT_TI_begin_column(0x06)
    1917                            .dwattr $C$DW$83, DW_AT_decl_file("../esp8266.c")
    1918                            .dwattr $C$DW$83, DW_AT_decl_line(0xfb)
    1919                            .dwattr $C$DW$83, DW_AT_decl_column(0x06)
    1920                            .dwattr $C$DW$83, DW_AT_TI_max_frame_size(0x00)
    1921                            .dwpsn  file "../esp8266.c",line 251,column 37,is_stmt,address ESP8266_EnableRXInterrupt,isa 1
    1922                    
    1923                            .dwfde $C$DW$CIE, ESP8266_EnableRXInterrupt
    1924                    ;----------------------------------------------------------------------
    1925                    ; 251 | void ESP8266_EnableRXInterrupt(void){                                  
TI ARM Assembler PC v5.2.4 Sat Feb 06 22:51:21 2016

Tools Copyright (c) 1996-2015 Texas Instruments Incorporated
esp8266.asm                                                          PAGE   36

    1926                    ;----------------------------------------------------------------------
    1927                    
    1928                    ;*****************************************************************************
    1929                    ;* FUNCTION NAME: ESP8266_EnableRXInterrupt                                  *
    1930                    ;*                                                                           *
    1931                    ;*   Regs Modified     : A1,A2,SR                                            *
    1932                    ;*   Regs Used         : A1,A2,LR,SR                                         *
    1933                    ;*   Local Frame Size  : 0 Args + 0 Auto + 0 Save = 0 byte                   *
    1934                    ;*****************************************************************************
    1935 00000266           ESP8266_EnableRXInterrupt:
    1936                    ;* --------------------------------------------------------------------------*
    1937                            .dwcfi  cfa_offset, 0
    1938                            .dwpsn  file "../esp8266.c",line 252,column 3,is_stmt,isa 1
    1939                    ;----------------------------------------------------------------------
    1940                    ; 252 | NVIC_EN0_R = 1<<6; // interrupt 6                                      
    1941                    ;----------------------------------------------------------------------
    1942 00000266 496A              LDR       A2, $C$CON31          ; [DPU_3_PIPE] |252|  ; [ORIG 16-BIT INS]
    1943 00000268 2040              MOVS      A1, #64               ; [DPU_3_PIPE] |252|  ; [ORIG 16-BIT INS]
    1944 0000026a 6008              STR       A1, [A2, #0]          ; [DPU_3_PIPE] |252|  ; [ORIG 16-BIT INS]
    1945                            .dwpsn  file "../esp8266.c",line 253,column 1,is_stmt,isa 1
    1946                    $C$DW$84        .dwtag  DW_TAG_TI_branch
    1947                            .dwattr $C$DW$84, DW_AT_low_pc(0x00)
    1948                            .dwattr $C$DW$84, DW_AT_TI_return
    1949 0000026c 4770              BX        LR                    ; [DPU_3_PIPE]  ; [ORIG 16-BIT INS]
    1950                            ; BRANCH OCCURS                  ; [] 
    1951                            .dwattr $C$DW$83, DW_AT_TI_end_file("../esp8266.c")
    1952                            .dwattr $C$DW$83, DW_AT_TI_end_line(0xfd)
    1953                            .dwattr $C$DW$83, DW_AT_TI_end_column(0x01)
    1954                            .dwendentry
    1955                            .dwendtag $C$DW$83
    1956                    
    1957 0000026e                   .sect   ".text"
    1958                            .clink
    1959                            .thumbfunc ESP8266_DisableRXInterrupt
    1960 0000026e                   .thumb
    1961                            .global ESP8266_DisableRXInterrupt
    1962                    
    1963                    $C$DW$85        .dwtag  DW_TAG_subprogram, DW_AT_name("ESP8266_DisableRXInterrupt")
    1964                            .dwattr $C$DW$85, DW_AT_low_pc(ESP8266_DisableRXInterrupt)
    1965                            .dwattr $C$DW$85, DW_AT_high_pc(0x00)
    1966                            .dwattr $C$DW$85, DW_AT_TI_symbol_name("ESP8266_DisableRXInterrupt")
    1967                            .dwattr $C$DW$85, DW_AT_external
    1968                            .dwattr $C$DW$85, DW_AT_TI_begin_file("../esp8266.c")
    1969                            .dwattr $C$DW$85, DW_AT_TI_begin_line(0x103)
    1970                            .dwattr $C$DW$85, DW_AT_TI_begin_column(0x06)
    1971                            .dwattr $C$DW$85, DW_AT_decl_file("../esp8266.c")
    1972                            .dwattr $C$DW$85, DW_AT_decl_line(0x103)
    1973                            .dwattr $C$DW$85, DW_AT_decl_column(0x06)
    1974                            .dwattr $C$DW$85, DW_AT_TI_max_frame_size(0x00)
    1975                            .dwpsn  file "../esp8266.c",line 259,column 38,is_stmt,address ESP8266_DisableRXInterrupt,isa 
    1976                    
    1977                            .dwfde $C$DW$CIE, ESP8266_DisableRXInterrupt
    1978                    ;----------------------------------------------------------------------
    1979                    ; 259 | void ESP8266_DisableRXInterrupt(void){                                 
    1980                    ;----------------------------------------------------------------------
TI ARM Assembler PC v5.2.4 Sat Feb 06 22:51:21 2016

Tools Copyright (c) 1996-2015 Texas Instruments Incorporated
esp8266.asm                                                          PAGE   37

    1981                    
    1982                    ;*****************************************************************************
    1983                    ;* FUNCTION NAME: ESP8266_DisableRXInterrupt                                 *
    1984                    ;*                                                                           *
    1985                    ;*   Regs Modified     : A1,A2,SR                                            *
    1986                    ;*   Regs Used         : A1,A2,LR,SR                                         *
    1987                    ;*   Local Frame Size  : 0 Args + 0 Auto + 0 Save = 0 byte                   *
    1988                    ;*****************************************************************************
    1989 0000026e           ESP8266_DisableRXInterrupt:
    1990                    ;* --------------------------------------------------------------------------*
    1991                            .dwcfi  cfa_offset, 0
    1992                            .dwpsn  file "../esp8266.c",line 260,column 3,is_stmt,isa 1
    1993                    ;----------------------------------------------------------------------
    1994                    ; 260 | NVIC_DIS0_R = 1<<6; // interrupt 6                                     
    1995                    ;----------------------------------------------------------------------
    1996 0000026e 4969              LDR       A2, $C$CON32          ; [DPU_3_PIPE] |260|  ; [ORIG 16-BIT INS]
    1997 00000270 2040              MOVS      A1, #64               ; [DPU_3_PIPE] |260|  ; [ORIG 16-BIT INS]
    1998 00000272 6008              STR       A1, [A2, #0]          ; [DPU_3_PIPE] |260|  ; [ORIG 16-BIT INS]
    1999                            .dwpsn  file "../esp8266.c",line 261,column 1,is_stmt,isa 1
    2000                    $C$DW$86        .dwtag  DW_TAG_TI_branch
    2001                            .dwattr $C$DW$86, DW_AT_low_pc(0x00)
    2002                            .dwattr $C$DW$86, DW_AT_TI_return
    2003 00000274 4770              BX        LR                    ; [DPU_3_PIPE]  ; [ORIG 16-BIT INS]
    2004                            ; BRANCH OCCURS                  ; [] 
    2005                            .dwattr $C$DW$85, DW_AT_TI_end_file("../esp8266.c")
    2006                            .dwattr $C$DW$85, DW_AT_TI_end_line(0x105)
    2007                            .dwattr $C$DW$85, DW_AT_TI_end_column(0x01)
    2008                            .dwendentry
    2009                            .dwendtag $C$DW$85
    2010                    
    2011 00000276                   .sect   ".text"
    2012                            .clink
    2013                            .thumbfunc ESP8266_PrintChar
    2014 00000276                   .thumb
    2015                            .global ESP8266_PrintChar
    2016                    
    2017                    $C$DW$87        .dwtag  DW_TAG_subprogram, DW_AT_name("ESP8266_PrintChar")
    2018                            .dwattr $C$DW$87, DW_AT_low_pc(ESP8266_PrintChar)
    2019                            .dwattr $C$DW$87, DW_AT_high_pc(0x00)
    2020                            .dwattr $C$DW$87, DW_AT_TI_symbol_name("ESP8266_PrintChar")
    2021                            .dwattr $C$DW$87, DW_AT_external
    2022                            .dwattr $C$DW$87, DW_AT_TI_begin_file("../esp8266.c")
    2023                            .dwattr $C$DW$87, DW_AT_TI_begin_line(0x10c)
    2024                            .dwattr $C$DW$87, DW_AT_TI_begin_column(0x06)
    2025                            .dwattr $C$DW$87, DW_AT_decl_file("../esp8266.c")
    2026                            .dwattr $C$DW$87, DW_AT_decl_line(0x10c)
    2027                            .dwattr $C$DW$87, DW_AT_decl_column(0x06)
    2028                            .dwattr $C$DW$87, DW_AT_TI_max_frame_size(0x08)
    2029                            .dwpsn  file "../esp8266.c",line 268,column 35,is_stmt,address ESP8266_PrintChar,isa 1
    2030                    
    2031                            .dwfde $C$DW$CIE, ESP8266_PrintChar
    2032                    $C$DW$88        .dwtag  DW_TAG_formal_parameter, DW_AT_name("input")
    2033                            .dwattr $C$DW$88, DW_AT_TI_symbol_name("input")
    2034                            .dwattr $C$DW$88, DW_AT_type(*$C$DW$T$6)
    2035                            .dwattr $C$DW$88, DW_AT_location[DW_OP_reg0]
TI ARM Assembler PC v5.2.4 Sat Feb 06 22:51:21 2016

Tools Copyright (c) 1996-2015 Texas Instruments Incorporated
esp8266.asm                                                          PAGE   38

    2036                    
    2037                    ;*****************************************************************************
    2038                    ;* FUNCTION NAME: ESP8266_PrintChar                                          *
    2039                    ;*                                                                           *
    2040                    ;*   Regs Modified     : A1,A2,SP,SR                                         *
    2041                    ;*   Regs Used         : A1,A2,SP,LR,SR                                      *
    2042                    ;*   Local Frame Size  : 0 Args + 4 Auto + 0 Save = 4 byte                   *
    2043                    ;*****************************************************************************
    2044 00000276           ESP8266_PrintChar:
    2045                    ;* --------------------------------------------------------------------------*
    2046                            .dwcfi  cfa_offset, 0
    2047 00000276 0D08F1AD          SUB       SP, SP, #8            ; [DPU_3_PIPE]  ; [KEEP 32-BIT INS]
    2048                            .dwcfi  cfa_offset, 8
    2049                    $C$DW$89        .dwtag  DW_TAG_variable, DW_AT_name("input")
    2050                            .dwattr $C$DW$89, DW_AT_TI_symbol_name("input")
    2051                            .dwattr $C$DW$89, DW_AT_type(*$C$DW$T$6)
    2052                            .dwattr $C$DW$89, DW_AT_location[DW_OP_breg13 0]
    2053                    ;----------------------------------------------------------------------
    2054                    ; 268 | void ESP8266_PrintChar(char input){                                    
    2055                    ;----------------------------------------------------------------------
    2056 0000027a 0000F88D          STRB      A1, [SP, #0]          ; [DPU_3_PIPE] |268|  ; [KEEP 32-BIT INS]
    2057                            .dwpsn  file "../esp8266.c",line 269,column 3,is_stmt,isa 1
    2058                    ;----------------------------------------------------------------------
    2059                    ; 269 | while((UART1_FR_R&UART_FR_TXFF) != 0) {};                              
    2060                    ;----------------------------------------------------------------------
    2061                    ;* --------------------------------------------------------------------------*
    2062                    ;*   BEGIN LOOP ||$C$L14||
    2063                    ;*
    2064                    ;*   Loop source line                : 269
    2065                    ;*   Loop closing brace source line  : 269
    2066                    ;*   Known Minimum Trip Count        : 1
    2067                    ;*   Known Maximum Trip Count        : 4294967295
    2068                    ;*   Known Max Trip Count Factor     : 1
    2069                    ;* --------------------------------------------------------------------------*
    2070 0000027e           ||$C$L14||:    
    2071                            .dwpsn  file "../esp8266.c",line 269,column 9,is_stmt,isa 1
    2072 0000027e 4866              LDR       A1, $C$CON33          ; [DPU_3_PIPE] |269|  ; [ORIG 16-BIT INS]
    2073 00000280 6800              LDR       A1, [A1, #0]          ; [DPU_3_PIPE] |269|  ; [ORIG 16-BIT INS]
    2074 00000282 0980              LSRS      A1, A1, #6            ; [DPU_3_PIPE] |269|  ; [ORIG 16-BIT INS]
    2075 00000284 D2FB              BCS       ||$C$L14||            ; [DPU_3_PIPE] |269|  ; [ORIG 16-BIT INS]
    2076                            ; BRANCHCC OCCURS {||$C$L14||}   ; [] |269| 
    2077                    ;* --------------------------------------------------------------------------*
    2078                            .dwpsn  file "../esp8266.c",line 270,column 3,is_stmt,isa 1
    2079                    ;----------------------------------------------------------------------
    2080                    ; 270 | UART1_DR_R = input;                                                    
    2081                    ; 271 | //  UART_OutChar(input); // echo debugging                             
    2082                    ;----------------------------------------------------------------------
    2083 00000286 0000F89D          LDRB      A1, [SP, #0]          ; [DPU_3_PIPE] |270|  ; [KEEP 32-BIT INS]
    2084 0000028a 4964              LDR       A2, $C$CON34          ; [DPU_3_PIPE] |270|  ; [ORIG 16-BIT INS]
    2085 0000028c 6008              STR       A1, [A2, #0]          ; [DPU_3_PIPE] |270|  ; [ORIG 16-BIT INS]
    2086                            .dwpsn  file "../esp8266.c",line 272,column 1,is_stmt,isa 1
    2087 0000028e B002              ADD       SP, SP, #8            ; [DPU_3_PIPE]  ; [ORIG 16-BIT INS]
    2088                            .dwcfi  cfa_offset, 0
    2089                    $C$DW$90        .dwtag  DW_TAG_TI_branch
    2090                            .dwattr $C$DW$90, DW_AT_low_pc(0x00)
TI ARM Assembler PC v5.2.4 Sat Feb 06 22:51:21 2016

Tools Copyright (c) 1996-2015 Texas Instruments Incorporated
esp8266.asm                                                          PAGE   39

    2091                            .dwattr $C$DW$90, DW_AT_TI_return
    2092 00000290 4770              BX        LR                    ; [DPU_3_PIPE]  ; [ORIG 16-BIT INS]
    2093                            ; BRANCH OCCURS                  ; [] 
    2094                            .dwattr $C$DW$87, DW_AT_TI_end_file("../esp8266.c")
    2095                            .dwattr $C$DW$87, DW_AT_TI_end_line(0x110)
    2096                            .dwattr $C$DW$87, DW_AT_TI_end_column(0x01)
    2097                            .dwendentry
    2098                            .dwendtag $C$DW$87
    2099                    
    2100 00000292                   .sect   ".text"
    2101                            .clink
    2102                            .thumbfunc ESP8266FIFOtoBuffer
    2103 00000292                   .thumb
    2104                            .global ESP8266FIFOtoBuffer
    2105                    
    2106                    $C$DW$91        .dwtag  DW_TAG_subprogram, DW_AT_name("ESP8266FIFOtoBuffer")
    2107                            .dwattr $C$DW$91, DW_AT_low_pc(ESP8266FIFOtoBuffer)
    2108                            .dwattr $C$DW$91, DW_AT_high_pc(0x00)
    2109                            .dwattr $C$DW$91, DW_AT_TI_symbol_name("ESP8266FIFOtoBuffer")
    2110                            .dwattr $C$DW$91, DW_AT_external
    2111                            .dwattr $C$DW$91, DW_AT_TI_begin_file("../esp8266.c")
    2112                            .dwattr $C$DW$91, DW_AT_TI_begin_line(0x117)
    2113                            .dwattr $C$DW$91, DW_AT_TI_begin_column(0x06)
    2114                            .dwattr $C$DW$91, DW_AT_decl_file("../esp8266.c")
    2115                            .dwattr $C$DW$91, DW_AT_decl_line(0x117)
    2116                            .dwattr $C$DW$91, DW_AT_decl_column(0x06)
    2117                            .dwattr $C$DW$91, DW_AT_TI_max_frame_size(0x08)
    2118                            .dwpsn  file "../esp8266.c",line 279,column 31,is_stmt,address ESP8266FIFOtoBuffer,isa 1
    2119                    
    2120                            .dwfde $C$DW$CIE, ESP8266FIFOtoBuffer
    2121                    ;----------------------------------------------------------------------
    2122                    ; 279 | void ESP8266FIFOtoBuffer(void){                                        
    2123                    ; 280 | char letter;                                                           
    2124                    ;----------------------------------------------------------------------
    2125                    
    2126                    ;*****************************************************************************
    2127                    ;* FUNCTION NAME: ESP8266FIFOtoBuffer                                        *
    2128                    ;*                                                                           *
    2129                    ;*   Regs Modified     : A1,A2,A3,A4,V9,SP,LR,SR,D0,D0_hi,D1,D1_hi,D2,D2_hi, *
    2130                    ;*                           D3,D3_hi,D4,D4_hi,D5,D5_hi,D6,D6_hi,D7,D7_hi,   *
    2131                    ;*                           FPEXC,FPSCR                                     *
    2132                    ;*   Regs Used         : A1,A2,A3,A4,V9,SP,LR,SR,D0,D0_hi,D1,D1_hi,D2,D2_hi, *
    2133                    ;*                           D3,D3_hi,D4,D4_hi,D5,D5_hi,D6,D6_hi,D7,D7_hi,   *
    2134                    ;*                           FPEXC,FPSCR                                     *
    2135                    ;*   Local Frame Size  : 0 Args + 4 Auto + 4 Save = 8 byte                   *
    2136                    ;*****************************************************************************
    2137 00000292           ESP8266FIFOtoBuffer:
    2138                    ;* --------------------------------------------------------------------------*
    2139                            .dwcfi  cfa_offset, 0
    2140 00000292 B508              PUSH      {A4, LR}              ; [DPU_3_PIPE]  ; [ORIG 16-BIT INS]
    2141                            .dwcfi  cfa_offset, 8
    2142                            .dwcfi  save_reg_to_mem, 14, -4
    2143                            .dwcfi  save_reg_to_mem, 3, -8
    2144                    $C$DW$92        .dwtag  DW_TAG_variable, DW_AT_name("letter")
    2145                            .dwattr $C$DW$92, DW_AT_TI_symbol_name("letter")
TI ARM Assembler PC v5.2.4 Sat Feb 06 22:51:21 2016

Tools Copyright (c) 1996-2015 Texas Instruments Incorporated
esp8266.asm                                                          PAGE   40

    2146                            .dwattr $C$DW$92, DW_AT_type(*$C$DW$T$6)
    2147                            .dwattr $C$DW$92, DW_AT_location[DW_OP_breg13 0]
    2148                            .dwpsn  file "../esp8266.c",line 281,column 3,is_stmt,isa 1
    2149                    ;----------------------------------------------------------------------
    2150                    ; 281 | while((UART1_FR_R&UART_FR_RXFE) == 0){                                 
    2151                    ;----------------------------------------------------------------------
    2152 00000294 E02F              B         ||$C$L18||            ; [DPU_3_PIPE] |281|  ; [ORIG 16-BIT INS]
    2153                            ; BRANCH OCCURS {||$C$L18||}     ; [] |281| 
    2154                    ;* --------------------------------------------------------------------------*
    2155 00000296           ||$C$L15||:    
    2156                            .dwpsn  file "../esp8266.c",line 282,column 5,is_stmt,isa 1
    2157                    ;----------------------------------------------------------------------
    2158                    ; 282 | letter = UART1_DR_R;        // retrieve char from FIFO                 
    2159                    ;----------------------------------------------------------------------
    2160 00000296 4861              LDR       A1, $C$CON34          ; [DPU_3_PIPE] |282|  ; [ORIG 16-BIT INS]
    2161 00000298 6800              LDR       A1, [A1, #0]          ; [DPU_3_PIPE] |282|  ; [ORIG 16-BIT INS]
    2162 0000029a 0000F88D          STRB      A1, [SP, #0]          ; [DPU_3_PIPE] |282|  ; [KEEP 32-BIT INS]
    2163                            .dwpsn  file "../esp8266.c",line 283,column 5,is_stmt,isa 1
    2164                    ;----------------------------------------------------------------------
    2165                    ; 283 | if(ESP8266_EchoResponse){                                              
    2166                    ;----------------------------------------------------------------------
    2167 0000029e 487A              LDR       A1, $C$CON11          ; [DPU_3_PIPE] |283|  ; [ORIG 16-BIT INS]
    2168 000002a0 7800              LDRB      A1, [A1, #0]          ; [DPU_3_PIPE] |283|  ; [ORIG 16-BIT INS]
    2169 000002a2 B118              CBZ       A1, ||$C$L16||        ; []  ; [ORIG 16-BIT INS]
    2170                            ; BRANCHCC OCCURS {||$C$L16||}   ; [] |283| 
    2171                    ;* --------------------------------------------------------------------------*
    2172                            .dwpsn  file "../esp8266.c",line 284,column 7,is_stmt,isa 1
    2173                    ;----------------------------------------------------------------------
    2174                    ; 284 | UART_OutCharNonBlock(letter); // echo                                  
    2175                    ;----------------------------------------------------------------------
    2176 000002a4 0000F89D          LDRB      A1, [SP, #0]          ; [DPU_3_PIPE] |284|  ; [KEEP 32-BIT INS]
    2177                    $C$DW$93        .dwtag  DW_TAG_TI_branch
    2178                            .dwattr $C$DW$93, DW_AT_low_pc(0x00)
    2179                            .dwattr $C$DW$93, DW_AT_name("UART_OutCharNonBlock")
    2180                            .dwattr $C$DW$93, DW_AT_TI_call
    2181 000002a8 FFFEF7FF!         BL        UART_OutCharNonBlock  ; [DPU_3_PIPE] |284|  ; [KEEP 32-BIT INS]
    2182                            ; CALL OCCURS {UART_OutCharNonBlock }  ; [] |284| 
    2183                    ;* --------------------------------------------------------------------------*
    2184 000002ac           ||$C$L16||:    
    2185                            .dwpsn  file "../esp8266.c",line 286,column 5,is_stmt,isa 1
    2186                    ;----------------------------------------------------------------------
    2187                    ; 286 | if(RXBufferIndex >= BUFFER_SIZE){                                      
    2188                    ;----------------------------------------------------------------------
    2189 000002ac 485C              LDR       A1, $C$CON35          ; [DPU_3_PIPE] |286|  ; [ORIG 16-BIT INS]
    2190 000002ae 6800              LDR       A1, [A1, #0]          ; [DPU_3_PIPE] |286|  ; [ORIG 16-BIT INS]
    2191 000002b0 0A80              LSRS      A1, A1, #10           ; [DPU_3_PIPE] |286|  ; [ORIG 16-BIT INS]
    2192 000002b2 D002              BEQ       ||$C$L17||            ; [DPU_3_PIPE] |286|  ; [ORIG 16-BIT INS]
    2193                            ; BRANCHCC OCCURS {||$C$L17||}   ; [] |286| 
    2194                    ;* --------------------------------------------------------------------------*
    2195                            .dwpsn  file "../esp8266.c",line 287,column 7,is_stmt,isa 1
    2196                    ;----------------------------------------------------------------------
    2197                    ; 287 | RXBufferIndex = 0; // store last BUFFER_SIZE received                  
    2198                    ;----------------------------------------------------------------------
    2199 000002b4 495A              LDR       A2, $C$CON35          ; [DPU_3_PIPE] |287|  ; [ORIG 16-BIT INS]
    2200 000002b6 2000              MOVS      A1, #0                ; [DPU_3_PIPE] |287|  ; [ORIG 16-BIT INS]
TI ARM Assembler PC v5.2.4 Sat Feb 06 22:51:21 2016

Tools Copyright (c) 1996-2015 Texas Instruments Incorporated
esp8266.asm                                                          PAGE   41

    2201 000002b8 6008              STR       A1, [A2, #0]          ; [DPU_3_PIPE] |287|  ; [ORIG 16-BIT INS]
    2202                    ;* --------------------------------------------------------------------------*
    2203 000002ba           ||$C$L17||:    
    2204                            .dwpsn  file "../esp8266.c",line 289,column 5,is_stmt,isa 1
    2205                    ;----------------------------------------------------------------------
    2206                    ; 289 | RXBuffer[RXBufferIndex] = letter; // put char into buffer              
    2207                    ;----------------------------------------------------------------------
    2208 000002ba 4959              LDR       A2, $C$CON35          ; [DPU_3_PIPE] |289|  ; [ORIG 16-BIT INS]
    2209 000002bc 4A59              LDR       A3, $C$CON36          ; [DPU_3_PIPE] |289|  ; [ORIG 16-BIT INS]
    2210 000002be 0000F89D          LDRB      A1, [SP, #0]          ; [DPU_3_PIPE] |289|  ; [KEEP 32-BIT INS]
    2211 000002c2 6809              LDR       A2, [A2, #0]          ; [DPU_3_PIPE] |289|  ; [ORIG 16-BIT INS]
    2212 000002c4 5450              STRB      A1, [A3, +A2]         ; [DPU_3_PIPE] |289|  ; [ORIG 16-BIT INS]
    2213                            .dwpsn  file "../esp8266.c",line 290,column 5,is_stmt,isa 1
    2214                    ;----------------------------------------------------------------------
    2215                    ; 290 | RXBufferIndex++; // increment buffer index                             
    2216                    ;----------------------------------------------------------------------
    2217 000002c6 4956              LDR       A2, $C$CON35          ; [DPU_3_PIPE] |290|  ; [ORIG 16-BIT INS]
    2218 000002c8 6808              LDR       A1, [A2, #0]          ; [DPU_3_PIPE] |290|  ; [ORIG 16-BIT INS]
    2219 000002ca 1C40              ADDS      A1, A1, #1            ; [DPU_3_PIPE] |290|  ; [ORIG 16-BIT INS]
    2220 000002cc 6008              STR       A1, [A2, #0]          ; [DPU_3_PIPE] |290|  ; [ORIG 16-BIT INS]
    2221                            .dwpsn  file "../esp8266.c",line 291,column 5,is_stmt,isa 1
    2222                    ;----------------------------------------------------------------------
    2223                    ; 291 | SearchCheck(letter);               // check for end of command         
    2224                    ;----------------------------------------------------------------------
    2225 000002ce 0000F89D          LDRB      A1, [SP, #0]          ; [DPU_3_PIPE] |291|  ; [KEEP 32-BIT INS]
    2226                    $C$DW$94        .dwtag  DW_TAG_TI_branch
    2227                            .dwattr $C$DW$94, DW_AT_low_pc(0x00)
    2228                            .dwattr $C$DW$94, DW_AT_name("SearchCheck")
    2229                            .dwattr $C$DW$94, DW_AT_TI_call
    2230 000002d2 FEBBF7FF          BL        SearchCheck           ; [DPU_3_PIPE] |291|  ; [KEEP 32-BIT INS]
    2231                            ; CALL OCCURS {SearchCheck }     ; [] |291| 
    2232                            .dwpsn  file "../esp8266.c",line 292,column 5,is_stmt,isa 1
    2233                    ;----------------------------------------------------------------------
    2234                    ; 292 | ServerResponseSearchCheck(letter); // check for server response        
    2235                    ;----------------------------------------------------------------------
    2236 000002d6 0000F89D          LDRB      A1, [SP, #0]          ; [DPU_3_PIPE] |292|  ; [KEEP 32-BIT INS]
    2237                    $C$DW$95        .dwtag  DW_TAG_TI_branch
    2238                            .dwattr $C$DW$95, DW_AT_low_pc(0x00)
    2239                            .dwattr $C$DW$95, DW_AT_name("ServerResponseSearchCheck")
    2240                            .dwattr $C$DW$95, DW_AT_TI_call
    2241 000002da FEEDF7FF          BL        ServerResponseSearchCheck ; [DPU_3_PIPE] |292|  ; [KEEP 32-BIT INS]
    2242                            ; CALL OCCURS {ServerResponseSearchCheck }  ; [] |292| 
    2243                            .dwpsn  file "../esp8266.c",line 293,column 5,is_stmt,isa 1
    2244                    ;----------------------------------------------------------------------
    2245                    ; 293 | if(letter == '\n'){                                                    
    2246                    ;----------------------------------------------------------------------
    2247 000002de 0000F89D          LDRB      A1, [SP, #0]          ; [DPU_3_PIPE] |293|  ; [KEEP 32-BIT INS]
    2248 000002e2 280A              CMP       A1, #10               ; [DPU_3_PIPE] |293|  ; [ORIG 16-BIT INS]
    2249 000002e4 D107              BNE       ||$C$L18||            ; [DPU_3_PIPE] |293|  ; [ORIG 16-BIT INS]
    2250                            ; BRANCHCC OCCURS {||$C$L18||}   ; [] |293| 
    2251                    ;* --------------------------------------------------------------------------*
    2252                            .dwpsn  file "../esp8266.c",line 294,column 7,is_stmt,isa 1
    2253                    ;----------------------------------------------------------------------
    2254                    ; 294 | LastReturnIndex = CurrentReturnIndex;                                  
    2255                    ;----------------------------------------------------------------------
TI ARM Assembler PC v5.2.4 Sat Feb 06 22:51:21 2016

Tools Copyright (c) 1996-2015 Texas Instruments Incorporated
esp8266.asm                                                          PAGE   42

    2256 000002e6 4851              LDR       A1, $C$CON38          ; [DPU_3_PIPE] |294|  ; [ORIG 16-BIT INS]
    2257 000002e8 494F              LDR       A2, $C$CON37          ; [DPU_3_PIPE] |294|  ; [ORIG 16-BIT INS]
    2258 000002ea 6800              LDR       A1, [A1, #0]          ; [DPU_3_PIPE] |294|  ; [ORIG 16-BIT INS]
    2259 000002ec 6008              STR       A1, [A2, #0]          ; [DPU_3_PIPE] |294|  ; [ORIG 16-BIT INS]
    2260                            .dwpsn  file "../esp8266.c",line 295,column 7,is_stmt,isa 1
    2261                    ;----------------------------------------------------------------------
    2262                    ; 295 | CurrentReturnIndex = RXBufferIndex;                                    
    2263                    ;----------------------------------------------------------------------
    2264 000002ee 484C              LDR       A1, $C$CON35          ; [DPU_3_PIPE] |295|  ; [ORIG 16-BIT INS]
    2265 000002f0 494E              LDR       A2, $C$CON38          ; [DPU_3_PIPE] |295|  ; [ORIG 16-BIT INS]
    2266 000002f2 6800              LDR       A1, [A1, #0]          ; [DPU_3_PIPE] |295|  ; [ORIG 16-BIT INS]
    2267 000002f4 6008              STR       A1, [A2, #0]          ; [DPU_3_PIPE] |295|  ; [ORIG 16-BIT INS]
    2268                    ;* --------------------------------------------------------------------------*
    2269                    ;*   BEGIN LOOP ||$C$L18||
    2270                    ;* --------------------------------------------------------------------------*
    2271 000002f6           ||$C$L18||:    
    2272                            .dwpsn  file "../esp8266.c",line 281,column 9,is_stmt,isa 1
    2273 000002f6 4848              LDR       A1, $C$CON33          ; [DPU_3_PIPE] |281|  ; [ORIG 16-BIT INS]
    2274 000002f8 6800              LDR       A1, [A1, #0]          ; [DPU_3_PIPE] |281|  ; [ORIG 16-BIT INS]
    2275 000002fa 0940              LSRS      A1, A1, #5            ; [DPU_3_PIPE] |281|  ; [ORIG 16-BIT INS]
    2276 000002fc D3CB              BCC       ||$C$L15||            ; [DPU_3_PIPE] |281|  ; [ORIG 16-BIT INS]
    2277                            ; BRANCHCC OCCURS {||$C$L15||}   ; [] |281| 
    2278                    ;* --------------------------------------------------------------------------*
    2279                            .dwpsn  file "../esp8266.c",line 298,column 1,is_stmt,isa 1
    2280                    $C$DW$96        .dwtag  DW_TAG_TI_branch
    2281                            .dwattr $C$DW$96, DW_AT_low_pc(0x00)
    2282                            .dwattr $C$DW$96, DW_AT_TI_return
    2283 000002fe BD08              POP       {A4, PC}              ; [DPU_3_PIPE]  ; [ORIG 16-BIT INS]
    2284                            .dwcfi  cfa_offset, 0
    2285                            ; BRANCH OCCURS                  ; [] 
    2286                            .dwattr $C$DW$91, DW_AT_TI_end_file("../esp8266.c")
    2287                            .dwattr $C$DW$91, DW_AT_TI_end_line(0x12a)
    2288                            .dwattr $C$DW$91, DW_AT_TI_end_column(0x01)
    2289                            .dwendentry
    2290                            .dwendtag $C$DW$91
    2291                    
    2292                    ;******************************************************************************
    2293                    ;* CONSTANT TABLE                                                             *
    2294                    ;******************************************************************************
    2295 00000300                   .sect   ".text"
    2296                            .align  4
    2297 00000300 00000000! ||$C$CON1||:    .bits   SearchString,32
    2298 00000304                   .sect   ".text"
    2299                            .clink
    2300                            .thumbfunc ESP8266SendCommand
    2301 00000304                   .thumb
    2302                            .global ESP8266SendCommand
    2303                    
    2304                    $C$DW$97        .dwtag  DW_TAG_subprogram, DW_AT_name("ESP8266SendCommand")
    2305                            .dwattr $C$DW$97, DW_AT_low_pc(ESP8266SendCommand)
    2306                            .dwattr $C$DW$97, DW_AT_high_pc(0x00)
    2307                            .dwattr $C$DW$97, DW_AT_TI_symbol_name("ESP8266SendCommand")
    2308                            .dwattr $C$DW$97, DW_AT_external
    2309                            .dwattr $C$DW$97, DW_AT_TI_begin_file("../esp8266.c")
    2310                            .dwattr $C$DW$97, DW_AT_TI_begin_line(0x132)
TI ARM Assembler PC v5.2.4 Sat Feb 06 22:51:21 2016

Tools Copyright (c) 1996-2015 Texas Instruments Incorporated
esp8266.asm                                                          PAGE   43

    2311                            .dwattr $C$DW$97, DW_AT_TI_begin_column(0x06)
    2312                            .dwattr $C$DW$97, DW_AT_decl_file("../esp8266.c")
    2313                            .dwattr $C$DW$97, DW_AT_decl_line(0x132)
    2314                            .dwattr $C$DW$97, DW_AT_decl_column(0x06)
    2315                            .dwattr $C$DW$97, DW_AT_TI_max_frame_size(0x10)
    2316                            .dwpsn  file "../esp8266.c",line 306,column 49,is_stmt,address ESP8266SendCommand,isa 1
    2317                    
    2318                            .dwfde $C$DW$CIE, ESP8266SendCommand
    2319                    $C$DW$98        .dwtag  DW_TAG_formal_parameter, DW_AT_name("inputString")
    2320                            .dwattr $C$DW$98, DW_AT_TI_symbol_name("inputString")
    2321                            .dwattr $C$DW$98, DW_AT_type(*$C$DW$T$42)
    2322                            .dwattr $C$DW$98, DW_AT_location[DW_OP_reg0]
    2323                    
    2324                    ;*****************************************************************************
    2325                    ;* FUNCTION NAME: ESP8266SendCommand                                         *
    2326                    ;*                                                                           *
    2327                    ;*   Regs Modified     : A1,A2,A3,A4,SP,LR,SR,FPEXC,FPSCR                    *
    2328                    ;*   Regs Used         : A1,A2,A3,A4,SP,LR,SR,FPEXC,FPSCR                    *
    2329                    ;*   Local Frame Size  : 0 Args + 8 Auto + 4 Save = 12 byte                  *
    2330                    ;*****************************************************************************
    2331 00000304           ESP8266SendCommand:
    2332                    ;* --------------------------------------------------------------------------*
    2333                            .dwcfi  cfa_offset, 0
    2334 00000304 B50E              PUSH      {A2, A3, A4, LR}      ; [DPU_3_PIPE]  ; [ORIG 16-BIT INS]
    2335                            .dwcfi  cfa_offset, 16
    2336                            .dwcfi  save_reg_to_mem, 14, -4
    2337                            .dwcfi  save_reg_to_mem, 3, -8
    2338                            .dwcfi  save_reg_to_mem, 2, -12
    2339                            .dwcfi  save_reg_to_mem, 1, -16
    2340                    $C$DW$99        .dwtag  DW_TAG_variable, DW_AT_name("inputString")
    2341                            .dwattr $C$DW$99, DW_AT_TI_symbol_name("inputString")
    2342                            .dwattr $C$DW$99, DW_AT_type(*$C$DW$T$42)
    2343                            .dwattr $C$DW$99, DW_AT_location[DW_OP_breg13 0]
    2344                    $C$DW$100       .dwtag  DW_TAG_variable, DW_AT_name("index")
    2345                            .dwattr $C$DW$100, DW_AT_TI_symbol_name("index")
    2346                            .dwattr $C$DW$100, DW_AT_type(*$C$DW$T$10)
    2347                            .dwattr $C$DW$100, DW_AT_location[DW_OP_breg13 4]
    2348                    ;----------------------------------------------------------------------
    2349                    ; 306 | void ESP8266SendCommand(const char* inputString){                      
    2350                    ;----------------------------------------------------------------------
    2351 00000306 9000              STR       A1, [SP, #0]          ; [DPU_3_PIPE] |306|  ; [ORIG 16-BIT INS]
    2352                            .dwpsn  file "../esp8266.c",line 307,column 13,is_stmt,isa 1
    2353                    ;----------------------------------------------------------------------
    2354                    ; 307 | int index = 0;                                                         
    2355                    ;----------------------------------------------------------------------
    2356 00000308 2000              MOVS      A1, #0                ; [DPU_3_PIPE] |307|  ; [ORIG 16-BIT INS]
    2357 0000030a 9001              STR       A1, [SP, #4]          ; [DPU_3_PIPE] |307|  ; [ORIG 16-BIT INS]
    2358                            .dwpsn  file "../esp8266.c",line 308,column 3,is_stmt,isa 1
    2359                    ;----------------------------------------------------------------------
    2360                    ; 308 | while(inputString[index] != 0){                                        
    2361                    ;----------------------------------------------------------------------
    2362 0000030c E006              B         ||$C$L20||            ; [DPU_3_PIPE] |308|  ; [ORIG 16-BIT INS]
    2363                            ; BRANCH OCCURS {||$C$L20||}     ; [] |308| 
    2364                    ;* --------------------------------------------------------------------------*
    2365 0000030e           ||$C$L19||:    
TI ARM Assembler PC v5.2.4 Sat Feb 06 22:51:21 2016

Tools Copyright (c) 1996-2015 Texas Instruments Incorporated
esp8266.asm                                                          PAGE   44

    2366                            .dwpsn  file "../esp8266.c",line 309,column 5,is_stmt,isa 1
    2367                    ;----------------------------------------------------------------------
    2368                    ; 309 | ESP8266_PrintChar(inputString[index++]);                               
    2369                    ;----------------------------------------------------------------------
    2370 0000030e 9801              LDR       A1, [SP, #4]          ; [DPU_3_PIPE] |309|  ; [ORIG 16-BIT INS]
    2371 00000310 9900              LDR       A2, [SP, #0]          ; [DPU_3_PIPE] |309|  ; [ORIG 16-BIT INS]
    2372 00000312 1C42              ADDS      A3, A1, #1            ; [DPU_3_PIPE] |309|  ; [ORIG 16-BIT INS]
    2373 00000314 9201              STR       A3, [SP, #4]          ; [DPU_3_PIPE] |309|  ; [ORIG 16-BIT INS]
    2374 00000316 5C40              LDRB      A1, [A1, +A2]         ; [DPU_3_PIPE] |309|  ; [ORIG 16-BIT INS]
    2375                    $C$DW$101       .dwtag  DW_TAG_TI_branch
    2376                            .dwattr $C$DW$101, DW_AT_low_pc(0x00)
    2377                            .dwattr $C$DW$101, DW_AT_name("ESP8266_PrintChar")
    2378                            .dwattr $C$DW$101, DW_AT_TI_call
    2379 00000318 FFADF7FF          BL        ESP8266_PrintChar     ; [DPU_3_PIPE] |309|  ; [KEEP 32-BIT INS]
    2380                            ; CALL OCCURS {ESP8266_PrintChar }  ; [] |309| 
    2381                    ;* --------------------------------------------------------------------------*
    2382                    ;*   BEGIN LOOP ||$C$L20||
    2383                    ;* --------------------------------------------------------------------------*
    2384 0000031c           ||$C$L20||:    
    2385                            .dwpsn  file "../esp8266.c",line 308,column 9,is_stmt,isa 1
    2386 0000031c 9800              LDR       A1, [SP, #0]          ; [DPU_3_PIPE] |308|  ; [ORIG 16-BIT INS]
    2387 0000031e 9901              LDR       A2, [SP, #4]          ; [DPU_3_PIPE] |308|  ; [ORIG 16-BIT INS]
    2388 00000320 5C08              LDRB      A1, [A2, +A1]         ; [DPU_3_PIPE] |308|  ; [ORIG 16-BIT INS]
    2389 00000322 2800              CMP       A1, #0                ; [DPU_3_PIPE] |308|  ; [ORIG 16-BIT INS]
    2390 00000324 D1F3              BNE       ||$C$L19||            ; [DPU_3_PIPE] |308|  ; [ORIG 16-BIT INS]
    2391                            ; BRANCHCC OCCURS {||$C$L19||}   ; [] |308| 
    2392                    ;* --------------------------------------------------------------------------*
    2393                            .dwpsn  file "../esp8266.c",line 311,column 1,is_stmt,isa 1
    2394                    $C$DW$102       .dwtag  DW_TAG_TI_branch
    2395                            .dwattr $C$DW$102, DW_AT_low_pc(0x00)
    2396                            .dwattr $C$DW$102, DW_AT_TI_return
    2397 00000326 BD0E              POP       {A2, A3, A4, PC}      ; [DPU_3_PIPE]  ; [ORIG 16-BIT INS]
    2398                            .dwcfi  cfa_offset, 0
    2399                            ; BRANCH OCCURS                  ; [] 
    2400                            .dwattr $C$DW$97, DW_AT_TI_end_file("../esp8266.c")
    2401                            .dwattr $C$DW$97, DW_AT_TI_end_line(0x137)
    2402                            .dwattr $C$DW$97, DW_AT_TI_end_column(0x01)
    2403                            .dwendentry
    2404                            .dwendtag $C$DW$97
    2405                    
    2406                    ;******************************************************************************
    2407                    ;* CONSTANT TABLE                                                             *
    2408                    ;******************************************************************************
    2409 00000328                   .sect   ".text"
    2410                            .align  4
    2411 00000328 00000000! ||$C$CON2||:    .bits   SearchIndex,32
    2412                            .align  4
    2413 0000032c 00000000! ||$C$CON3||:    .bits   SearchFound,32
    2414                            .align  4
    2415 00000330 00000000! ||$C$CON4||:    .bits   SearchLooking,32
    2416 00000334                   .sect   ".text"
    2417                            .clink
    2418                            .thumbfunc DelayMs
    2419 00000334                   .thumb
    2420                            .global DelayMs
TI ARM Assembler PC v5.2.4 Sat Feb 06 22:51:21 2016

Tools Copyright (c) 1996-2015 Texas Instruments Incorporated
esp8266.asm                                                          PAGE   45

    2421                    
    2422                    $C$DW$103       .dwtag  DW_TAG_subprogram, DW_AT_name("DelayMs")
    2423                            .dwattr $C$DW$103, DW_AT_low_pc(DelayMs)
    2424                            .dwattr $C$DW$103, DW_AT_high_pc(0x00)
    2425                            .dwattr $C$DW$103, DW_AT_TI_symbol_name("DelayMs")
    2426                            .dwattr $C$DW$103, DW_AT_external
    2427                            .dwattr $C$DW$103, DW_AT_TI_begin_file("../esp8266.c")
    2428                            .dwattr $C$DW$103, DW_AT_TI_begin_line(0x13d)
    2429                            .dwattr $C$DW$103, DW_AT_TI_begin_column(0x06)
    2430                            .dwattr $C$DW$103, DW_AT_decl_file("../esp8266.c")
    2431                            .dwattr $C$DW$103, DW_AT_decl_line(0x13d)
    2432                            .dwattr $C$DW$103, DW_AT_decl_column(0x06)
    2433                            .dwattr $C$DW$103, DW_AT_TI_max_frame_size(0x08)
    2434                            .dwpsn  file "../esp8266.c",line 317,column 25,is_stmt,address DelayMs,isa 1
    2435                    
    2436                            .dwfde $C$DW$CIE, DelayMs
    2437                    $C$DW$104       .dwtag  DW_TAG_formal_parameter, DW_AT_name("n")
    2438                            .dwattr $C$DW$104, DW_AT_TI_symbol_name("n")
    2439                            .dwattr $C$DW$104, DW_AT_type(*$C$DW$T$38)
    2440                            .dwattr $C$DW$104, DW_AT_location[DW_OP_reg0]
    2441                    
    2442                    ;*****************************************************************************
    2443                    ;* FUNCTION NAME: DelayMs                                                    *
    2444                    ;*                                                                           *
    2445                    ;*   Regs Modified     : A1,SP,SR                                            *
    2446                    ;*   Regs Used         : A1,SP,LR,SR                                         *
    2447                    ;*   Local Frame Size  : 0 Args + 8 Auto + 0 Save = 8 byte                   *
    2448                    ;*****************************************************************************
    2449 00000334           DelayMs:
    2450                    ;* --------------------------------------------------------------------------*
    2451                            .dwcfi  cfa_offset, 0
    2452 00000334 0D08F1AD          SUB       SP, SP, #8            ; [DPU_3_PIPE]  ; [KEEP 32-BIT INS]
    2453                            .dwcfi  cfa_offset, 8
    2454                    $C$DW$105       .dwtag  DW_TAG_variable, DW_AT_name("n")
    2455                            .dwattr $C$DW$105, DW_AT_TI_symbol_name("n")
    2456                            .dwattr $C$DW$105, DW_AT_type(*$C$DW$T$38)
    2457                            .dwattr $C$DW$105, DW_AT_location[DW_OP_breg13 0]
    2458                    $C$DW$106       .dwtag  DW_TAG_variable, DW_AT_name("time")
    2459                            .dwattr $C$DW$106, DW_AT_TI_symbol_name("time")
    2460                            .dwattr $C$DW$106, DW_AT_type(*$C$DW$T$88)
    2461                            .dwattr $C$DW$106, DW_AT_location[DW_OP_breg13 4]
    2462                    ;----------------------------------------------------------------------
    2463                    ; 317 | void DelayMs(uint32_t n){                                              
    2464                    ; 318 | volatile uint32_t time;                                                
    2465                    ;----------------------------------------------------------------------
    2466 00000338 9000              STR       A1, [SP, #0]          ; [DPU_3_PIPE] |317|  ; [ORIG 16-BIT INS]
    2467                            .dwpsn  file "../esp8266.c",line 319,column 3,is_stmt,isa 1
    2468                    ;----------------------------------------------------------------------
    2469                    ; 319 | while(n){                                                              
    2470                    ;----------------------------------------------------------------------
    2471 0000033a 9800              LDR       A1, [SP, #0]          ; [DPU_3_PIPE] |319|  ; [ORIG 16-BIT INS]
    2472 0000033c B180              CBZ       A1, ||$C$L24||        ; []  ; [ORIG 16-BIT INS]
    2473                            ; BRANCHCC OCCURS {||$C$L24||}   ; [] |319| 
    2474                    ;* --------------------------------------------------------------------------*
    2475                    ;*   BEGIN LOOP ||$C$L21||
TI ARM Assembler PC v5.2.4 Sat Feb 06 22:51:21 2016

Tools Copyright (c) 1996-2015 Texas Instruments Incorporated
esp8266.asm                                                          PAGE   46

    2476                    ;*
    2477                    ;*   Loop source line                : 319
    2478                    ;*   Loop closing brace source line  : 325
    2479                    ;*   Known Minimum Trip Count        : 1
    2480                    ;*   Known Maximum Trip Count        : 4294967295
    2481                    ;*   Known Max Trip Count Factor     : 1
    2482                    ;* --------------------------------------------------------------------------*
    2483 0000033e           ||$C$L21||:    
    2484                            .dwpsn  file "../esp8266.c",line 320,column 5,is_stmt,isa 1
    2485                    ;----------------------------------------------------------------------
    2486                    ; 320 | time = 6665;  // 1msec, tuned at 80 MHz                                
    2487                    ;----------------------------------------------------------------------
    2488 0000033e 2009F641          MOV       A1, #6665             ; [DPU_3_PIPE] |320|  ; [KEEP 32-BIT INS]
    2489 00000342 9001              STR       A1, [SP, #4]          ; [DPU_3_PIPE] |320|  ; [ORIG 16-BIT INS]
    2490                            .dwpsn  file "../esp8266.c",line 321,column 5,is_stmt,isa 1
    2491                    ;----------------------------------------------------------------------
    2492                    ; 321 | while(time){                                                           
    2493                    ;----------------------------------------------------------------------
    2494 00000344 9801              LDR       A1, [SP, #4]          ; [DPU_3_PIPE] |321|  ; [ORIG 16-BIT INS]
    2495 00000346 B128              CBZ       A1, ||$C$L23||        ; []  ; [ORIG 16-BIT INS]
    2496                            ; BRANCHCC OCCURS {||$C$L23||}   ; [] |321| 
    2497                    ;* --------------------------------------------------------------------------*
    2498                    ;*   BEGIN LOOP ||$C$L22||
    2499                    ;*
    2500                    ;*   Loop source line                : 321
    2501                    ;*   Loop closing brace source line  : 323
    2502                    ;*   Known Minimum Trip Count        : 1
    2503                    ;*   Known Maximum Trip Count        : 4294967295
    2504                    ;*   Known Max Trip Count Factor     : 1
    2505                    ;* --------------------------------------------------------------------------*
    2506 00000348           ||$C$L22||:    
    2507                            .dwpsn  file "../esp8266.c",line 322,column 7,is_stmt,isa 1
    2508                    ;----------------------------------------------------------------------
    2509                    ; 322 | time--;                                                                
    2510                    ;----------------------------------------------------------------------
    2511 00000348 9801              LDR       A1, [SP, #4]          ; [DPU_3_PIPE] |322|  ; [ORIG 16-BIT INS]
    2512 0000034a 1E40              SUBS      A1, A1, #1            ; [DPU_3_PIPE] |322|  ; [ORIG 16-BIT INS]
    2513 0000034c 9001              STR       A1, [SP, #4]          ; [DPU_3_PIPE] |322|  ; [ORIG 16-BIT INS]
    2514                            .dwpsn  file "../esp8266.c",line 321,column 5,is_stmt,isa 1
    2515 0000034e 9801              LDR       A1, [SP, #4]          ; [DPU_3_PIPE] |321|  ; [ORIG 16-BIT INS]
    2516 00000350 2800              CMP       A1, #0                ; [DPU_3_PIPE] |321|  ; [ORIG 16-BIT INS]
    2517 00000352 D1F9              BNE       ||$C$L22||            ; [DPU_3_PIPE] |321|  ; [ORIG 16-BIT INS]
    2518                            ; BRANCHCC OCCURS {||$C$L22||}   ; [] |321| 
    2519                    ;* --------------------------------------------------------------------------*
    2520 00000354           ||$C$L23||:    
    2521                            .dwpsn  file "../esp8266.c",line 324,column 5,is_stmt,isa 1
    2522                    ;----------------------------------------------------------------------
    2523                    ; 324 | n--;                                                                   
    2524                    ;----------------------------------------------------------------------
    2525 00000354 9800              LDR       A1, [SP, #0]          ; [DPU_3_PIPE] |324|  ; [ORIG 16-BIT INS]
    2526 00000356 1E40              SUBS      A1, A1, #1            ; [DPU_3_PIPE] |324|  ; [ORIG 16-BIT INS]
    2527 00000358 9000              STR       A1, [SP, #0]          ; [DPU_3_PIPE] |324|  ; [ORIG 16-BIT INS]
    2528                            .dwpsn  file "../esp8266.c",line 319,column 3,is_stmt,isa 1
    2529 0000035a 9800              LDR       A1, [SP, #0]          ; [DPU_3_PIPE] |319|  ; [ORIG 16-BIT INS]
    2530 0000035c 2800              CMP       A1, #0                ; [DPU_3_PIPE] |319|  ; [ORIG 16-BIT INS]
TI ARM Assembler PC v5.2.4 Sat Feb 06 22:51:21 2016

Tools Copyright (c) 1996-2015 Texas Instruments Incorporated
esp8266.asm                                                          PAGE   47

    2531 0000035e D1EE              BNE       ||$C$L21||            ; [DPU_3_PIPE] |319|  ; [ORIG 16-BIT INS]
    2532                            ; BRANCHCC OCCURS {||$C$L21||}   ; [] |319| 
    2533                    ;* --------------------------------------------------------------------------*
    2534                            .dwpsn  file "../esp8266.c",line 326,column 1,is_stmt,isa 1
    2535                    ;* --------------------------------------------------------------------------*
    2536 00000360           ||$C$L24||:    
    2537 00000360 B002              ADD       SP, SP, #8            ; [DPU_3_PIPE]  ; [ORIG 16-BIT INS]
    2538                            .dwcfi  cfa_offset, 0
    2539                    $C$DW$107       .dwtag  DW_TAG_TI_branch
    2540                            .dwattr $C$DW$107, DW_AT_low_pc(0x00)
    2541                            .dwattr $C$DW$107, DW_AT_TI_return
    2542 00000362 4770              BX        LR                    ; [DPU_3_PIPE]  ; [ORIG 16-BIT INS]
    2543                            ; BRANCH OCCURS                  ; [] 
    2544                            .dwattr $C$DW$103, DW_AT_TI_end_file("../esp8266.c")
    2545                            .dwattr $C$DW$103, DW_AT_TI_end_line(0x146)
    2546                            .dwattr $C$DW$103, DW_AT_TI_end_column(0x01)
    2547                            .dwendentry
    2548                            .dwendtag $C$DW$103
    2549                    
    2550                    ;******************************************************************************
    2551                    ;* STRINGS                                                                    *
    2552                    ;******************************************************************************
    2553 00000364                   .sect   ".text"
    2554                            .align  4
    2555 00000364 2B        ||$C$SL1||:     .string "+ipd,",0
         00000365 69       
         00000366 70       
         00000367 64       
         00000368 2C       
         00000369 00       
    2556                    ;******************************************************************************
    2557                    ;* CONSTANT TABLE                                                             *
    2558                    ;******************************************************************************
    2559 0000036a                   .sect   ".text"
    2560                            .align  4
    2561 0000036c 00000000! ||$C$CON5||:    .bits   ServerResponseSearchString,32
    2562                            .align  4
    2563 00000370 00000000! ||$C$CON6||:    .bits   ServerResponseSearchIndex,32
    2564                            .align  4
    2565 00000374 00000000! ||$C$CON7||:    .bits   ServerResponseSearchLooking,32
    2566                            .align  4
    2567 00000378 00000000! ||$C$CON8||:    .bits   ServerResponseSearchFinished,32
    2568                            .align  4
    2569 0000037c 00000000! ||$C$CON9||:    .bits   ServerResponseIndex,32
    2570 00000380                   .sect   ".text"
    2571                            .clink
    2572                            .thumbfunc DelayMsSearching
    2573 00000380                   .thumb
    2574                            .global DelayMsSearching
    2575                    
    2576                    $C$DW$108       .dwtag  DW_TAG_subprogram, DW_AT_name("DelayMsSearching")
    2577                            .dwattr $C$DW$108, DW_AT_low_pc(DelayMsSearching)
    2578                            .dwattr $C$DW$108, DW_AT_high_pc(0x00)
    2579                            .dwattr $C$DW$108, DW_AT_TI_symbol_name("DelayMsSearching")
    2580                            .dwattr $C$DW$108, DW_AT_external
TI ARM Assembler PC v5.2.4 Sat Feb 06 22:51:21 2016

Tools Copyright (c) 1996-2015 Texas Instruments Incorporated
esp8266.asm                                                          PAGE   48

    2581                            .dwattr $C$DW$108, DW_AT_TI_begin_file("../esp8266.c")
    2582                            .dwattr $C$DW$108, DW_AT_TI_begin_line(0x147)
    2583                            .dwattr $C$DW$108, DW_AT_TI_begin_column(0x06)
    2584                            .dwattr $C$DW$108, DW_AT_decl_file("../esp8266.c")
    2585                            .dwattr $C$DW$108, DW_AT_decl_line(0x147)
    2586                            .dwattr $C$DW$108, DW_AT_decl_column(0x06)
    2587                            .dwattr $C$DW$108, DW_AT_TI_max_frame_size(0x08)
    2588                            .dwpsn  file "../esp8266.c",line 327,column 34,is_stmt,address DelayMsSearching,isa 1
    2589                    
    2590                            .dwfde $C$DW$CIE, DelayMsSearching
    2591                    $C$DW$109       .dwtag  DW_TAG_formal_parameter, DW_AT_name("n")
    2592                            .dwattr $C$DW$109, DW_AT_TI_symbol_name("n")
    2593                            .dwattr $C$DW$109, DW_AT_type(*$C$DW$T$38)
    2594                            .dwattr $C$DW$109, DW_AT_location[DW_OP_reg0]
    2595                    
    2596                    ;*****************************************************************************
    2597                    ;* FUNCTION NAME: DelayMsSearching                                           *
    2598                    ;*                                                                           *
    2599                    ;*   Regs Modified     : A1,SP,SR                                            *
    2600                    ;*   Regs Used         : A1,SP,LR,SR                                         *
    2601                    ;*   Local Frame Size  : 0 Args + 8 Auto + 0 Save = 8 byte                   *
    2602                    ;*****************************************************************************
    2603 00000380           DelayMsSearching:
    2604                    ;* --------------------------------------------------------------------------*
    2605                            .dwcfi  cfa_offset, 0
    2606 00000380 0D08F1AD          SUB       SP, SP, #8            ; [DPU_3_PIPE]  ; [KEEP 32-BIT INS]
    2607                            .dwcfi  cfa_offset, 8
    2608                    $C$DW$110       .dwtag  DW_TAG_variable, DW_AT_name("n")
    2609                            .dwattr $C$DW$110, DW_AT_TI_symbol_name("n")
    2610                            .dwattr $C$DW$110, DW_AT_type(*$C$DW$T$38)
    2611                            .dwattr $C$DW$110, DW_AT_location[DW_OP_breg13 0]
    2612                    $C$DW$111       .dwtag  DW_TAG_variable, DW_AT_name("time")
    2613                            .dwattr $C$DW$111, DW_AT_TI_symbol_name("time")
    2614                            .dwattr $C$DW$111, DW_AT_type(*$C$DW$T$88)
    2615                            .dwattr $C$DW$111, DW_AT_location[DW_OP_breg13 4]
    2616                    ;----------------------------------------------------------------------
    2617                    ; 327 | void DelayMsSearching(uint32_t n){                                     
    2618                    ; 328 | volatile uint32_t time;                                                
    2619                    ;----------------------------------------------------------------------
    2620 00000384 9000              STR       A1, [SP, #0]          ; [DPU_3_PIPE] |327|  ; [ORIG 16-BIT INS]
    2621                            .dwpsn  file "../esp8266.c",line 329,column 3,is_stmt,isa 1
    2622                    ;----------------------------------------------------------------------
    2623                    ; 329 | while(n){                                                              
    2624                    ;----------------------------------------------------------------------
    2625 00000386 9800              LDR       A1, [SP, #0]          ; [DPU_3_PIPE] |329|  ; [ORIG 16-BIT INS]
    2626 00000388 B198              CBZ       A1, ||$C$L28||        ; []  ; [ORIG 16-BIT INS]
    2627                            ; BRANCHCC OCCURS {||$C$L28||}   ; [] |329| 
    2628                    ;* --------------------------------------------------------------------------*
    2629                    ;*   BEGIN LOOP ||$C$L25||
    2630                    ;*
    2631                    ;*   Loop source line                : 329
    2632                    ;*   Loop closing brace source line  : 336
    2633                    ;*   Known Minimum Trip Count        : 1
    2634                    ;*   Known Maximum Trip Count        : 4294967295
    2635                    ;*   Known Max Trip Count Factor     : 1
TI ARM Assembler PC v5.2.4 Sat Feb 06 22:51:21 2016

Tools Copyright (c) 1996-2015 Texas Instruments Incorporated
esp8266.asm                                                          PAGE   49

    2636                    ;* --------------------------------------------------------------------------*
    2637 0000038a           ||$C$L25||:    
    2638                            .dwpsn  file "../esp8266.c",line 330,column 5,is_stmt,isa 1
    2639                    ;----------------------------------------------------------------------
    2640                    ; 330 | time = 4065;  // 1msec, tuned at 80 MHz                                
    2641                    ;----------------------------------------------------------------------
    2642 0000038a 70E1F640          MOV       A1, #4065             ; [DPU_3_PIPE] |330|  ; [KEEP 32-BIT INS]
    2643 0000038e 9001              STR       A1, [SP, #4]          ; [DPU_3_PIPE] |330|  ; [ORIG 16-BIT INS]
    2644                            .dwpsn  file "../esp8266.c",line 331,column 5,is_stmt,isa 1
    2645                    ;----------------------------------------------------------------------
    2646                    ; 331 | while(time){                                                           
    2647                    ;----------------------------------------------------------------------
    2648 00000390 9801              LDR       A1, [SP, #4]          ; [DPU_3_PIPE] |331|  ; [ORIG 16-BIT INS]
    2649 00000392 B140              CBZ       A1, ||$C$L27||        ; []  ; [ORIG 16-BIT INS]
    2650                            ; BRANCHCC OCCURS {||$C$L27||}   ; [] |331| 
    2651                    ;* --------------------------------------------------------------------------*
    2652                    ;*   BEGIN LOOP ||$C$L26||
    2653                    ;*
    2654                    ;*   Loop source line                : 331
    2655                    ;*   Loop closing brace source line  : 334
    2656                    ;*   Known Minimum Trip Count        : 1
    2657                    ;*   Known Maximum Trip Count        : 4294967295
    2658                    ;*   Known Max Trip Count Factor     : 1
    2659                    ;* --------------------------------------------------------------------------*
    2660 00000394           ||$C$L26||:    
    2661                            .dwpsn  file "../esp8266.c",line 332,column 7,is_stmt,isa 1
    2662                    ;----------------------------------------------------------------------
    2663                    ; 332 | time--;                                                                
    2664                    ;----------------------------------------------------------------------
    2665 00000394 9801              LDR       A1, [SP, #4]          ; [DPU_3_PIPE] |332|  ; [ORIG 16-BIT INS]
    2666 00000396 1E40              SUBS      A1, A1, #1            ; [DPU_3_PIPE] |332|  ; [ORIG 16-BIT INS]
    2667 00000398 9001              STR       A1, [SP, #4]          ; [DPU_3_PIPE] |332|  ; [ORIG 16-BIT INS]
    2668                            .dwpsn  file "../esp8266.c",line 333,column 7,is_stmt,isa 1
    2669                    ;----------------------------------------------------------------------
    2670                    ; 333 | if(SearchFound) return;                                                
    2671                    ;----------------------------------------------------------------------
    2672 0000039a 4877              LDR       A1, $C$CON39          ; [DPU_3_PIPE] |333|  ; [ORIG 16-BIT INS]
    2673 0000039c 7800              LDRB      A1, [A1, #0]          ; [DPU_3_PIPE] |333|  ; [ORIG 16-BIT INS]
    2674 0000039e B940              CBNZ      A1, ||$C$L28||        ; []  ; [ORIG 16-BIT INS]
    2675                            ; BRANCHCC OCCURS {||$C$L28||}   ; [] |333| 
    2676                    ;* --------------------------------------------------------------------------*
    2677                            .dwpsn  file "../esp8266.c",line 333,column 23,is_stmt,isa 1
    2678                            .dwpsn  file "../esp8266.c",line 331,column 5,is_stmt,isa 1
    2679 000003a0 9801              LDR       A1, [SP, #4]          ; [DPU_3_PIPE] |331|  ; [ORIG 16-BIT INS]
    2680 000003a2 2800              CMP       A1, #0                ; [DPU_3_PIPE] |331|  ; [ORIG 16-BIT INS]
    2681 000003a4 D1F6              BNE       ||$C$L26||            ; [DPU_3_PIPE] |331|  ; [ORIG 16-BIT INS]
    2682                            ; BRANCHCC OCCURS {||$C$L26||}   ; [] |331| 
    2683                    ;* --------------------------------------------------------------------------*
    2684 000003a6           ||$C$L27||:    
    2685                            .dwpsn  file "../esp8266.c",line 335,column 5,is_stmt,isa 1
    2686                    ;----------------------------------------------------------------------
    2687                    ; 335 | n--;                                                                   
    2688                    ;----------------------------------------------------------------------
    2689 000003a6 9800              LDR       A1, [SP, #0]          ; [DPU_3_PIPE] |335|  ; [ORIG 16-BIT INS]
    2690 000003a8 1E40              SUBS      A1, A1, #1            ; [DPU_3_PIPE] |335|  ; [ORIG 16-BIT INS]
TI ARM Assembler PC v5.2.4 Sat Feb 06 22:51:21 2016

Tools Copyright (c) 1996-2015 Texas Instruments Incorporated
esp8266.asm                                                          PAGE   50

    2691 000003aa 9000              STR       A1, [SP, #0]          ; [DPU_3_PIPE] |335|  ; [ORIG 16-BIT INS]
    2692                            .dwpsn  file "../esp8266.c",line 329,column 3,is_stmt,isa 1
    2693 000003ac 9800              LDR       A1, [SP, #0]          ; [DPU_3_PIPE] |329|  ; [ORIG 16-BIT INS]
    2694 000003ae 2800              CMP       A1, #0                ; [DPU_3_PIPE] |329|  ; [ORIG 16-BIT INS]
    2695 000003b0 D1EB              BNE       ||$C$L25||            ; [DPU_3_PIPE] |329|  ; [ORIG 16-BIT INS]
    2696                            ; BRANCHCC OCCURS {||$C$L25||}   ; [] |329| 
    2697                    ;* --------------------------------------------------------------------------*
    2698                            .dwpsn  file "../esp8266.c",line 337,column 1,is_stmt,isa 1
    2699                    ;* --------------------------------------------------------------------------*
    2700 000003b2           ||$C$L28||:    
    2701 000003b2 B002              ADD       SP, SP, #8            ; [DPU_3_PIPE]  ; [ORIG 16-BIT INS]
    2702                            .dwcfi  cfa_offset, 0
    2703                    $C$DW$112       .dwtag  DW_TAG_TI_branch
    2704                            .dwattr $C$DW$112, DW_AT_low_pc(0x00)
    2705                            .dwattr $C$DW$112, DW_AT_TI_return
    2706 000003b4 4770              BX        LR                    ; [DPU_3_PIPE]  ; [ORIG 16-BIT INS]
    2707                            ; BRANCH OCCURS                  ; [] 
    2708                            .dwattr $C$DW$108, DW_AT_TI_end_file("../esp8266.c")
    2709                            .dwattr $C$DW$108, DW_AT_TI_end_line(0x151)
    2710                            .dwattr $C$DW$108, DW_AT_TI_end_column(0x01)
    2711                            .dwendentry
    2712                            .dwendtag $C$DW$108
    2713                    
    2714                    ;******************************************************************************
    2715                    ;* STRINGS                                                                    *
    2716                    ;******************************************************************************
    2717 000003b6                   .sect   ".text"
    2718                            .align  4
    2719 000003b8 0D        ||$C$SL2||:     .string 13,10,"ok",13,10,0
         000003b9 0A       
         000003ba 6F       
         000003bb 6B       
         000003bc 0D       
         000003bd 0A       
         000003be 00       
    2720                    ;******************************************************************************
    2721                    ;* CONSTANT TABLE                                                             *
    2722                    ;******************************************************************************
    2723 000003bf                   .sect   ".text"
    2724                            .align  4
    2725 000003be 0000C000! ||$C$CON10||:   .bits   ServerResponseBuffer,32
         000003c2 00000000 
    2726                            .align  4
    2727 000003c2 E6180000  ||$C$CON12||:   .bits   1074783768,32
         000003c6 0000400F 
    2728                            .align  4
    2729 000003c6 EA18400F  ||$C$CON13||:   .bits   1074784792,32
         000003ca 0000400F 
    2730                            .align  4
    2731 000003ca E608400F  ||$C$CON14||:   .bits   1074783752,32
         000003ce 0000400F 
    2732                            .align  4
    2733 000003ce EA08400F  ||$C$CON15||:   .bits   1074784776,32
         000003d2 0000400F 
    2734                            .align  4
TI ARM Assembler PC v5.2.4 Sat Feb 06 22:51:21 2016

Tools Copyright (c) 1996-2015 Texas Instruments Incorporated
esp8266.asm                                                          PAGE   51

    2735 000003d2 5420400F  ||$C$CON16||:   .bits   1073763360,32
         000003d6 00004000 
    2736                            .align  4
    2737 000003d6 54004000  ||$C$CON17||:   .bits   1073763328,32
         000003da 00004000 
    2738                            .align  4
    2739 000003da 552C4000  ||$C$CON18||:   .bits   1073763628,32
         000003de 00004000 
    2740                            .align  4
    2741 000003de FF004000  ||$C$CON19||:   .bits   -15728896,32
         000003e2 0000FF0F 
    2742                            .align  4
    2743 000003e2 551CFF0F  ||$C$CON20||:   .bits   1073763612,32
         000003e6 00004000 
    2744                            .align  4
    2745 000003e6 53FC4000  ||$C$CON21||:   .bits   1073763324,32
         000003ea 00004000 
    2746                            .align  4
    2747 000003ea D0304000  ||$C$CON22||:   .bits   1073795120,32
         000003ee 00004000 
    2748                            .align  4
    2749 000003ee D0244000  ||$C$CON23||:   .bits   1073795108,32
         000003f2 00004000 
    2750                            .align  4
    2751 000003f2 4B404000  ||$C$CON24||:   .bits   5000000,32
         000003f6 0000004C 
    2752                            .align  4
    2753 000003f6 D028004C  ||$C$CON25||:   .bits   1073795112,32
         000003fa 00004000 
    2754                            .align  4
    2755 000003fa D02C4000  ||$C$CON26||:   .bits   1073795116,32
         000003fe 00004000 
    2756                            .align  4
    2757 000003fe D0344000  ||$C$CON27||:   .bits   1073795124,32
         00000402 00004000 
    2758                            .align  4
    2759 00000402 D0384000  ||$C$CON28||:   .bits   1073795128,32
         00000406 00004000 
    2760                            .align  4
    2761 00000406 D03C4000  ||$C$CON29||:   .bits   1073795132,32
         0000040a 00004000 
    2762                            .align  4
    2763 0000040a D0444000  ||$C$CON30||:   .bits   1073795140,32
         0000040e 00004000 
    2764                            .align  4
    2765 0000040e E1004000  ||$C$CON31||:   .bits   -536813312,32
         00000412 0000E000 
    2766                            .align  4
    2767 00000412 E180E000  ||$C$CON32||:   .bits   -536813184,32
         00000416 0000E000 
    2768                            .align  4
    2769 00000416 D018E000  ||$C$CON33||:   .bits   1073795096,32
         0000041a 00004000 
    2770                            .align  4
    2771 0000041a D0004000  ||$C$CON34||:   .bits   1073795072,32
TI ARM Assembler PC v5.2.4 Sat Feb 06 22:51:21 2016

Tools Copyright (c) 1996-2015 Texas Instruments Incorporated
esp8266.asm                                                          PAGE   52

         0000041e 00004000 
