TI ARM Assembler PC v5.2.4 Sat Feb 06 22:51:21 2016

Tools Copyright (c) 1996-2015 Texas Instruments Incorporated
esp8266.asm                                                          PAGE    1

       1                    ;******************************************************************************
       2                    ;* TI ARM C/C++ Codegen                                             PC v5.2.4 *
       3                    ;* Date/Time created: Sat Feb 06 22:51:21 2016                                *
       4                    ;******************************************************************************
       5                            .compiler_opts --abi=eabi --arm_vmrs_si_workaround=off --code_state=16 --diag_wrap=off --disab
       6 00000000                   .thumb
       7                    
       8                    $C$DW$CU        .dwtag  DW_TAG_compile_unit
       9                            .dwattr $C$DW$CU, DW_AT_name("../esp8266.c")
      10                            .dwattr $C$DW$CU, DW_AT_producer("TI TI ARM C/C++ Codegen PC v5.2.4 Copyright (c) 1996-2015 Te
      11                            .dwattr $C$DW$CU, DW_AT_TI_version(0x01)
      12                            .dwattr $C$DW$CU, DW_AT_comp_dir("C:\Dropbox\ArmBook\LaunchPad\ValvanoWareTM4C123\ESP8266_4C12
      13                    
      14                    $C$DW$1 .dwtag  DW_TAG_subprogram, DW_AT_name("__builtin_strlen")
      15                            .dwattr $C$DW$1, DW_AT_TI_symbol_name("__builtin_strlen")
      16                            .dwattr $C$DW$1, DW_AT_type(*$C$DW$T$11)
      17                            .dwattr $C$DW$1, DW_AT_declaration
      18                            .dwattr $C$DW$1, DW_AT_external
      19                    $C$DW$2 .dwtag  DW_TAG_formal_parameter
      20                            .dwattr $C$DW$2, DW_AT_type(*$C$DW$T$42)
      21                            .dwendtag $C$DW$1
      22                    
      23                    
      24                    $C$DW$3 .dwtag  DW_TAG_subprogram, DW_AT_name("printf")
      25                            .dwattr $C$DW$3, DW_AT_TI_symbol_name("printf")
      26                            .dwattr $C$DW$3, DW_AT_type(*$C$DW$T$10)
      27                            .dwattr $C$DW$3, DW_AT_declaration
      28                            .dwattr $C$DW$3, DW_AT_external
      29                            .dwattr $C$DW$3, DW_AT_decl_file("C:/ti/ccsv6/tools/compiler/ti-cgt-arm_5.2.4/include/stdio.h"
      30                            .dwattr $C$DW$3, DW_AT_decl_line(0xf5)
      31                            .dwattr $C$DW$3, DW_AT_decl_column(0x19)
      32                    $C$DW$4 .dwtag  DW_TAG_formal_parameter
      33                            .dwattr $C$DW$4, DW_AT_type(*$C$DW$T$42)
      34                    $C$DW$5 .dwtag  DW_TAG_unspecified_parameters
      35                            .dwendtag $C$DW$3
      36                    
      37                    
      38                    $C$DW$6 .dwtag  DW_TAG_subprogram, DW_AT_name("sprintf")
      39                            .dwattr $C$DW$6, DW_AT_TI_symbol_name("sprintf")
      40                            .dwattr $C$DW$6, DW_AT_type(*$C$DW$T$10)
      41                            .dwattr $C$DW$6, DW_AT_declaration
      42                            .dwattr $C$DW$6, DW_AT_external
      43                            .dwattr $C$DW$6, DW_AT_decl_file("C:/ti/ccsv6/tools/compiler/ti-cgt-arm_5.2.4/include/stdio.h"
      44                            .dwattr $C$DW$6, DW_AT_decl_line(0xf9)
      45                            .dwattr $C$DW$6, DW_AT_decl_column(0x19)
      46                    $C$DW$7 .dwtag  DW_TAG_formal_parameter
      47                            .dwattr $C$DW$7, DW_AT_type(*$C$DW$T$35)
      48                    $C$DW$8 .dwtag  DW_TAG_formal_parameter
      49                            .dwattr $C$DW$8, DW_AT_type(*$C$DW$T$42)
      50                    $C$DW$9 .dwtag  DW_TAG_unspecified_parameters
      51                            .dwendtag $C$DW$6
      52                    
      53                    
      54                    $C$DW$10        .dwtag  DW_TAG_subprogram, DW_AT_name("strlen")
      55                            .dwattr $C$DW$10, DW_AT_TI_symbol_name("strlen")
TI ARM Assembler PC v5.2.4 Sat Feb 06 22:51:21 2016

Tools Copyright (c) 1996-2015 Texas Instruments Incorporated
esp8266.asm                                                          PAGE    2

      56                            .dwattr $C$DW$10, DW_AT_type(*$C$DW$T$85)
      57                            .dwattr $C$DW$10, DW_AT_declaration
      58                            .dwattr $C$DW$10, DW_AT_external
      59                            .dwattr $C$DW$10, DW_AT_decl_file("C:/ti/ccsv6/tools/compiler/ti-cgt-arm_5.2.4/include/string.
      60                            .dwattr $C$DW$10, DW_AT_decl_line(0x4f)
      61                            .dwattr $C$DW$10, DW_AT_decl_column(0x14)
      62                    $C$DW$11        .dwtag  DW_TAG_formal_parameter
      63                            .dwattr $C$DW$11, DW_AT_type(*$C$DW$T$42)
      64                            .dwendtag $C$DW$10
      65                    
      66                    
      67                    $C$DW$12        .dwtag  DW_TAG_subprogram, DW_AT_name("strcpy")
      68                            .dwattr $C$DW$12, DW_AT_TI_symbol_name("strcpy")
      69                            .dwattr $C$DW$12, DW_AT_type(*$C$DW$T$35)
      70                            .dwattr $C$DW$12, DW_AT_declaration
      71                            .dwattr $C$DW$12, DW_AT_external
      72                            .dwattr $C$DW$12, DW_AT_decl_file("C:/ti/ccsv6/tools/compiler/ti-cgt-arm_5.2.4/include/string.
      73                            .dwattr $C$DW$12, DW_AT_decl_line(0x51)
      74                            .dwattr $C$DW$12, DW_AT_decl_column(0x12)
      75                    $C$DW$13        .dwtag  DW_TAG_formal_parameter
      76                            .dwattr $C$DW$13, DW_AT_type(*$C$DW$T$35)
      77                    $C$DW$14        .dwtag  DW_TAG_formal_parameter
      78                            .dwattr $C$DW$14, DW_AT_type(*$C$DW$T$42)
      79                            .dwendtag $C$DW$12
      80                    
      81                    
      82                    $C$DW$15        .dwtag  DW_TAG_subprogram, DW_AT_name("strstr")
      83                            .dwattr $C$DW$15, DW_AT_TI_symbol_name("strstr")
      84                            .dwattr $C$DW$15, DW_AT_type(*$C$DW$T$35)
      85                            .dwattr $C$DW$15, DW_AT_declaration
      86                            .dwattr $C$DW$15, DW_AT_external
      87                            .dwattr $C$DW$15, DW_AT_decl_file("C:/ti/ccsv6/tools/compiler/ti-cgt-arm_5.2.4/include/string.
      88                            .dwattr $C$DW$15, DW_AT_decl_line(0x60)
      89                            .dwattr $C$DW$15, DW_AT_decl_column(0x16)
      90                    $C$DW$16        .dwtag  DW_TAG_formal_parameter
      91                            .dwattr $C$DW$16, DW_AT_type(*$C$DW$T$42)
      92                    $C$DW$17        .dwtag  DW_TAG_formal_parameter
      93                            .dwattr $C$DW$17, DW_AT_type(*$C$DW$T$42)
      94                            .dwendtag $C$DW$15
      95                    
      96                    
      97                    $C$DW$18        .dwtag  DW_TAG_subprogram, DW_AT_name("UART_OutCharNonBlock")
      98                            .dwattr $C$DW$18, DW_AT_TI_symbol_name("UART_OutCharNonBlock")
      99                            .dwattr $C$DW$18, DW_AT_declaration
     100                            .dwattr $C$DW$18, DW_AT_external
     101                            .dwattr $C$DW$18, DW_AT_decl_file("..\UART.h")
     102                            .dwattr $C$DW$18, DW_AT_decl_line(0x44)
     103                            .dwattr $C$DW$18, DW_AT_decl_column(0x06)
     104                    $C$DW$19        .dwtag  DW_TAG_formal_parameter
     105                            .dwattr $C$DW$19, DW_AT_type(*$C$DW$T$6)
     106                            .dwendtag $C$DW$18
     107                    
     108                    
     109                    $C$DW$20        .dwtag  DW_TAG_subprogram, DW_AT_name("EnableInterrupts")
     110                            .dwattr $C$DW$20, DW_AT_TI_symbol_name("EnableInterrupts")
TI ARM Assembler PC v5.2.4 Sat Feb 06 22:51:21 2016

Tools Copyright (c) 1996-2015 Texas Instruments Incorporated
esp8266.asm                                                          PAGE    3

     111                            .dwattr $C$DW$20, DW_AT_declaration
     112                            .dwattr $C$DW$20, DW_AT_external
     113                            .dwattr $C$DW$20, DW_AT_decl_file("../esp8266.c")
     114                            .dwattr $C$DW$20, DW_AT_decl_line(0x44)
     115                            .dwattr $C$DW$20, DW_AT_decl_column(0x06)
     116                            .global RXBufferIndex
     117 00000000                   .data
     118                            .align  4
     119                            .elfsym RXBufferIndex,SYM_SIZE(4)
     120 00000000           RXBufferIndex:
     121 00000000 00000000          .bits   0,32                    ; RXBufferIndex @ 0
     122                    
     123                    $C$DW$21        .dwtag  DW_TAG_variable, DW_AT_name("RXBufferIndex")
     124                            .dwattr $C$DW$21, DW_AT_TI_symbol_name("RXBufferIndex")
     125                            .dwattr $C$DW$21, DW_AT_location[DW_OP_addr RXBufferIndex]
     126                            .dwattr $C$DW$21, DW_AT_type(*$C$DW$T$38)
     127                            .dwattr $C$DW$21, DW_AT_external
     128                            .dwattr $C$DW$21, DW_AT_decl_file("../esp8266.c")
     129                            .dwattr $C$DW$21, DW_AT_decl_line(0x5b)
     130                            .dwattr $C$DW$21, DW_AT_decl_column(0x0a)
     131                            .global LastReturnIndex
     132 00000004                   .data
     133                            .align  4
     134                            .elfsym LastReturnIndex,SYM_SIZE(4)
     135 00000004           LastReturnIndex:
     136 00000004 00000000          .bits   0,32                    ; LastReturnIndex @ 0
     137                    
     138                    $C$DW$22        .dwtag  DW_TAG_variable, DW_AT_name("LastReturnIndex")
     139                            .dwattr $C$DW$22, DW_AT_TI_symbol_name("LastReturnIndex")
     140                            .dwattr $C$DW$22, DW_AT_location[DW_OP_addr LastReturnIndex]
     141                            .dwattr $C$DW$22, DW_AT_type(*$C$DW$T$38)
     142                            .dwattr $C$DW$22, DW_AT_external
     143                            .dwattr $C$DW$22, DW_AT_decl_file("../esp8266.c")
     144                            .dwattr $C$DW$22, DW_AT_decl_line(0x5c)
     145                            .dwattr $C$DW$22, DW_AT_decl_column(0x0a)
     146                            .global CurrentReturnIndex
     147 00000008                   .data
     148                            .align  4
     149                            .elfsym CurrentReturnIndex,SYM_SIZE(4)
     150 00000008           CurrentReturnIndex:
     151 00000008 00000000          .bits   0,32                    ; CurrentReturnIndex @ 0
     152                    
     153                    $C$DW$23        .dwtag  DW_TAG_variable, DW_AT_name("CurrentReturnIndex")
     154                            .dwattr $C$DW$23, DW_AT_TI_symbol_name("CurrentReturnIndex")
     155                            .dwattr $C$DW$23, DW_AT_location[DW_OP_addr CurrentReturnIndex]
     156                            .dwattr $C$DW$23, DW_AT_type(*$C$DW$T$38)
     157                            .dwattr $C$DW$23, DW_AT_external
     158                            .dwattr $C$DW$23, DW_AT_decl_file("../esp8266.c")
     159                            .dwattr $C$DW$23, DW_AT_decl_line(0x5d)
     160                            .dwattr $C$DW$23, DW_AT_decl_column(0x0a)
     161                            .global RXBuffer
     162 00000000           RXBuffer:       .usect  ".bss:RXBuffer",1024,1
     163                    $C$DW$24        .dwtag  DW_TAG_variable, DW_AT_name("RXBuffer")
     164                            .dwattr $C$DW$24, DW_AT_TI_symbol_name("RXBuffer")
     165                            .dwattr $C$DW$24, DW_AT_location[DW_OP_addr RXBuffer]
TI ARM Assembler PC v5.2.4 Sat Feb 06 22:51:21 2016

Tools Copyright (c) 1996-2015 Texas Instruments Incorporated
esp8266.asm                                                          PAGE    4

     166                            .dwattr $C$DW$24, DW_AT_type(*$C$DW$T$118)
     167                            .dwattr $C$DW$24, DW_AT_external
     168                            .dwattr $C$DW$24, DW_AT_decl_file("../esp8266.c")
     169                            .dwattr $C$DW$24, DW_AT_decl_line(0x5e)
     170                            .dwattr $C$DW$24, DW_AT_decl_column(0x06)
     171                            .global TXBuffer
     172 00000000           TXBuffer:       .usect  ".bss:TXBuffer",1024,1
     173                    $C$DW$25        .dwtag  DW_TAG_variable, DW_AT_name("TXBuffer")
     174                            .dwattr $C$DW$25, DW_AT_TI_symbol_name("TXBuffer")
     175                            .dwattr $C$DW$25, DW_AT_location[DW_OP_addr TXBuffer]
     176                            .dwattr $C$DW$25, DW_AT_type(*$C$DW$T$118)
     177                            .dwattr $C$DW$25, DW_AT_external
     178                            .dwattr $C$DW$25, DW_AT_decl_file("../esp8266.c")
     179                            .dwattr $C$DW$25, DW_AT_decl_line(0x5f)
     180                            .dwattr $C$DW$25, DW_AT_decl_column(0x06)
     181                            .global ServerResponseBuffer
     182 00000000           ServerResponseBuffer:   .usect  ".bss:ServerResponseBuffer",1024,1
     183                    $C$DW$26        .dwtag  DW_TAG_variable, DW_AT_name("ServerResponseBuffer")
     184                            .dwattr $C$DW$26, DW_AT_TI_symbol_name("ServerResponseBuffer")
     185                            .dwattr $C$DW$26, DW_AT_location[DW_OP_addr ServerResponseBuffer]
     186                            .dwattr $C$DW$26, DW_AT_type(*$C$DW$T$118)
     187                            .dwattr $C$DW$26, DW_AT_external
     188                            .dwattr $C$DW$26, DW_AT_decl_file("../esp8266.c")
     189                            .dwattr $C$DW$26, DW_AT_decl_line(0x61)
     190                            .dwattr $C$DW$26, DW_AT_decl_column(0x06)
     191                            .global ServerResponseIndex
     192 0000000c                   .data
     193                            .align  4
     194                            .elfsym ServerResponseIndex,SYM_SIZE(4)
     195 0000000c           ServerResponseIndex:
     196 0000000c 00000000          .bits   0,32                    ; ServerResponseIndex @ 0
     197                    
     198                    $C$DW$27        .dwtag  DW_TAG_variable, DW_AT_name("ServerResponseIndex")
     199                            .dwattr $C$DW$27, DW_AT_TI_symbol_name("ServerResponseIndex")
     200                            .dwattr $C$DW$27, DW_AT_location[DW_OP_addr ServerResponseIndex]
     201                            .dwattr $C$DW$27, DW_AT_type(*$C$DW$T$38)
     202                            .dwattr $C$DW$27, DW_AT_external
     203                            .dwattr $C$DW$27, DW_AT_decl_file("../esp8266.c")
     204                            .dwattr $C$DW$27, DW_AT_decl_line(0x62)
     205                            .dwattr $C$DW$27, DW_AT_decl_column(0x0a)
     206                            .global ESP8266_ProcessBuffer
     207 00000010                   .data
     208                            .align  1
     209                            .elfsym ESP8266_ProcessBuffer,SYM_SIZE(1)
     210 00000010           ESP8266_ProcessBuffer:
     211 00000010 00000000          .bits   0,8                     ; ESP8266_ProcessBuffer @ 0
     212                    
     213                    $C$DW$28        .dwtag  DW_TAG_variable, DW_AT_name("ESP8266_ProcessBuffer")
     214                            .dwattr $C$DW$28, DW_AT_TI_symbol_name("ESP8266_ProcessBuffer")
     215                            .dwattr $C$DW$28, DW_AT_location[DW_OP_addr ESP8266_ProcessBuffer]
     216                            .dwattr $C$DW$28, DW_AT_type(*$C$DW$T$163)
     217                            .dwattr $C$DW$28, DW_AT_external
     218                            .dwattr $C$DW$28, DW_AT_decl_file("../esp8266.c")
     219                            .dwattr $C$DW$28, DW_AT_decl_line(0x64)
     220                            .dwattr $C$DW$28, DW_AT_decl_column(0x0f)
TI ARM Assembler PC v5.2.4 Sat Feb 06 22:51:21 2016

Tools Copyright (c) 1996-2015 Texas Instruments Incorporated
esp8266.asm                                                          PAGE    5

     221                            .global ESP8266_EchoResponse
     222 00000011                   .data
     223                            .align  1
     224                            .elfsym ESP8266_EchoResponse,SYM_SIZE(1)
     225 00000011           ESP8266_EchoResponse:
     226 00000010 00000000          .bits   0,8                     ; ESP8266_EchoResponse @ 0
     227                    
     228                    $C$DW$29        .dwtag  DW_TAG_variable, DW_AT_name("ESP8266_EchoResponse")
     229                            .dwattr $C$DW$29, DW_AT_TI_symbol_name("ESP8266_EchoResponse")
     230                            .dwattr $C$DW$29, DW_AT_location[DW_OP_addr ESP8266_EchoResponse]
     231                            .dwattr $C$DW$29, DW_AT_type(*$C$DW$T$163)
     232                            .dwattr $C$DW$29, DW_AT_external
     233                            .dwattr $C$DW$29, DW_AT_decl_file("../esp8266.c")
     234                            .dwattr $C$DW$29, DW_AT_decl_line(0x65)
     235                            .dwattr $C$DW$29, DW_AT_decl_column(0x0f)
     236                            .global ESP8266_ResponseComplete
     237 00000012                   .data
     238                            .align  1
     239                            .elfsym ESP8266_ResponseComplete,SYM_SIZE(1)
     240 00000012           ESP8266_ResponseComplete:
     241 00000010 00000000          .bits   0,8                     ; ESP8266_ResponseComplete @ 0
     242                    
     243                    $C$DW$30        .dwtag  DW_TAG_variable, DW_AT_name("ESP8266_ResponseComplete")
     244                            .dwattr $C$DW$30, DW_AT_TI_symbol_name("ESP8266_ResponseComplete")
     245                            .dwattr $C$DW$30, DW_AT_location[DW_OP_addr ESP8266_ResponseComplete]
     246                            .dwattr $C$DW$30, DW_AT_type(*$C$DW$T$163)
     247                            .dwattr $C$DW$30, DW_AT_external
     248                            .dwattr $C$DW$30, DW_AT_decl_file("../esp8266.c")
     249                            .dwattr $C$DW$30, DW_AT_decl_line(0x66)
     250                            .dwattr $C$DW$30, DW_AT_decl_column(0x0f)
     251                            .global ESP8266_APEnabled
     252 00000013                   .data
     253                            .align  1
     254                            .elfsym ESP8266_APEnabled,SYM_SIZE(1)
     255 00000013           ESP8266_APEnabled:
     256 00000010 00000000          .bits   0,8                     ; ESP8266_APEnabled @ 0
     257                    
     258                    $C$DW$31        .dwtag  DW_TAG_variable, DW_AT_name("ESP8266_APEnabled")
     259                            .dwattr $C$DW$31, DW_AT_TI_symbol_name("ESP8266_APEnabled")
     260                            .dwattr $C$DW$31, DW_AT_location[DW_OP_addr ESP8266_APEnabled]
     261                            .dwattr $C$DW$31, DW_AT_type(*$C$DW$T$163)
     262                            .dwattr $C$DW$31, DW_AT_external
     263                            .dwattr $C$DW$31, DW_AT_decl_file("../esp8266.c")
     264                            .dwattr $C$DW$31, DW_AT_decl_line(0x67)
     265                            .dwattr $C$DW$31, DW_AT_decl_column(0x0f)
     266                            .global ESP8266_ClientEnabled
     267 00000014                   .data
     268                            .align  1
     269                            .elfsym ESP8266_ClientEnabled,SYM_SIZE(1)
     270 00000014           ESP8266_ClientEnabled:
     271 00000014 00000000          .bits   0,8                     ; ESP8266_ClientEnabled @ 0
     272                    
     273                    $C$DW$32        .dwtag  DW_TAG_variable, DW_AT_name("ESP8266_ClientEnabled")
     274                            .dwattr $C$DW$32, DW_AT_TI_symbol_name("ESP8266_ClientEnabled")
     275                            .dwattr $C$DW$32, DW_AT_location[DW_OP_addr ESP8266_ClientEnabled]
TI ARM Assembler PC v5.2.4 Sat Feb 06 22:51:21 2016

Tools Copyright (c) 1996-2015 Texas Instruments Incorporated
esp8266.asm                                                          PAGE    6

     276                            .dwattr $C$DW$32, DW_AT_type(*$C$DW$T$163)
     277                            .dwattr $C$DW$32, DW_AT_external
     278                            .dwattr $C$DW$32, DW_AT_decl_file("../esp8266.c")
     279                            .dwattr $C$DW$32, DW_AT_decl_line(0x68)
     280                            .dwattr $C$DW$32, DW_AT_decl_column(0x0f)
     281                            .global ESP8266_ServerEnabled
     282 00000015                   .data
     283                            .align  1
     284                            .elfsym ESP8266_ServerEnabled,SYM_SIZE(1)
     285 00000015           ESP8266_ServerEnabled:
     286 00000014 00000000          .bits   0,8                     ; ESP8266_ServerEnabled @ 0
     287                    
     288                    $C$DW$33        .dwtag  DW_TAG_variable, DW_AT_name("ESP8266_ServerEnabled")
     289                            .dwattr $C$DW$33, DW_AT_TI_symbol_name("ESP8266_ServerEnabled")
     290                            .dwattr $C$DW$33, DW_AT_location[DW_OP_addr ESP8266_ServerEnabled]
     291                            .dwattr $C$DW$33, DW_AT_type(*$C$DW$T$163)
     292                            .dwattr $C$DW$33, DW_AT_external
     293                            .dwattr $C$DW$33, DW_AT_decl_file("../esp8266.c")
     294                            .dwattr $C$DW$33, DW_AT_decl_line(0x69)
     295                            .dwattr $C$DW$33, DW_AT_decl_column(0x0f)
     296                            .global ESP8266_InputProcessingEnabled
     297 00000016                   .data
     298                            .align  1
     299                            .elfsym ESP8266_InputProcessingEnabled,SYM_SIZE(1)
     300 00000016           ESP8266_InputProcessingEnabled:
     301 00000014 00000000          .bits   0,8                     ; ESP8266_InputProcessingEnabled @ 0
     302                    
     303                    $C$DW$34        .dwtag  DW_TAG_variable, DW_AT_name("ESP8266_InputProcessingEnabled")
     304                            .dwattr $C$DW$34, DW_AT_TI_symbol_name("ESP8266_InputProcessingEnabled")
     305                            .dwattr $C$DW$34, DW_AT_location[DW_OP_addr ESP8266_InputProcessingEnabled]
     306                            .dwattr $C$DW$34, DW_AT_type(*$C$DW$T$163)
     307                            .dwattr $C$DW$34, DW_AT_external
     308                            .dwattr $C$DW$34, DW_AT_decl_file("../esp8266.c")
     309                            .dwattr $C$DW$34, DW_AT_decl_line(0x6a)
     310                            .dwattr $C$DW$34, DW_AT_decl_column(0x0f)
     311                            .global ESP8266_PageRequested
     312 00000017                   .data
     313                            .align  1
     314                            .elfsym ESP8266_PageRequested,SYM_SIZE(1)
     315 00000017           ESP8266_PageRequested:
     316 00000014 00000000          .bits   0,8                     ; ESP8266_PageRequested @ 0
     317                    
     318                    $C$DW$35        .dwtag  DW_TAG_variable, DW_AT_name("ESP8266_PageRequested")
     319                            .dwattr $C$DW$35, DW_AT_TI_symbol_name("ESP8266_PageRequested")
     320                            .dwattr $C$DW$35, DW_AT_location[DW_OP_addr ESP8266_PageRequested]
     321                            .dwattr $C$DW$35, DW_AT_type(*$C$DW$T$163)
     322                            .dwattr $C$DW$35, DW_AT_external
     323                            .dwattr $C$DW$35, DW_AT_decl_file("../esp8266.c")
     324                            .dwattr $C$DW$35, DW_AT_decl_line(0x6b)
     325                            .dwattr $C$DW$35, DW_AT_decl_column(0x0f)
     326                            .global SearchString
     327                            .common SearchString,32,1
     328                    $C$DW$36        .dwtag  DW_TAG_variable, DW_AT_name("SearchString")
     329                            .dwattr $C$DW$36, DW_AT_TI_symbol_name("SearchString")
     330                            .dwattr $C$DW$36, DW_AT_location[DW_OP_addr SearchString]
TI ARM Assembler PC v5.2.4 Sat Feb 06 22:51:21 2016

Tools Copyright (c) 1996-2015 Texas Instruments Incorporated
esp8266.asm                                                          PAGE    7

     331                            .dwattr $C$DW$36, DW_AT_type(*$C$DW$T$120)
     332                            .dwattr $C$DW$36, DW_AT_external
     333                            .dwattr $C$DW$36, DW_AT_decl_file("../esp8266.c")
     334                            .dwattr $C$DW$36, DW_AT_decl_line(0x72)
     335                            .dwattr $C$DW$36, DW_AT_decl_column(0x06)
     336                            .global SearchLooking
     337 00000018                   .data
     338                            .align  1
     339                            .elfsym SearchLooking,SYM_SIZE(1)
     340 00000018           SearchLooking:
     341 00000018 00000000          .bits   0,8                     ; SearchLooking @ 0
     342                    
     343                    $C$DW$37        .dwtag  DW_TAG_variable, DW_AT_name("SearchLooking")
     344                            .dwattr $C$DW$37, DW_AT_TI_symbol_name("SearchLooking")
     345                            .dwattr $C$DW$37, DW_AT_location[DW_OP_addr SearchLooking]
     346                            .dwattr $C$DW$37, DW_AT_type(*$C$DW$T$163)
     347                            .dwattr $C$DW$37, DW_AT_external
     348                            .dwattr $C$DW$37, DW_AT_decl_file("../esp8266.c")
     349                            .dwattr $C$DW$37, DW_AT_decl_line(0x73)
     350                            .dwattr $C$DW$37, DW_AT_decl_column(0x0f)
     351                            .global SearchFound
     352 00000019                   .data
     353                            .align  1
     354                            .elfsym SearchFound,SYM_SIZE(1)
     355 00000019           SearchFound:
     356 00000018 00000000          .bits   0,8                     ; SearchFound @ 0
     357                    
     358                    $C$DW$38        .dwtag  DW_TAG_variable, DW_AT_name("SearchFound")
     359                            .dwattr $C$DW$38, DW_AT_TI_symbol_name("SearchFound")
     360                            .dwattr $C$DW$38, DW_AT_location[DW_OP_addr SearchFound]
     361                            .dwattr $C$DW$38, DW_AT_type(*$C$DW$T$163)
     362                            .dwattr $C$DW$38, DW_AT_external
     363                            .dwattr $C$DW$38, DW_AT_decl_file("../esp8266.c")
     364                            .dwattr $C$DW$38, DW_AT_decl_line(0x74)
     365                            .dwattr $C$DW$38, DW_AT_decl_column(0x0f)
     366                            .global SearchIndex
     367 0000001a                   .data
     368                            .align  4
     369                            .elfsym SearchIndex,SYM_SIZE(4)
     370 0000001c           SearchIndex:
     371 0000001c 00000000          .bits   0,32                    ; SearchIndex @ 0
     372                    
     373                    $C$DW$39        .dwtag  DW_TAG_variable, DW_AT_name("SearchIndex")
     374                            .dwattr $C$DW$39, DW_AT_TI_symbol_name("SearchIndex")
     375                            .dwattr $C$DW$39, DW_AT_location[DW_OP_addr SearchIndex]
     376                            .dwattr $C$DW$39, DW_AT_type(*$C$DW$T$88)
     377                            .dwattr $C$DW$39, DW_AT_external
     378                            .dwattr $C$DW$39, DW_AT_decl_file("../esp8266.c")
     379                            .dwattr $C$DW$39, DW_AT_decl_line(0x75)
     380                            .dwattr $C$DW$39, DW_AT_decl_column(0x13)
     381                            .global ServerResponseSearchString
     382 00000020                   .data
     383                            .align  1
     384                            .elfsym ServerResponseSearchString,SYM_SIZE(16)
     385 00000020           ServerResponseSearchString:
TI ARM Assembler PC v5.2.4 Sat Feb 06 22:51:21 2016

Tools Copyright (c) 1996-2015 Texas Instruments Incorporated
esp8266.asm                                                          PAGE    8

     386 00000020 0000002B          .bits   43,8                    ; ServerResponseSearchString[0] @ 0
     387 00000020 0000692B          .bits   105,8                   ; ServerResponseSearchString[1] @ 8
     388 00000020 0070692B          .bits   112,8                   ; ServerResponseSearchString[2] @ 16
     389 00000020 6470692B          .bits   100,8                   ; ServerResponseSearchString[3] @ 24
     390 00000024 0000002C          .bits   44,8                    ; ServerResponseSearchString[4] @ 32
     391 00000024 0000002C          .bits   0,8                     ; ServerResponseSearchString[5] @ 40
     392 00000026                   .space  10
     393                    
     394                    $C$DW$40        .dwtag  DW_TAG_variable, DW_AT_name("ServerResponseSearchString")
     395                            .dwattr $C$DW$40, DW_AT_TI_symbol_name("ServerResponseSearchString")
     396                            .dwattr $C$DW$40, DW_AT_location[DW_OP_addr ServerResponseSearchString]
     397                            .dwattr $C$DW$40, DW_AT_type(*$C$DW$T$121)
     398                            .dwattr $C$DW$40, DW_AT_external
     399                            .dwattr $C$DW$40, DW_AT_decl_file("../esp8266.c")
     400                            .dwattr $C$DW$40, DW_AT_decl_line(0x96)
     401                            .dwattr $C$DW$40, DW_AT_decl_column(0x06)
     402                            .global ServerResponseSearchFinished
     403 00000030                   .data
     404                            .align  4
     405                            .elfsym ServerResponseSearchFinished,SYM_SIZE(4)
     406 00000030           ServerResponseSearchFinished:
     407 00000030 00000000          .bits   0,32                    ; ServerResponseSearchFinished @ 0
     408                    
     409                    $C$DW$41        .dwtag  DW_TAG_variable, DW_AT_name("ServerResponseSearchFinished")
     410                            .dwattr $C$DW$41, DW_AT_TI_symbol_name("ServerResponseSearchFinished")
     411                            .dwattr $C$DW$41, DW_AT_location[DW_OP_addr ServerResponseSearchFinished]
     412                            .dwattr $C$DW$41, DW_AT_type(*$C$DW$T$88)
     413                            .dwattr $C$DW$41, DW_AT_external
     414                            .dwattr $C$DW$41, DW_AT_decl_file("../esp8266.c")
     415                            .dwattr $C$DW$41, DW_AT_decl_line(0x97)
     416                            .dwattr $C$DW$41, DW_AT_decl_column(0x13)
     417                            .global ServerResponseSearchIndex
     418 00000034                   .data
     419                            .align  4
     420                            .elfsym ServerResponseSearchIndex,SYM_SIZE(4)
     421 00000034           ServerResponseSearchIndex:
     422 00000034 00000000          .bits   0,32                    ; ServerResponseSearchIndex @ 0
     423                    
     424                    $C$DW$42        .dwtag  DW_TAG_variable, DW_AT_name("ServerResponseSearchIndex")
     425                            .dwattr $C$DW$42, DW_AT_TI_symbol_name("ServerResponseSearchIndex")
     426                            .dwattr $C$DW$42, DW_AT_location[DW_OP_addr ServerResponseSearchIndex]
     427                            .dwattr $C$DW$42, DW_AT_type(*$C$DW$T$88)
     428                            .dwattr $C$DW$42, DW_AT_external
     429                            .dwattr $C$DW$42, DW_AT_decl_file("../esp8266.c")
     430                            .dwattr $C$DW$42, DW_AT_decl_line(0x98)
     431                            .dwattr $C$DW$42, DW_AT_decl_column(0x13)
     432                            .global ServerResponseSearchLooking
     433 00000038                   .data
     434                            .align  4
     435                            .elfsym ServerResponseSearchLooking,SYM_SIZE(4)
     436 00000038           ServerResponseSearchLooking:
     437 00000038 00000000          .bits   0,32                    ; ServerResponseSearchLooking @ 0
     438                    
     439                    $C$DW$43        .dwtag  DW_TAG_variable, DW_AT_name("ServerResponseSearchLooking")
     440                            .dwattr $C$DW$43, DW_AT_TI_symbol_name("ServerResponseSearchLooking")
TI ARM Assembler PC v5.2.4 Sat Feb 06 22:51:21 2016

Tools Copyright (c) 1996-2015 Texas Instruments Incorporated
esp8266.asm                                                          PAGE    9

     441                            .dwattr $C$DW$43, DW_AT_location[DW_OP_addr ServerResponseSearchLooking]
     442                            .dwattr $C$DW$43, DW_AT_type(*$C$DW$T$88)
     443                            .dwattr $C$DW$43, DW_AT_external
     444                            .dwattr $C$DW$43, DW_AT_decl_file("../esp8266.c")
     445                            .dwattr $C$DW$43, DW_AT_decl_line(0x99)
     446                            .dwattr $C$DW$43, DW_AT_decl_column(0x13)
     447                            .global ESP8266_ServerPort
     448 0000003c                   .data
     449                            .align  2
     450                            .elfsym ESP8266_ServerPort,SYM_SIZE(2)
     451 0000003c           ESP8266_ServerPort:
     452 0000003c 00000050          .bits   80,16                   ; ESP8266_ServerPort @ 0
     453                    
     454                    $C$DW$44        .dwtag  DW_TAG_variable, DW_AT_name("ESP8266_ServerPort")
     455                            .dwattr $C$DW$44, DW_AT_TI_symbol_name("ESP8266_ServerPort")
     456                            .dwattr $C$DW$44, DW_AT_location[DW_OP_addr ESP8266_ServerPort]
     457                            .dwattr $C$DW$44, DW_AT_type(*$C$DW$T$47)
     458                            .dwattr $C$DW$44, DW_AT_external
     459                            .dwattr $C$DW$44, DW_AT_decl_file("../esp8266.c")
     460                            .dwattr $C$DW$44, DW_AT_decl_line(0x292)
     461                            .dwattr $C$DW$44, DW_AT_decl_column(0x0a)
     462                            .global ESP8266_ServerTimeout
     463 0000003e                   .data
     464                            .align  2
     465                            .elfsym ESP8266_ServerTimeout,SYM_SIZE(2)
     466 0000003e           ESP8266_ServerTimeout:
     467 0000003c 70800050          .bits   28800,16                        ; ESP8266_ServerTimeout @ 0
     468                    
     469                    $C$DW$45        .dwtag  DW_TAG_variable, DW_AT_name("ESP8266_ServerTimeout")
     470                            .dwattr $C$DW$45, DW_AT_TI_symbol_name("ESP8266_ServerTimeout")
     471                            .dwattr $C$DW$45, DW_AT_location[DW_OP_addr ESP8266_ServerTimeout]
     472                            .dwattr $C$DW$45, DW_AT_type(*$C$DW$T$47)
     473                            .dwattr $C$DW$45, DW_AT_external
     474                            .dwattr $C$DW$45, DW_AT_decl_file("../esp8266.c")
     475                            .dwattr $C$DW$45, DW_AT_decl_line(0x293)
     476                            .dwattr $C$DW$45, DW_AT_decl_column(0x0a)
     477                            .global formBody
     478 00000000                   .sect   ".const:.string:formBody"
     479                            .clink
     480                            .align  1
     481                            .elfsym formBody,SYM_SIZE(240)
     482 00000000           formBody:
     483 00000000 0000003C          .bits   60,8                    ; formBody[0] @ 0
     484 00000000 0000213C          .bits   33,8                    ; formBody[1] @ 8
     485 00000000 0044213C          .bits   68,8                    ; formBody[2] @ 16
     486 00000000 4F44213C          .bits   79,8                    ; formBody[3] @ 24
     487 00000004 00000043          .bits   67,8                    ; formBody[4] @ 32
     488 00000004 00005443          .bits   84,8                    ; formBody[5] @ 40
     489 00000004 00595443          .bits   89,8                    ; formBody[6] @ 48
     490 00000004 50595443          .bits   80,8                    ; formBody[7] @ 56
     491 00000008 00000045          .bits   69,8                    ; formBody[8] @ 64
     492 00000008 00002045          .bits   32,8                    ; formBody[9] @ 72
     493 00000008 00682045          .bits   104,8                   ; formBody[10] @ 80
     494 00000008 74682045          .bits   116,8                   ; formBody[11] @ 88
     495 0000000c 0000006D          .bits   109,8                   ; formBody[12] @ 96
TI ARM Assembler PC v5.2.4 Sat Feb 06 22:51:21 2016

Tools Copyright (c) 1996-2015 Texas Instruments Incorporated
esp8266.asm                                                          PAGE   10

     496 0000000c 00006C6D          .bits   108,8                   ; formBody[13] @ 104
     497 0000000c 003E6C6D          .bits   62,8                    ; formBody[14] @ 112
     498 0000000c 3C3E6C6D          .bits   60,8                    ; formBody[15] @ 120
     499 00000010 00000068          .bits   104,8                   ; formBody[16] @ 128
     500 00000010 00007468          .bits   116,8                   ; formBody[17] @ 136
     501 00000010 006D7468          .bits   109,8                   ; formBody[18] @ 144
     502 00000010 6C6D7468          .bits   108,8                   ; formBody[19] @ 152
     503 00000014 0000003E          .bits   62,8                    ; formBody[20] @ 160
     504 00000014 00003C3E          .bits   60,8                    ; formBody[21] @ 168
     505 00000014 00623C3E          .bits   98,8                    ; formBody[22] @ 176
     506 00000014 6F623C3E          .bits   111,8                   ; formBody[23] @ 184
     507 00000018 00000064          .bits   100,8                   ; formBody[24] @ 192
     508 00000018 00007964          .bits   121,8                   ; formBody[25] @ 200
     509 00000018 003E7964          .bits   62,8                    ; formBody[26] @ 208
     510 00000018 3C3E7964          .bits   60,8                    ; formBody[27] @ 216
     511 0000001c 00000063          .bits   99,8                    ; formBody[28] @ 224
     512 0000001c 00006563          .bits   101,8                   ; formBody[29] @ 232
     513 0000001c 006E6563          .bits   110,8                   ; formBody[30] @ 240
     514 0000001c 746E6563          .bits   116,8                   ; formBody[31] @ 248
     515 00000020 00000065          .bits   101,8                   ; formBody[32] @ 256
     516 00000020 00007265          .bits   114,8                   ; formBody[33] @ 264
     517 00000020 003E7265          .bits   62,8                    ; formBody[34] @ 272
     518 00000020 203E7265          .bits   32,8                    ; formBody[35] @ 280
     519 00000024 00000020          .bits   32,8                    ; formBody[36] @ 288
     520 00000024 00002020          .bits   32,8                    ; formBody[37] @ 296
     521 00000024 003C2020          .bits   60,8                    ; formBody[38] @ 304
     522 00000024 683C2020          .bits   104,8                   ; formBody[39] @ 312
     523 00000028 00000031          .bits   49,8                    ; formBody[40] @ 320
     524 00000028 00003E31          .bits   62,8                    ; formBody[41] @ 328
     525 00000028 00453E31          .bits   69,8                    ; formBody[42] @ 336
     526 00000028 6E453E31          .bits   110,8                   ; formBody[43] @ 344
     527 0000002c 00000074          .bits   116,8                   ; formBody[44] @ 352
     528 0000002c 00006574          .bits   101,8                   ; formBody[45] @ 360
     529 0000002c 00726574          .bits   114,8                   ; formBody[46] @ 368
     530 0000002c 20726574          .bits   32,8                    ; formBody[47] @ 376
     531 00000030 00000061          .bits   97,8                    ; formBody[48] @ 384
     532 00000030 00002061          .bits   32,8                    ; formBody[49] @ 392
     533 00000030 006D2061          .bits   109,8                   ; formBody[50] @ 400
     534 00000030 656D2061          .bits   101,8                   ; formBody[51] @ 408
     535 00000034 00000073          .bits   115,8                   ; formBody[52] @ 416
     536 00000034 00007373          .bits   115,8                   ; formBody[53] @ 424
     537 00000034 00617373          .bits   97,8                    ; formBody[54] @ 432
     538 00000034 67617373          .bits   103,8                   ; formBody[55] @ 440
     539 00000038 00000065          .bits   101,8                   ; formBody[56] @ 448
     540 00000038 00002065          .bits   32,8                    ; formBody[57] @ 456
     541 00000038 00742065          .bits   116,8                   ; formBody[58] @ 464
     542 00000038 6F742065          .bits   111,8                   ; formBody[59] @ 472
     543 0000003c 00000020          .bits   32,8                    ; formBody[60] @ 480
     544 0000003c 00007320          .bits   115,8                   ; formBody[61] @ 488
     545 0000003c 00657320          .bits   101,8                   ; formBody[62] @ 496
     546 0000003c 6E657320          .bits   110,8                   ; formBody[63] @ 504
     547 00000040 00000064          .bits   100,8                   ; formBody[64] @ 512
     548 00000040 00002064          .bits   32,8                    ; formBody[65] @ 520
     549 00000040 00742064          .bits   116,8                   ; formBody[66] @ 528
     550 00000040 6F742064          .bits   111,8                   ; formBody[67] @ 536
TI ARM Assembler PC v5.2.4 Sat Feb 06 22:51:21 2016

Tools Copyright (c) 1996-2015 Texas Instruments Incorporated
esp8266.asm                                                          PAGE   11

     551 00000044 00000020          .bits   32,8                    ; formBody[68] @ 544
     552 00000044 00007920          .bits   121,8                   ; formBody[69] @ 552
     553 00000044 006F7920          .bits   111,8                   ; formBody[70] @ 560
     554 00000044 756F7920          .bits   117,8                   ; formBody[71] @ 568
     555 00000048 00000072          .bits   114,8                   ; formBody[72] @ 576
     556 00000048 00002072          .bits   32,8                    ; formBody[73] @ 584
     557 00000048 006D2072          .bits   109,8                   ; formBody[74] @ 592
     558 00000048 696D2072          .bits   105,8                   ; formBody[75] @ 600
     559 0000004c 00000063          .bits   99,8                    ; formBody[76] @ 608
     560 0000004c 00007263          .bits   114,8                   ; formBody[77] @ 616
     561 0000004c 006F7263          .bits   111,8                   ; formBody[78] @ 624
     562 0000004c 636F7263          .bits   99,8                    ; formBody[79] @ 632
     563 00000050 0000006F          .bits   111,8                   ; formBody[80] @ 640
     564 00000050 00006E6F          .bits   110,8                   ; formBody[81] @ 648
     565 00000050 00746E6F          .bits   116,8                   ; formBody[82] @ 656
     566 00000050 72746E6F          .bits   114,8                   ; formBody[83] @ 664
     567 00000054 0000006F          .bits   111,8                   ; formBody[84] @ 672
     568 00000054 00006C6F          .bits   108,8                   ; formBody[85] @ 680
     569 00000054 006C6C6F          .bits   108,8                   ; formBody[86] @ 688
     570 00000054 656C6C6F          .bits   101,8                   ; formBody[87] @ 696
     571 00000058 00000072          .bits   114,8                   ; formBody[88] @ 704
     572 00000058 00002172          .bits   33,8                    ; formBody[89] @ 712
     573 00000058 003C2172          .bits   60,8                    ; formBody[90] @ 720
     574 00000058 2F3C2172          .bits   47,8                    ; formBody[91] @ 728
     575 0000005c 00000068          .bits   104,8                   ; formBody[92] @ 736
     576 0000005c 00003168          .bits   49,8                    ; formBody[93] @ 744
     577 0000005c 003E3168          .bits   62,8                    ; formBody[94] @ 752
     578 0000005c 203E3168          .bits   32,8                    ; formBody[95] @ 760
     579 00000060 00000020          .bits   32,8                    ; formBody[96] @ 768
     580 00000060 00002020          .bits   32,8                    ; formBody[97] @ 776
     581 00000060 003C2020          .bits   60,8                    ; formBody[98] @ 784
     582 00000060 663C2020          .bits   102,8                   ; formBody[99] @ 792
     583 00000064 0000006F          .bits   111,8                   ; formBody[100] @ 800
     584 00000064 0000726F          .bits   114,8                   ; formBody[101] @ 808
     585 00000064 006D726F          .bits   109,8                   ; formBody[102] @ 816
     586 00000064 3E6D726F          .bits   62,8                    ; formBody[103] @ 824
     587 00000068 00000020          .bits   32,8                    ; formBody[104] @ 832
     588 00000068 00002020          .bits   32,8                    ; formBody[105] @ 840
     589 00000068 00202020          .bits   32,8                    ; formBody[106] @ 848
     590 00000068 3C202020          .bits   60,8                    ; formBody[107] @ 856
     591 0000006c 00000069          .bits   105,8                   ; formBody[108] @ 864
     592 0000006c 00006E69          .bits   110,8                   ; formBody[109] @ 872
     593 0000006c 00706E69          .bits   112,8                   ; formBody[110] @ 880
     594 0000006c 75706E69          .bits   117,8                   ; formBody[111] @ 888
     595 00000070 00000074          .bits   116,8                   ; formBody[112] @ 896
     596 00000070 00002074          .bits   32,8                    ; formBody[113] @ 904
     597 00000070 00742074          .bits   116,8                   ; formBody[114] @ 912
     598 00000070 79742074          .bits   121,8                   ; formBody[115] @ 920
     599 00000074 00000070          .bits   112,8                   ; formBody[116] @ 928
     600 00000074 00006570          .bits   101,8                   ; formBody[117] @ 936
     601 00000074 003D6570          .bits   61,8                    ; formBody[118] @ 944
     602 00000074 223D6570          .bits   34,8                    ; formBody[119] @ 952
     603 00000078 00000074          .bits   116,8                   ; formBody[120] @ 960
     604 00000078 00006574          .bits   101,8                   ; formBody[121] @ 968
     605 00000078 00786574          .bits   120,8                   ; formBody[122] @ 976
TI ARM Assembler PC v5.2.4 Sat Feb 06 22:51:21 2016

Tools Copyright (c) 1996-2015 Texas Instruments Incorporated
esp8266.asm                                                          PAGE   12

     606 00000078 74786574          .bits   116,8                   ; formBody[123] @ 984
     607 0000007c 00000022          .bits   34,8                    ; formBody[124] @ 992
     608 0000007c 00002022          .bits   32,8                    ; formBody[125] @ 1000
     609 0000007c 006E2022          .bits   110,8                   ; formBody[126] @ 1008
     610 0000007c 616E2022          .bits   97,8                    ; formBody[127] @ 1016
     611 00000080 0000006D          .bits   109,8                   ; formBody[128] @ 1024
     612 00000080 0000656D          .bits   101,8                   ; formBody[129] @ 1032
     613 00000080 003D656D          .bits   61,8                    ; formBody[130] @ 1040
     614 00000080 223D656D          .bits   34,8                    ; formBody[131] @ 1048
     615 00000084 0000006D          .bits   109,8                   ; formBody[132] @ 1056
     616 00000084 0000656D          .bits   101,8                   ; formBody[133] @ 1064
     617 00000084 0073656D          .bits   115,8                   ; formBody[134] @ 1072
     618 00000084 7373656D          .bits   115,8                   ; formBody[135] @ 1080
     619 00000088 00000061          .bits   97,8                    ; formBody[136] @ 1088
     620 00000088 00006761          .bits   103,8                   ; formBody[137] @ 1096
     621 00000088 00656761          .bits   101,8                   ; formBody[138] @ 1104
     622 00000088 22656761          .bits   34,8                    ; formBody[139] @ 1112
     623 0000008c 00000020          .bits   32,8                    ; formBody[140] @ 1120
     624 0000008c 00007620          .bits   118,8                   ; formBody[141] @ 1128
     625 0000008c 00617620          .bits   97,8                    ; formBody[142] @ 1136
     626 0000008c 6C617620          .bits   108,8                   ; formBody[143] @ 1144
     627 00000090 00000075          .bits   117,8                   ; formBody[144] @ 1152
     628 00000090 00006575          .bits   101,8                   ; formBody[145] @ 1160
     629 00000090 003D6575          .bits   61,8                    ; formBody[146] @ 1168
     630 00000090 223D6575          .bits   34,8                    ; formBody[147] @ 1176
     631 00000094 00000048          .bits   72,8                    ; formBody[148] @ 1184
     632 00000094 00006548          .bits   101,8                   ; formBody[149] @ 1192
     633 00000094 006C6548          .bits   108,8                   ; formBody[150] @ 1200
     634 00000094 6C6C6548          .bits   108,8                   ; formBody[151] @ 1208
     635 00000098 0000006F          .bits   111,8                   ; formBody[152] @ 1216
     636 00000098 0000206F          .bits   32,8                    ; formBody[153] @ 1224
     637 00000098 0045206F          .bits   69,8                    ; formBody[154] @ 1232
     638 00000098 5345206F          .bits   83,8                    ; formBody[155] @ 1240
     639 0000009c 00000050          .bits   80,8                    ; formBody[156] @ 1248
     640 0000009c 00003850          .bits   56,8                    ; formBody[157] @ 1256
     641 0000009c 00323850          .bits   50,8                    ; formBody[158] @ 1264
     642 0000009c 36323850          .bits   54,8                    ; formBody[159] @ 1272
     643 000000a0 00000036          .bits   54,8                    ; formBody[160] @ 1280
     644 000000a0 00002136          .bits   33,8                    ; formBody[161] @ 1288
     645 000000a0 00222136          .bits   34,8                    ; formBody[162] @ 1296
     646 000000a0 3E222136          .bits   62,8                    ; formBody[163] @ 1304
     647 000000a4 00000020          .bits   32,8                    ; formBody[164] @ 1312
     648 000000a4 00002020          .bits   32,8                    ; formBody[165] @ 1320
     649 000000a4 00202020          .bits   32,8                    ; formBody[166] @ 1328
     650 000000a4 3C202020          .bits   60,8                    ; formBody[167] @ 1336
     651 000000a8 00000062          .bits   98,8                    ; formBody[168] @ 1344
     652 000000a8 00007262          .bits   114,8                   ; formBody[169] @ 1352
     653 000000a8 003E7262          .bits   62,8                    ; formBody[170] @ 1360
     654 000000a8 3C3E7262          .bits   60,8                    ; formBody[171] @ 1368
     655 000000ac 00000069          .bits   105,8                   ; formBody[172] @ 1376
     656 000000ac 00006E69          .bits   110,8                   ; formBody[173] @ 1384
     657 000000ac 00706E69          .bits   112,8                   ; formBody[174] @ 1392
     658 000000ac 75706E69          .bits   117,8                   ; formBody[175] @ 1400
     659 000000b0 00000074          .bits   116,8                   ; formBody[176] @ 1408
     660 000000b0 00002074          .bits   32,8                    ; formBody[177] @ 1416
TI ARM Assembler PC v5.2.4 Sat Feb 06 22:51:21 2016

Tools Copyright (c) 1996-2015 Texas Instruments Incorporated
esp8266.asm                                                          PAGE   13

     661 000000b0 00742074          .bits   116,8                   ; formBody[178] @ 1424
     662 000000b0 79742074          .bits   121,8                   ; formBody[179] @ 1432
     663 000000b4 00000070          .bits   112,8                   ; formBody[180] @ 1440
     664 000000b4 00006570          .bits   101,8                   ; formBody[181] @ 1448
     665 000000b4 003D6570          .bits   61,8                    ; formBody[182] @ 1456
     666 000000b4 223D6570          .bits   34,8                    ; formBody[183] @ 1464
     667 000000b8 00000073          .bits   115,8                   ; formBody[184] @ 1472
     668 000000b8 00007573          .bits   117,8                   ; formBody[185] @ 1480
     669 000000b8 00627573          .bits   98,8                    ; formBody[186] @ 1488
     670 000000b8 6D627573          .bits   109,8                   ; formBody[187] @ 1496
     671 000000bc 00000069          .bits   105,8                   ; formBody[188] @ 1504
     672 000000bc 00007469          .bits   116,8                   ; formBody[189] @ 1512
     673 000000bc 00227469          .bits   34,8                    ; formBody[190] @ 1520
     674 000000bc 20227469          .bits   32,8                    ; formBody[191] @ 1528
     675 000000c0 00000076          .bits   118,8                   ; formBody[192] @ 1536
     676 000000c0 00006176          .bits   97,8                    ; formBody[193] @ 1544
     677 000000c0 006C6176          .bits   108,8                   ; formBody[194] @ 1552
     678 000000c0 756C6176          .bits   117,8                   ; formBody[195] @ 1560
     679 000000c4 00000065          .bits   101,8                   ; formBody[196] @ 1568
     680 000000c4 00003D65          .bits   61,8                    ; formBody[197] @ 1576
     681 000000c4 00223D65          .bits   34,8                    ; formBody[198] @ 1584
     682 000000c4 47223D65          .bits   71,8                    ; formBody[199] @ 1592
     683 000000c8 0000006F          .bits   111,8                   ; formBody[200] @ 1600
     684 000000c8 0000216F          .bits   33,8                    ; formBody[201] @ 1608
     685 000000c8 0022216F          .bits   34,8                    ; formBody[202] @ 1616
     686 000000c8 3E22216F          .bits   62,8                    ; formBody[203] @ 1624
     687 000000cc 00000020          .bits   32,8                    ; formBody[204] @ 1632
     688 000000cc 00002020          .bits   32,8                    ; formBody[205] @ 1640
     689 000000cc 00202020          .bits   32,8                    ; formBody[206] @ 1648
     690 000000cc 3C202020          .bits   60,8                    ; formBody[207] @ 1656
     691 000000d0 0000002F          .bits   47,8                    ; formBody[208] @ 1664
     692 000000d0 0000662F          .bits   102,8                   ; formBody[209] @ 1672
     693 000000d0 006F662F          .bits   111,8                   ; formBody[210] @ 1680
     694 000000d0 726F662F          .bits   114,8                   ; formBody[211] @ 1688
     695 000000d4 0000006D          .bits   109,8                   ; formBody[212] @ 1696
     696 000000d4 00003E6D          .bits   62,8                    ; formBody[213] @ 1704
     697 000000d4 003C3E6D          .bits   60,8                    ; formBody[214] @ 1712
     698 000000d4 2F3C3E6D          .bits   47,8                    ; formBody[215] @ 1720
     699 000000d8 00000063          .bits   99,8                    ; formBody[216] @ 1728
     700 000000d8 00006563          .bits   101,8                   ; formBody[217] @ 1736
     701 000000d8 006E6563          .bits   110,8                   ; formBody[218] @ 1744
     702 000000d8 746E6563          .bits   116,8                   ; formBody[219] @ 1752
     703 000000dc 00000065          .bits   101,8                   ; formBody[220] @ 1760
     704 000000dc 00007265          .bits   114,8                   ; formBody[221] @ 1768
     705 000000dc 003E7265          .bits   62,8                    ; formBody[222] @ 1776
     706 000000dc 3C3E7265          .bits   60,8                    ; formBody[223] @ 1784
     707 000000e0 0000002F          .bits   47,8                    ; formBody[224] @ 1792
     708 000000e0 0000622F          .bits   98,8                    ; formBody[225] @ 1800
     709 000000e0 006F622F          .bits   111,8                   ; formBody[226] @ 1808
     710 000000e0 646F622F          .bits   100,8                   ; formBody[227] @ 1816
     711 000000e4 00000079          .bits   121,8                   ; formBody[228] @ 1824
     712 000000e4 00003E79          .bits   62,8                    ; formBody[229] @ 1832
     713 000000e4 003C3E79          .bits   60,8                    ; formBody[230] @ 1840
     714 000000e4 2F3C3E79          .bits   47,8                    ; formBody[231] @ 1848
     715 000000e8 00000068          .bits   104,8                   ; formBody[232] @ 1856
TI ARM Assembler PC v5.2.4 Sat Feb 06 22:51:21 2016

Tools Copyright (c) 1996-2015 Texas Instruments Incorporated
esp8266.asm                                                          PAGE   14

     716 000000e8 00007468          .bits   116,8                   ; formBody[233] @ 1864
     717 000000e8 006D7468          .bits   109,8                   ; formBody[234] @ 1872
     718 000000e8 6C6D7468          .bits   108,8                   ; formBody[235] @ 1880
     719 000000ec 0000003E          .bits   62,8                    ; formBody[236] @ 1888
     720 000000ec 0000003E          .bits   0,8                     ; formBody[237] @ 1896
     721                    
     722                    $C$DW$46        .dwtag  DW_TAG_variable, DW_AT_name("formBody")
     723                            .dwattr $C$DW$46, DW_AT_TI_symbol_name("formBody")
     724                            .dwattr $C$DW$46, DW_AT_location[DW_OP_addr formBody]
     725                            .dwattr $C$DW$46, DW_AT_type(*$C$DW$T$109)
     726                            .dwattr $C$DW$46, DW_AT_external
     727                            .dwattr $C$DW$46, DW_AT_decl_file("../esp8266.c")
     728                            .dwattr $C$DW$46, DW_AT_decl_line(0x2db)
     729                            .dwattr $C$DW$46, DW_AT_decl_column(0x0c)
     730 00000000                   .sect   ".const:.string:$P$T0$1"
     731                            .clink
     732                            .align  1
     733                            .elfsym ||$P$T0$1||,SYM_SIZE(80)
     734 00000000           ||$P$T0$1||:
     735 00000000 00000048          .bits   72,8                    ; $P$T0$1[0] @ 0
     736 00000000 00005448          .bits   84,8                    ; $P$T0$1[1] @ 8
     737 00000000 00545448          .bits   84,8                    ; $P$T0$1[2] @ 16
     738 00000000 50545448          .bits   80,8                    ; $P$T0$1[3] @ 24
     739 00000004 0000002F          .bits   47,8                    ; $P$T0$1[4] @ 32
     740 00000004 0000312F          .bits   49,8                    ; $P$T0$1[5] @ 40
     741 00000004 002E312F          .bits   46,8                    ; $P$T0$1[6] @ 48
     742 00000004 312E312F          .bits   49,8                    ; $P$T0$1[7] @ 56
     743 00000008 00000020          .bits   32,8                    ; $P$T0$1[8] @ 64
     744 00000008 00003220          .bits   50,8                    ; $P$T0$1[9] @ 72
     745 00000008 00303220          .bits   48,8                    ; $P$T0$1[10] @ 80
     746 00000008 30303220          .bits   48,8                    ; $P$T0$1[11] @ 88
     747 0000000c 00000020          .bits   32,8                    ; $P$T0$1[12] @ 96
     748 0000000c 00004F20          .bits   79,8                    ; $P$T0$1[13] @ 104
     749 0000000c 004B4F20          .bits   75,8                    ; $P$T0$1[14] @ 112
     750 0000000c 0D4B4F20          .bits   13,8                    ; $P$T0$1[15] @ 120
     751 00000010 0000000A          .bits   10,8                    ; $P$T0$1[16] @ 128
     752 00000010 0000430A          .bits   67,8                    ; $P$T0$1[17] @ 136
     753 00000010 006F430A          .bits   111,8                   ; $P$T0$1[18] @ 144
     754 00000010 6E6F430A          .bits   110,8                   ; $P$T0$1[19] @ 152
     755 00000014 00000074          .bits   116,8                   ; $P$T0$1[20] @ 160
     756 00000014 00006574          .bits   101,8                   ; $P$T0$1[21] @ 168
     757 00000014 006E6574          .bits   110,8                   ; $P$T0$1[22] @ 176
     758 00000014 746E6574          .bits   116,8                   ; $P$T0$1[23] @ 184
     759 00000018 0000002D          .bits   45,8                    ; $P$T0$1[24] @ 192
     760 00000018 0000542D          .bits   84,8                    ; $P$T0$1[25] @ 200
     761 00000018 0079542D          .bits   121,8                   ; $P$T0$1[26] @ 208
     762 00000018 7079542D          .bits   112,8                   ; $P$T0$1[27] @ 216
     763 0000001c 00000065          .bits   101,8                   ; $P$T0$1[28] @ 224
     764 0000001c 00003A65          .bits   58,8                    ; $P$T0$1[29] @ 232
     765 0000001c 00203A65          .bits   32,8                    ; $P$T0$1[30] @ 240
     766 0000001c 74203A65          .bits   116,8                   ; $P$T0$1[31] @ 248
     767 00000020 00000065          .bits   101,8                   ; $P$T0$1[32] @ 256
     768 00000020 00007865          .bits   120,8                   ; $P$T0$1[33] @ 264
     769 00000020 00747865          .bits   116,8                   ; $P$T0$1[34] @ 272
     770 00000020 2F747865          .bits   47,8                    ; $P$T0$1[35] @ 280
TI ARM Assembler PC v5.2.4 Sat Feb 06 22:51:21 2016

Tools Copyright (c) 1996-2015 Texas Instruments Incorporated
esp8266.asm                                                          PAGE   15

     771 00000024 00000068          .bits   104,8                   ; $P$T0$1[36] @ 288
     772 00000024 00007468          .bits   116,8                   ; $P$T0$1[37] @ 296
     773 00000024 006D7468          .bits   109,8                   ; $P$T0$1[38] @ 304
     774 00000024 6C6D7468          .bits   108,8                   ; $P$T0$1[39] @ 312
     775 00000028 0000000D          .bits   13,8                    ; $P$T0$1[40] @ 320
     776 00000028 00000A0D          .bits   10,8                    ; $P$T0$1[41] @ 328
     777 00000028 00430A0D          .bits   67,8                    ; $P$T0$1[42] @ 336
     778 00000028 6F430A0D          .bits   111,8                   ; $P$T0$1[43] @ 344
     779 0000002c 0000006E          .bits   110,8                   ; $P$T0$1[44] @ 352
     780 0000002c 00006E6E          .bits   110,8                   ; $P$T0$1[45] @ 360
     781 0000002c 00656E6E          .bits   101,8                   ; $P$T0$1[46] @ 368
     782 0000002c 63656E6E          .bits   99,8                    ; $P$T0$1[47] @ 376
     783 00000030 00000074          .bits   116,8                   ; $P$T0$1[48] @ 384
     784 00000030 00006974          .bits   105,8                   ; $P$T0$1[49] @ 392
     785 00000030 006F6974          .bits   111,8                   ; $P$T0$1[50] @ 400
     786 00000030 6E6F6974          .bits   110,8                   ; $P$T0$1[51] @ 408
     787 00000034 0000003A          .bits   58,8                    ; $P$T0$1[52] @ 416
     788 00000034 0000203A          .bits   32,8                    ; $P$T0$1[53] @ 424
     789 00000034 0063203A          .bits   99,8                    ; $P$T0$1[54] @ 432
     790 00000034 6C63203A          .bits   108,8                   ; $P$T0$1[55] @ 440
     791 00000038 0000006F          .bits   111,8                   ; $P$T0$1[56] @ 448
     792 00000038 0000736F          .bits   115,8                   ; $P$T0$1[57] @ 456
     793 00000038 0065736F          .bits   101,8                   ; $P$T0$1[58] @ 464
     794 00000038 0D65736F          .bits   13,8                    ; $P$T0$1[59] @ 472
     795 0000003c 0000000A          .bits   10,8                    ; $P$T0$1[60] @ 480
     796 0000003c 0000430A          .bits   67,8                    ; $P$T0$1[61] @ 488
     797 0000003c 006F430A          .bits   111,8                   ; $P$T0$1[62] @ 496
     798 0000003c 6E6F430A          .bits   110,8                   ; $P$T0$1[63] @ 504
     799 00000040 00000074          .bits   116,8                   ; $P$T0$1[64] @ 512
     800 00000040 00006574          .bits   101,8                   ; $P$T0$1[65] @ 520
     801 00000040 006E6574          .bits   110,8                   ; $P$T0$1[66] @ 528
     802 00000040 746E6574          .bits   116,8                   ; $P$T0$1[67] @ 536
     803 00000044 0000002D          .bits   45,8                    ; $P$T0$1[68] @ 544
     804 00000044 00004C2D          .bits   76,8                    ; $P$T0$1[69] @ 552
     805 00000044 00654C2D          .bits   101,8                   ; $P$T0$1[70] @ 560
     806 00000044 6E654C2D          .bits   110,8                   ; $P$T0$1[71] @ 568
     807 00000048 00000067          .bits   103,8                   ; $P$T0$1[72] @ 576
     808 00000048 00007467          .bits   116,8                   ; $P$T0$1[73] @ 584
     809 00000048 00687467          .bits   104,8                   ; $P$T0$1[74] @ 592
     810 00000048 3A687467          .bits   58,8                    ; $P$T0$1[75] @ 600
     811 0000004c 00000020          .bits   32,8                    ; $P$T0$1[76] @ 608
     812 0000004c 00000020          .bits   0,8                     ; $P$T0$1[77] @ 616
     813                    
     814                    $C$DW$47        .dwtag  DW_TAG_variable, DW_AT_name("$P$T0$1")
     815                            .dwattr $C$DW$47, DW_AT_TI_symbol_name("$P$T0$1")
     816                            .dwattr $C$DW$47, DW_AT_type(*$C$DW$T$110)
     817                            .dwattr $C$DW$47, DW_AT_location[DW_OP_addr ||$P$T0$1||]
     818                            .dwattr $C$DW$47, DW_AT_decl_file("../esp8266.c")
     819                            .dwattr $C$DW$47, DW_AT_decl_line(0x2f6)
     820                            .dwattr $C$DW$47, DW_AT_decl_column(0x08)
     821                    ;       C:\ti\ccsv6\tools\compiler\ti-cgt-arm_5.2.4\bin\armacpia.exe -@C:\\Users\\VALVAN~1\\AppData\\L
     822 00000000                   .sect   ".text"
     823                            .clink
     824                            .thumbfunc lc
     825 00000000                   .thumb
TI ARM Assembler PC v5.2.4 Sat Feb 06 22:51:21 2016

Tools Copyright (c) 1996-2015 Texas Instruments Incorporated
esp8266.asm                                                          PAGE   16

     826                            .global lc
     827                    
     828                    $C$DW$48        .dwtag  DW_TAG_subprogram, DW_AT_name("lc")
     829                            .dwattr $C$DW$48, DW_AT_low_pc(lc)
     830                            .dwattr $C$DW$48, DW_AT_high_pc(0x00)
     831                            .dwattr $C$DW$48, DW_AT_TI_symbol_name("lc")
     832                            .dwattr $C$DW$48, DW_AT_external
     833                            .dwattr $C$DW$48, DW_AT_type(*$C$DW$T$6)
     834                            .dwattr $C$DW$48, DW_AT_TI_begin_file("../esp8266.c")
     835                            .dwattr $C$DW$48, DW_AT_TI_begin_line(0x76)
     836                            .dwattr $C$DW$48, DW_AT_TI_begin_column(0x06)
     837                            .dwattr $C$DW$48, DW_AT_decl_file("../esp8266.c")
     838                            .dwattr $C$DW$48, DW_AT_decl_line(0x76)
     839                            .dwattr $C$DW$48, DW_AT_decl_column(0x06)
     840                            .dwattr $C$DW$48, DW_AT_TI_max_frame_size(0x08)
     841                            .dwpsn  file "../esp8266.c",line 118,column 21,is_stmt,address lc,isa 1
     842                    
     843                            .dwfde $C$DW$CIE, lc
     844                    $C$DW$49        .dwtag  DW_TAG_formal_parameter, DW_AT_name("letter")
     845                            .dwattr $C$DW$49, DW_AT_TI_symbol_name("letter")
     846                            .dwattr $C$DW$49, DW_AT_type(*$C$DW$T$6)
     847                            .dwattr $C$DW$49, DW_AT_location[DW_OP_reg0]
     848                    
     849                    ;*****************************************************************************
     850                    ;* FUNCTION NAME: lc                                                         *
     851                    ;*                                                                           *
     852                    ;*   Regs Modified     : A1,SP,SR                                            *
     853                    ;*   Regs Used         : A1,SP,LR,SR                                         *
     854                    ;*   Local Frame Size  : 0 Args + 4 Auto + 0 Save = 4 byte                   *
     855                    ;*****************************************************************************
     856 00000000           lc:
     857                    ;* --------------------------------------------------------------------------*
     858                            .dwcfi  cfa_offset, 0
     859 00000000 0D08F1AD          SUB       SP, SP, #8            ; [DPU_3_PIPE]  ; [KEEP 32-BIT INS]
     860                            .dwcfi  cfa_offset, 8
     861                    $C$DW$50        .dwtag  DW_TAG_variable, DW_AT_name("letter")
     862                            .dwattr $C$DW$50, DW_AT_TI_symbol_name("letter")
     863                            .dwattr $C$DW$50, DW_AT_type(*$C$DW$T$6)
     864                            .dwattr $C$DW$50, DW_AT_location[DW_OP_breg13 0]
     865                    ;----------------------------------------------------------------------
     866                    ; 118 | char lc(char letter){                                                  
     867                    ;----------------------------------------------------------------------
     868 00000004 0000F88D          STRB      A1, [SP, #0]          ; [DPU_3_PIPE] |118|  ; [KEEP 32-BIT INS]
     869                            .dwpsn  file "../esp8266.c",line 119,column 3,is_stmt,isa 1
     870                    ;----------------------------------------------------------------------
     871                    ; 119 | if((letter>='A')&&(letter<='Z')) letter |= 0x20;                       
     872                    ;----------------------------------------------------------------------
     873 00000008 0000F89D          LDRB      A1, [SP, #0]          ; [DPU_3_PIPE] |119|  ; [KEEP 32-BIT INS]
     874 0000000c 2841              CMP       A1, #65               ; [DPU_3_PIPE] |119|  ; [ORIG 16-BIT INS]
     875 0000000e DB09              BLT       ||$C$L1||             ; [DPU_3_PIPE] |119|  ; [ORIG 16-BIT INS]
     876                            ; BRANCHCC OCCURS {||$C$L1||}    ; [] |119| 
     877                    ;* --------------------------------------------------------------------------*
     878 00000010 0000F89D          LDRB      A1, [SP, #0]          ; [DPU_3_PIPE] |119|  ; [KEEP 32-BIT INS]
     879 00000014 285A              CMP       A1, #90               ; [DPU_3_PIPE] |119|  ; [ORIG 16-BIT INS]
     880 00000016 DC05              BGT       ||$C$L1||             ; [DPU_3_PIPE] |119|  ; [ORIG 16-BIT INS]
TI ARM Assembler PC v5.2.4 Sat Feb 06 22:51:21 2016

Tools Copyright (c) 1996-2015 Texas Instruments Incorporated
esp8266.asm                                                          PAGE   17

     881                            ; BRANCHCC OCCURS {||$C$L1||}    ; [] |119| 
     882                    ;* --------------------------------------------------------------------------*
     883                            .dwpsn  file "../esp8266.c",line 119,column 36,is_stmt,isa 1
     884 00000018 0000F89D          LDRB      A1, [SP, #0]          ; [DPU_3_PIPE] |119|  ; [KEEP 32-BIT INS]
     885 0000001c 0020F040          ORR       A1, A1, #32           ; [DPU_3_PIPE] |119|  ; [KEEP 32-BIT INS]
     886 00000020 0000F88D          STRB      A1, [SP, #0]          ; [DPU_3_PIPE] |119|  ; [KEEP 32-BIT INS]
     887                    ;* --------------------------------------------------------------------------*
     888 00000024           ||$C$L1||:    
     889                            .dwpsn  file "../esp8266.c",line 120,column 3,is_stmt,isa 1
     890                    ;----------------------------------------------------------------------
     891                    ; 120 | return letter;                                                         
     892                    ;----------------------------------------------------------------------
     893 00000024 0000F89D          LDRB      A1, [SP, #0]          ; [DPU_3_PIPE] |120|  ; [KEEP 32-BIT INS]
     894                            .dwpsn  file "../esp8266.c",line 121,column 1,is_stmt,isa 1
     895 00000028 B002              ADD       SP, SP, #8            ; [DPU_3_PIPE]  ; [ORIG 16-BIT INS]
     896                            .dwcfi  cfa_offset, 0
     897                    $C$DW$51        .dwtag  DW_TAG_TI_branch
     898                            .dwattr $C$DW$51, DW_AT_low_pc(0x00)
     899                            .dwattr $C$DW$51, DW_AT_TI_return
     900 0000002a 4770              BX        LR                    ; [DPU_3_PIPE]  ; [ORIG 16-BIT INS]
     901                            ; BRANCH OCCURS                  ; [] 
     902                            .dwattr $C$DW$48, DW_AT_TI_end_file("../esp8266.c")
     903                            .dwattr $C$DW$48, DW_AT_TI_end_line(0x79)
     904                            .dwattr $C$DW$48, DW_AT_TI_end_column(0x01)
     905                            .dwendentry
     906                            .dwendtag $C$DW$48
     907                    
     908 0000002c                   .sect   ".text"
     909                            .clink
     910                            .thumbfunc SearchStart
     911 0000002c                   .thumb
     912                            .global SearchStart
     913                    
     914                    $C$DW$52        .dwtag  DW_TAG_subprogram, DW_AT_name("SearchStart")
     915                            .dwattr $C$DW$52, DW_AT_low_pc(SearchStart)
     916                            .dwattr $C$DW$52, DW_AT_high_pc(0x00)
     917                            .dwattr $C$DW$52, DW_AT_TI_symbol_name("SearchStart")
     918                            .dwattr $C$DW$52, DW_AT_external
     919                            .dwattr $C$DW$52, DW_AT_TI_begin_file("../esp8266.c")
     920                            .dwattr $C$DW$52, DW_AT_TI_begin_line(0x7e)
     921                            .dwattr $C$DW$52, DW_AT_TI_begin_column(0x06)
     922                            .dwattr $C$DW$52, DW_AT_decl_file("../esp8266.c")
     923                            .dwattr $C$DW$52, DW_AT_decl_line(0x7e)
     924                            .dwattr $C$DW$52, DW_AT_decl_column(0x06)
     925                            .dwattr $C$DW$52, DW_AT_TI_max_frame_size(0x08)
     926                            .dwpsn  file "../esp8266.c",line 126,column 27,is_stmt,address SearchStart,isa 1
     927                    
     928                            .dwfde $C$DW$CIE, SearchStart
     929                    $C$DW$53        .dwtag  DW_TAG_formal_parameter, DW_AT_name("pt")
     930                            .dwattr $C$DW$53, DW_AT_TI_symbol_name("pt")
     931                            .dwattr $C$DW$53, DW_AT_type(*$C$DW$T$35)
     932                            .dwattr $C$DW$53, DW_AT_location[DW_OP_reg0]
     933                    
     934                    ;*****************************************************************************
     935                    ;* FUNCTION NAME: SearchStart                                                *
TI ARM Assembler PC v5.2.4 Sat Feb 06 22:51:21 2016

Tools Copyright (c) 1996-2015 Texas Instruments Incorporated
esp8266.asm                                                          PAGE   18

     936                    ;*                                                                           *
     937                    ;*   Regs Modified     : A1,A2,A3,A4,V9,SP,LR,SR,D0,D0_hi,D1,D1_hi,D2,D2_hi, *
     938                    ;*                           D3,D3_hi,D4,D4_hi,D5,D5_hi,D6,D6_hi,D7,D7_hi,   *
     939                    ;*                           FPEXC,FPSCR                                     *
     940                    ;*   Regs Used         : A1,A2,A3,A4,V9,SP,LR,SR,D0,D0_hi,D1,D1_hi,D2,D2_hi, *
     941                    ;*                           D3,D3_hi,D4,D4_hi,D5,D5_hi,D6,D6_hi,D7,D7_hi,   *
     942                    ;*                           FPEXC,FPSCR                                     *
     943                    ;*   Local Frame Size  : 0 Args + 4 Auto + 4 Save = 8 byte                   *
     944                    ;*****************************************************************************
     945 0000002c           SearchStart:
     946                    ;* --------------------------------------------------------------------------*
     947                            .dwcfi  cfa_offset, 0
     948 0000002c B508              PUSH      {A4, LR}              ; [DPU_3_PIPE]  ; [ORIG 16-BIT INS]
     949                            .dwcfi  cfa_offset, 8
     950                            .dwcfi  save_reg_to_mem, 14, -4
     951                            .dwcfi  save_reg_to_mem, 3, -8
     952                    $C$DW$54        .dwtag  DW_TAG_variable, DW_AT_name("pt")
     953                            .dwattr $C$DW$54, DW_AT_TI_symbol_name("pt")
     954                            .dwattr $C$DW$54, DW_AT_type(*$C$DW$T$35)
     955                            .dwattr $C$DW$54, DW_AT_location[DW_OP_breg13 0]
     956                    ;----------------------------------------------------------------------
     957                    ; 126 | void SearchStart(char *pt){                                            
     958                    ;----------------------------------------------------------------------
     959 0000002e 9000              STR       A1, [SP, #0]          ; [DPU_3_PIPE] |126|  ; [ORIG 16-BIT INS]
     960                            .dwpsn  file "../esp8266.c",line 127,column 3,is_stmt,isa 1
     961                    ;----------------------------------------------------------------------
     962                    ; 127 | strcpy(SearchString,pt);                                               
     963                    ;----------------------------------------------------------------------
     964 00000030 48B3              LDR       A1, $C$CON1           ; [DPU_3_PIPE] |127|  ; [ORIG 16-BIT INS]
     965 00000032 9900              LDR       A2, [SP, #0]          ; [DPU_3_PIPE] |127|  ; [ORIG 16-BIT INS]
     966                    $C$DW$55        .dwtag  DW_TAG_TI_branch
     967                            .dwattr $C$DW$55, DW_AT_low_pc(0x00)
     968                            .dwattr $C$DW$55, DW_AT_name("strcpy")
     969                            .dwattr $C$DW$55, DW_AT_TI_call
     970 00000034 FFFEF7FF!         BL        strcpy                ; [DPU_3_PIPE] |127|  ; [KEEP 32-BIT INS]
     971                            ; CALL OCCURS {strcpy }          ; [] |127| 
     972                            .dwpsn  file "../esp8266.c",line 128,column 3,is_stmt,isa 1
     973                    ;----------------------------------------------------------------------
     974                    ; 128 | SearchIndex = 0;                                                       
     975                    ;----------------------------------------------------------------------
     976 00000038 49BB              LDR       A2, $C$CON2           ; [DPU_3_PIPE] |128|  ; [ORIG 16-BIT INS]
     977 0000003a 2000              MOVS      A1, #0                ; [DPU_3_PIPE] |128|  ; [ORIG 16-BIT INS]
     978 0000003c 6008              STR       A1, [A2, #0]          ; [DPU_3_PIPE] |128|  ; [ORIG 16-BIT INS]
     979                            .dwpsn  file "../esp8266.c",line 129,column 3,is_stmt,isa 1
     980                    ;----------------------------------------------------------------------
     981                    ; 129 | SearchFound = false;                                                   
     982                    ;----------------------------------------------------------------------
     983 0000003e 49BB              LDR       A2, $C$CON3           ; [DPU_3_PIPE] |129|  ; [ORIG 16-BIT INS]
     984 00000040 2000              MOVS      A1, #0                ; [DPU_3_PIPE] |129|  ; [ORIG 16-BIT INS]
     985 00000042 7008              STRB      A1, [A2, #0]          ; [DPU_3_PIPE] |129|  ; [ORIG 16-BIT INS]
     986                            .dwpsn  file "../esp8266.c",line 130,column 3,is_stmt,isa 1
     987                    ;----------------------------------------------------------------------
     988                    ; 130 | SearchLooking = true;                                                  
     989                    ;----------------------------------------------------------------------
     990 00000044 49BA              LDR       A2, $C$CON4           ; [DPU_3_PIPE] |130|  ; [ORIG 16-BIT INS]
TI ARM Assembler PC v5.2.4 Sat Feb 06 22:51:21 2016

Tools Copyright (c) 1996-2015 Texas Instruments Incorporated
esp8266.asm                                                          PAGE   19

     991 00000046 2001              MOVS      A1, #1                ; [DPU_3_PIPE] |130|  ; [ORIG 16-BIT INS]
     992 00000048 7008              STRB      A1, [A2, #0]          ; [DPU_3_PIPE] |130|  ; [ORIG 16-BIT INS]
     993                            .dwpsn  file "../esp8266.c",line 131,column 1,is_stmt,isa 1
     994                    $C$DW$56        .dwtag  DW_TAG_TI_branch
     995                            .dwattr $C$DW$56, DW_AT_low_pc(0x00)
     996                            .dwattr $C$DW$56, DW_AT_TI_return
     997 0000004a BD08              POP       {A4, PC}              ; [DPU_3_PIPE]  ; [ORIG 16-BIT INS]
     998                            .dwcfi  cfa_offset, 0
     999                            ; BRANCH OCCURS                  ; [] 
    1000                            .dwattr $C$DW$52, DW_AT_TI_end_file("../esp8266.c")
    1001                            .dwattr $C$DW$52, DW_AT_TI_end_line(0x83)
    1002                            .dwattr $C$DW$52, DW_AT_TI_end_column(0x01)
    1003                            .dwendentry
    1004                            .dwendtag $C$DW$52
    1005                    
    1006 0000004c                   .sect   ".text"
    1007                            .clink
    1008                            .thumbfunc SearchCheck
    1009 0000004c                   .thumb
    1010                            .global SearchCheck
    1011                    
    1012                    $C$DW$57        .dwtag  DW_TAG_subprogram, DW_AT_name("SearchCheck")
    1013                            .dwattr $C$DW$57, DW_AT_low_pc(SearchCheck)
    1014                            .dwattr $C$DW$57, DW_AT_high_pc(0x00)
    1015                            .dwattr $C$DW$57, DW_AT_TI_symbol_name("SearchCheck")
    1016                            .dwattr $C$DW$57, DW_AT_external
    1017                            .dwattr $C$DW$57, DW_AT_TI_begin_file("../esp8266.c")
    1018                            .dwattr $C$DW$57, DW_AT_TI_begin_line(0x88)
    1019                            .dwattr $C$DW$57, DW_AT_TI_begin_column(0x06)
    1020                            .dwattr $C$DW$57, DW_AT_decl_file("../esp8266.c")
    1021                            .dwattr $C$DW$57, DW_AT_decl_line(0x88)
    1022                            .dwattr $C$DW$57, DW_AT_decl_column(0x06)
    1023                            .dwattr $C$DW$57, DW_AT_TI_max_frame_size(0x08)
    1024                            .dwpsn  file "../esp8266.c",line 136,column 30,is_stmt,address SearchCheck,isa 1
    1025                    
    1026                            .dwfde $C$DW$CIE, SearchCheck
    1027                    $C$DW$58        .dwtag  DW_TAG_formal_parameter, DW_AT_name("letter")
    1028                            .dwattr $C$DW$58, DW_AT_TI_symbol_name("letter")
    1029                            .dwattr $C$DW$58, DW_AT_type(*$C$DW$T$6)
    1030                            .dwattr $C$DW$58, DW_AT_location[DW_OP_reg0]
    1031                    
    1032                    ;*****************************************************************************
    1033                    ;* FUNCTION NAME: SearchCheck                                                *
    1034                    ;*                                                                           *
    1035                    ;*   Regs Modified     : A1,A2,A3,A4,SP,LR,SR,FPEXC,FPSCR                    *
    1036                    ;*   Regs Used         : A1,A2,A3,A4,SP,LR,SR,FPEXC,FPSCR                    *
    1037                    ;*   Local Frame Size  : 0 Args + 4 Auto + 4 Save = 8 byte                   *
    1038                    ;*****************************************************************************
    1039 0000004c           SearchCheck:
    1040                    ;* --------------------------------------------------------------------------*
    1041                            .dwcfi  cfa_offset, 0
    1042 0000004c B508              PUSH      {A4, LR}              ; [DPU_3_PIPE]  ; [ORIG 16-BIT INS]
    1043                            .dwcfi  cfa_offset, 8
    1044                            .dwcfi  save_reg_to_mem, 14, -4
    1045                            .dwcfi  save_reg_to_mem, 3, -8
TI ARM Assembler PC v5.2.4 Sat Feb 06 22:51:21 2016

Tools Copyright (c) 1996-2015 Texas Instruments Incorporated
esp8266.asm                                                          PAGE   20

    1046                    $C$DW$59        .dwtag  DW_TAG_variable, DW_AT_name("letter")
    1047                            .dwattr $C$DW$59, DW_AT_TI_symbol_name("letter")
    1048                            .dwattr $C$DW$59, DW_AT_type(*$C$DW$T$6)
    1049                            .dwattr $C$DW$59, DW_AT_location[DW_OP_breg13 0]
    1050                    ;----------------------------------------------------------------------
    1051                    ; 136 | void SearchCheck(char letter){                                         
    1052                    ;----------------------------------------------------------------------
    1053 0000004e 0000F88D          STRB      A1, [SP, #0]          ; [DPU_3_PIPE] |136|  ; [KEEP 32-BIT INS]
    1054                            .dwpsn  file "../esp8266.c",line 137,column 3,is_stmt,isa 1
    1055                    ;----------------------------------------------------------------------
    1056                    ; 137 | if(SearchLooking){                                                     
    1057                    ;----------------------------------------------------------------------
    1058 00000052 48B7              LDR       A1, $C$CON4           ; [DPU_3_PIPE] |137|  ; [ORIG 16-BIT INS]
    1059 00000054 7800              LDRB      A1, [A1, #0]          ; [DPU_3_PIPE] |137|  ; [ORIG 16-BIT INS]
    1060 00000056 B1E0              CBZ       A1, ||$C$L3||         ; []  ; [ORIG 16-BIT INS]
    1061                            ; BRANCHCC OCCURS {||$C$L3||}    ; [] |137| 
    1062                    ;* --------------------------------------------------------------------------*
    1063                            .dwpsn  file "../esp8266.c",line 138,column 5,is_stmt,isa 1
    1064                    ;----------------------------------------------------------------------
    1065                    ; 138 | if(SearchString[SearchIndex] == lc(letter)){ // match letter?          
    1066                    ;----------------------------------------------------------------------
    1067 00000058 0000F89D          LDRB      A1, [SP, #0]          ; [DPU_3_PIPE] |138|  ; [KEEP 32-BIT INS]
    1068                    $C$DW$60        .dwtag  DW_TAG_TI_branch
    1069                            .dwattr $C$DW$60, DW_AT_low_pc(0x00)
    1070                            .dwattr $C$DW$60, DW_AT_name("lc")
    1071                            .dwattr $C$DW$60, DW_AT_TI_call
    1072 0000005c FFD0F7FF          BL        lc                    ; [DPU_3_PIPE] |138|  ; [KEEP 32-BIT INS]
    1073                            ; CALL OCCURS {lc }              ; [] |138| 
    1074 00000060 49B1              LDR       A2, $C$CON2           ; [DPU_3_PIPE] |138|  ; [ORIG 16-BIT INS]
    1075 00000062 4AA7              LDR       A3, $C$CON1           ; [DPU_3_PIPE] |138|  ; [ORIG 16-BIT INS]
    1076 00000064 6809              LDR       A2, [A2, #0]          ; [DPU_3_PIPE] |138|  ; [ORIG 16-BIT INS]
    1077 00000066 5C51              LDRB      A2, [A3, +A2]         ; [DPU_3_PIPE] |138|  ; [ORIG 16-BIT INS]
    1078 00000068 4288              CMP       A1, A2                ; [DPU_3_PIPE] |138|  ; [ORIG 16-BIT INS]
    1079 0000006a D10F              BNE       ||$C$L2||             ; [DPU_3_PIPE] |138|  ; [ORIG 16-BIT INS]
    1080                            ; BRANCHCC OCCURS {||$C$L2||}    ; [] |138| 
    1081                    ;* --------------------------------------------------------------------------*
    1082                            .dwpsn  file "../esp8266.c",line 139,column 7,is_stmt,isa 1
    1083                    ;----------------------------------------------------------------------
    1084                    ; 139 | SearchIndex++;                                                         
    1085                    ;----------------------------------------------------------------------
    1086 0000006c 49AE              LDR       A2, $C$CON2           ; [DPU_3_PIPE] |139|  ; [ORIG 16-BIT INS]
    1087 0000006e 6808              LDR       A1, [A2, #0]          ; [DPU_3_PIPE] |139|  ; [ORIG 16-BIT INS]
    1088 00000070 1C40              ADDS      A1, A1, #1            ; [DPU_3_PIPE] |139|  ; [ORIG 16-BIT INS]
    1089 00000072 6008              STR       A1, [A2, #0]          ; [DPU_3_PIPE] |139|  ; [ORIG 16-BIT INS]
    1090                            .dwpsn  file "../esp8266.c",line 140,column 7,is_stmt,isa 1
    1091                    ;----------------------------------------------------------------------
    1092                    ; 140 | if(SearchString[SearchIndex] == 0){ // match string?                   
    1093                    ;----------------------------------------------------------------------
    1094 00000074 48AC              LDR       A1, $C$CON2           ; [DPU_3_PIPE] |140|  ; [ORIG 16-BIT INS]
    1095 00000076 49A2              LDR       A2, $C$CON1           ; [DPU_3_PIPE] |140|  ; [ORIG 16-BIT INS]
    1096 00000078 6800              LDR       A1, [A1, #0]          ; [DPU_3_PIPE] |140|  ; [ORIG 16-BIT INS]
    1097 0000007a 5C08              LDRB      A1, [A2, +A1]         ; [DPU_3_PIPE] |140|  ; [ORIG 16-BIT INS]
    1098 0000007c B948              CBNZ      A1, ||$C$L3||         ; []  ; [ORIG 16-BIT INS]
    1099                            ; BRANCHCC OCCURS {||$C$L3||}    ; [] |140| 
    1100                    ;* --------------------------------------------------------------------------*
TI ARM Assembler PC v5.2.4 Sat Feb 06 22:51:21 2016

Tools Copyright (c) 1996-2015 Texas Instruments Incorporated
esp8266.asm                                                          PAGE   21

    1101                            .dwpsn  file "../esp8266.c",line 141,column 9,is_stmt,isa 1
    1102                    ;----------------------------------------------------------------------
    1103                    ; 141 | SearchFound = true;                                                    
    1104                    ;----------------------------------------------------------------------
    1105 0000007e 49AB              LDR       A2, $C$CON3           ; [DPU_3_PIPE] |141|  ; [ORIG 16-BIT INS]
    1106 00000080 2001              MOVS      A1, #1                ; [DPU_3_PIPE] |141|  ; [ORIG 16-BIT INS]
    1107 00000082 7008              STRB      A1, [A2, #0]          ; [DPU_3_PIPE] |141|  ; [ORIG 16-BIT INS]
    1108                            .dwpsn  file "../esp8266.c",line 142,column 9,is_stmt,isa 1
    1109                    ;----------------------------------------------------------------------
    1110                    ; 142 | SearchLooking = false;                                                 
    1111                    ;----------------------------------------------------------------------
    1112 00000084 49AA              LDR       A2, $C$CON4           ; [DPU_3_PIPE] |142|  ; [ORIG 16-BIT INS]
    1113 00000086 2000              MOVS      A1, #0                ; [DPU_3_PIPE] |142|  ; [ORIG 16-BIT INS]
    1114 00000088 7008              STRB      A1, [A2, #0]          ; [DPU_3_PIPE] |142|  ; [ORIG 16-BIT INS]
    1115                            .dwpsn  file "../esp8266.c",line 144,column 5,is_stmt,isa 1
    1116                    ;----------------------------------------------------------------------
    1117                    ; 144 | }else{                                                                 
    1118                    ;----------------------------------------------------------------------
    1119 0000008a E002              B         ||$C$L3||             ; [DPU_3_PIPE] |144|  ; [ORIG 16-BIT INS]
    1120                            ; BRANCH OCCURS {||$C$L3||}      ; [] |144| 
    1121                    ;* --------------------------------------------------------------------------*
    1122 0000008c           ||$C$L2||:    
    1123                            .dwpsn  file "../esp8266.c",line 145,column 7,is_stmt,isa 1
    1124                    ;----------------------------------------------------------------------
    1125                    ; 145 | SearchIndex = 0; // start over                                         
    1126                    ;----------------------------------------------------------------------
    1127 0000008c 49A6              LDR       A2, $C$CON2           ; [DPU_3_PIPE] |145|  ; [ORIG 16-BIT INS]
    1128 0000008e 2000              MOVS      A1, #0                ; [DPU_3_PIPE] |145|  ; [ORIG 16-BIT INS]
    1129 00000090 6008              STR       A1, [A2, #0]          ; [DPU_3_PIPE] |145|  ; [ORIG 16-BIT INS]
    1130                            .dwpsn  file "../esp8266.c",line 148,column 1,is_stmt,isa 1
    1131                    ;* --------------------------------------------------------------------------*
    1132                    ||$C$L3||:    
    1133                    $C$DW$61        .dwtag  DW_TAG_TI_branch
    1134                            .dwattr $C$DW$61, DW_AT_low_pc(0x00)
    1135                            .dwattr $C$DW$61, DW_AT_TI_return
    1136 00000092 BD08              POP       {A4, PC}              ; [DPU_3_PIPE]  ; [ORIG 16-BIT INS]
    1137                            .dwcfi  cfa_offset, 0
    1138                            ; BRANCH OCCURS                  ; [] 
    1139                            .dwattr $C$DW$57, DW_AT_TI_end_file("../esp8266.c")
    1140                            .dwattr $C$DW$57, DW_AT_TI_end_line(0x94)
    1141                            .dwattr $C$DW$57, DW_AT_TI_end_column(0x01)
    1142                            .dwendentry
    1143                            .dwendtag $C$DW$57
    1144                    
    1145 00000094                   .sect   ".text"
    1146                            .clink
    1147                            .thumbfunc ServerResponseSearchStart
    1148 00000094                   .thumb
    1149                            .global ServerResponseSearchStart
    1150                    
    1151                    $C$DW$62        .dwtag  DW_TAG_subprogram, DW_AT_name("ServerResponseSearchStart")
    1152                            .dwattr $C$DW$62, DW_AT_low_pc(ServerResponseSearchStart)
    1153                            .dwattr $C$DW$62, DW_AT_high_pc(0x00)
    1154                            .dwattr $C$DW$62, DW_AT_TI_symbol_name("ServerResponseSearchStart")
    1155                            .dwattr $C$DW$62, DW_AT_external
TI ARM Assembler PC v5.2.4 Sat Feb 06 22:51:21 2016

Tools Copyright (c) 1996-2015 Texas Instruments Incorporated
esp8266.asm                                                          PAGE   22

    1156                            .dwattr $C$DW$62, DW_AT_TI_begin_file("../esp8266.c")
    1157                            .dwattr $C$DW$62, DW_AT_TI_begin_line(0x9f)
    1158                            .dwattr $C$DW$62, DW_AT_TI_begin_column(0x06)
    1159                            .dwattr $C$DW$62, DW_AT_decl_file("../esp8266.c")
    1160                            .dwattr $C$DW$62, DW_AT_decl_line(0x9f)
    1161                            .dwattr $C$DW$62, DW_AT_decl_column(0x06)
    1162                            .dwattr $C$DW$62, DW_AT_TI_max_frame_size(0x08)
    1163                            .dwpsn  file "../esp8266.c",line 159,column 37,is_stmt,address ServerResponseSearchStart,isa 1
    1164                    
    1165                            .dwfde $C$DW$CIE, ServerResponseSearchStart
    1166                    ;----------------------------------------------------------------------
    1167                    ; 159 | void ServerResponseSearchStart(void){                                  
    1168                    ;----------------------------------------------------------------------
    1169                    
    1170                    ;*****************************************************************************
    1171                    ;* FUNCTION NAME: ServerResponseSearchStart                                  *
    1172                    ;*                                                                           *
    1173                    ;*   Regs Modified     : A1,A2,A3,A4,V9,SP,LR,SR,D0,D0_hi,D1,D1_hi,D2,D2_hi, *
    1174                    ;*                           D3,D3_hi,D4,D4_hi,D5,D5_hi,D6,D6_hi,D7,D7_hi,   *
    1175                    ;*                           FPEXC,FPSCR                                     *
    1176                    ;*   Regs Used         : A1,A2,A3,A4,V9,SP,LR,SR,D0,D0_hi,D1,D1_hi,D2,D2_hi, *
    1177                    ;*                           D3,D3_hi,D4,D4_hi,D5,D5_hi,D6,D6_hi,D7,D7_hi,   *
    1178                    ;*                           FPEXC,FPSCR                                     *
    1179                    ;*   Local Frame Size  : 0 Args + 0 Auto + 4 Save = 4 byte                   *
    1180                    ;*****************************************************************************
    1181 00000094           ServerResponseSearchStart:
    1182                    ;* --------------------------------------------------------------------------*
    1183                            .dwcfi  cfa_offset, 0
    1184 00000094 B508              PUSH      {A4, LR}              ; [DPU_3_PIPE]  ; [ORIG 16-BIT INS]
    1185                            .dwcfi  cfa_offset, 8
    1186                            .dwcfi  save_reg_to_mem, 14, -4
    1187                            .dwcfi  save_reg_to_mem, 3, -8
    1188                            .dwpsn  file "../esp8266.c",line 160,column 3,is_stmt,isa 1
    1189                    ;----------------------------------------------------------------------
    1190                    ; 160 | strcpy(ServerResponseSearchString,"+ipd,");                            
    1191                    ;----------------------------------------------------------------------
    1192 00000096 48B5              LDR       A1, $C$CON5           ; [DPU_3_PIPE] |160|  ; [ORIG 16-BIT INS]
    1193 00000098 A1B2              ADR       A2, $C$SL1            ; [DPU_3_PIPE] |160|  ; [ORIG 16-BIT INS]
    1194                    $C$DW$63        .dwtag  DW_TAG_TI_branch
    1195                            .dwattr $C$DW$63, DW_AT_low_pc(0x00)
    1196                            .dwattr $C$DW$63, DW_AT_name("strcpy")
    1197                            .dwattr $C$DW$63, DW_AT_TI_call
    1198 0000009a FFFEF7FF!         BL        strcpy                ; [DPU_3_PIPE] |160|  ; [KEEP 32-BIT INS]
    1199                            ; CALL OCCURS {strcpy }          ; [] |160| 
    1200                            .dwpsn  file "../esp8266.c",line 161,column 3,is_stmt,isa 1
    1201                    ;----------------------------------------------------------------------
    1202                    ; 161 | ServerResponseSearchIndex = 0;                                         
    1203                    ;----------------------------------------------------------------------
    1204 0000009e 49B4              LDR       A2, $C$CON6           ; [DPU_3_PIPE] |161|  ; [ORIG 16-BIT INS]
    1205 000000a0 2000              MOVS      A1, #0                ; [DPU_3_PIPE] |161|  ; [ORIG 16-BIT INS]
    1206 000000a2 6008              STR       A1, [A2, #0]          ; [DPU_3_PIPE] |161|  ; [ORIG 16-BIT INS]
    1207                            .dwpsn  file "../esp8266.c",line 162,column 3,is_stmt,isa 1
    1208                    ;----------------------------------------------------------------------
    1209                    ; 162 | ServerResponseSearchLooking = 1; // means look for "+IPD"              
    1210                    ;----------------------------------------------------------------------
TI ARM Assembler PC v5.2.4 Sat Feb 06 22:51:21 2016

Tools Copyright (c) 1996-2015 Texas Instruments Incorporated
esp8266.asm                                                          PAGE   23

    1211 000000a4 49B3              LDR       A2, $C$CON7           ; [DPU_3_PIPE] |162|  ; [ORIG 16-BIT INS]
    1212 000000a6 2001              MOVS      A1, #1                ; [DPU_3_PIPE] |162|  ; [ORIG 16-BIT INS]
    1213 000000a8 6008              STR       A1, [A2, #0]          ; [DPU_3_PIPE] |162|  ; [ORIG 16-BIT INS]
    1214                            .dwpsn  file "../esp8266.c",line 163,column 3,is_stmt,isa 1
    1215                    ;----------------------------------------------------------------------
    1216                    ; 163 | ServerResponseSearchFinished = 0;                                      
    1217                    ;----------------------------------------------------------------------
    1218 000000aa 49B3              LDR       A2, $C$CON8           ; [DPU_3_PIPE] |163|  ; [ORIG 16-BIT INS]
    1219 000000ac 2000              MOVS      A1, #0                ; [DPU_3_PIPE] |163|  ; [ORIG 16-BIT INS]
    1220 000000ae 6008              STR       A1, [A2, #0]          ; [DPU_3_PIPE] |163|  ; [ORIG 16-BIT INS]
    1221                            .dwpsn  file "../esp8266.c",line 164,column 3,is_stmt,isa 1
    1222                    ;----------------------------------------------------------------------
    1223                    ; 164 | ServerResponseIndex = 0;                                               
    1224                    ;----------------------------------------------------------------------
    1225 000000b0 49B2              LDR       A2, $C$CON9           ; [DPU_3_PIPE] |164|  ; [ORIG 16-BIT INS]
    1226 000000b2 2000              MOVS      A1, #0                ; [DPU_3_PIPE] |164|  ; [ORIG 16-BIT INS]
    1227 000000b4 6008              STR       A1, [A2, #0]          ; [DPU_3_PIPE] |164|  ; [ORIG 16-BIT INS]
    1228                            .dwpsn  file "../esp8266.c",line 165,column 1,is_stmt,isa 1
    1229                    $C$DW$64        .dwtag  DW_TAG_TI_branch
    1230                            .dwattr $C$DW$64, DW_AT_low_pc(0x00)
    1231                            .dwattr $C$DW$64, DW_AT_TI_return
    1232 000000b6 BD08              POP       {A4, PC}              ; [DPU_3_PIPE]  ; [ORIG 16-BIT INS]
    1233                            .dwcfi  cfa_offset, 0
    1234                            ; BRANCH OCCURS                  ; [] 
    1235                            .dwattr $C$DW$62, DW_AT_TI_end_file("../esp8266.c")
    1236                            .dwattr $C$DW$62, DW_AT_TI_end_line(0xa5)
    1237                            .dwattr $C$DW$62, DW_AT_TI_end_column(0x01)
    1238                            .dwendentry
    1239                            .dwendtag $C$DW$62
    1240                    
    1241 000000b8                   .sect   ".text"
    1242                            .clink
    1243                            .thumbfunc ServerResponseSearchCheck
    1244 000000b8                   .thumb
    1245                            .global ServerResponseSearchCheck
    1246                    
    1247                    $C$DW$65        .dwtag  DW_TAG_subprogram, DW_AT_name("ServerResponseSearchCheck")
    1248                            .dwattr $C$DW$65, DW_AT_low_pc(ServerResponseSearchCheck)
    1249                            .dwattr $C$DW$65, DW_AT_high_pc(0x00)
    1250                            .dwattr $C$DW$65, DW_AT_TI_symbol_name("ServerResponseSearchCheck")
    1251                            .dwattr $C$DW$65, DW_AT_external
    1252                            .dwattr $C$DW$65, DW_AT_TI_begin_file("../esp8266.c")
    1253                            .dwattr $C$DW$65, DW_AT_TI_begin_line(0xab)
    1254                            .dwattr $C$DW$65, DW_AT_TI_begin_column(0x06)
    1255                            .dwattr $C$DW$65, DW_AT_decl_file("../esp8266.c")
    1256                            .dwattr $C$DW$65, DW_AT_decl_line(0xab)
    1257                            .dwattr $C$DW$65, DW_AT_decl_column(0x06)
    1258                            .dwattr $C$DW$65, DW_AT_TI_max_frame_size(0x08)
    1259                            .dwpsn  file "../esp8266.c",line 171,column 44,is_stmt,address ServerResponseSearchCheck,isa 1
    1260                    
    1261                            .dwfde $C$DW$CIE, ServerResponseSearchCheck
    1262                    $C$DW$66        .dwtag  DW_TAG_formal_parameter, DW_AT_name("letter")
    1263                            .dwattr $C$DW$66, DW_AT_TI_symbol_name("letter")
    1264                            .dwattr $C$DW$66, DW_AT_type(*$C$DW$T$6)
    1265                            .dwattr $C$DW$66, DW_AT_location[DW_OP_reg0]
TI ARM Assembler PC v5.2.4 Sat Feb 06 22:51:21 2016

Tools Copyright (c) 1996-2015 Texas Instruments Incorporated
esp8266.asm                                                          PAGE   24

    1266                    
    1267                    ;*****************************************************************************
    1268                    ;* FUNCTION NAME: ServerResponseSearchCheck                                  *
    1269                    ;*                                                                           *
    1270                    ;*   Regs Modified     : A1,A2,A3,A4,V9,SP,LR,SR,D0,D0_hi,D1,D1_hi,D2,D2_hi, *
    1271                    ;*                           D3,D3_hi,D4,D4_hi,D5,D5_hi,D6,D6_hi,D7,D7_hi,   *
    1272                    ;*                           FPEXC,FPSCR                                     *
    1273                    ;*   Regs Used         : A1,A2,A3,A4,V9,SP,LR,SR,D0,D0_hi,D1,D1_hi,D2,D2_hi, *
    1274                    ;*                           D3,D3_hi,D4,D4_hi,D5,D5_hi,D6,D6_hi,D7,D7_hi,   *
    1275                    ;*                           FPEXC,FPSCR                                     *
    1276                    ;*   Local Frame Size  : 0 Args + 4 Auto + 4 Save = 8 byte                   *
    1277                    ;*****************************************************************************
    1278 000000b8           ServerResponseSearchCheck:
    1279                    ;* --------------------------------------------------------------------------*
    1280                            .dwcfi  cfa_offset, 0
    1281 000000b8 B508              PUSH      {A4, LR}              ; [DPU_3_PIPE]  ; [ORIG 16-BIT INS]
    1282                            .dwcfi  cfa_offset, 8
    1283                            .dwcfi  save_reg_to_mem, 14, -4
    1284                            .dwcfi  save_reg_to_mem, 3, -8
    1285                    $C$DW$67        .dwtag  DW_TAG_variable, DW_AT_name("letter")
    1286                            .dwattr $C$DW$67, DW_AT_TI_symbol_name("letter")
    1287                            .dwattr $C$DW$67, DW_AT_type(*$C$DW$T$6)
    1288                            .dwattr $C$DW$67, DW_AT_location[DW_OP_breg13 0]
    1289                    ;----------------------------------------------------------------------
    1290                    ; 171 | void ServerResponseSearchCheck(char letter){                           
    1291                    ;----------------------------------------------------------------------
    1292 000000ba 0000F88D          STRB      A1, [SP, #0]          ; [DPU_3_PIPE] |171|  ; [KEEP 32-BIT INS]
    1293                            .dwpsn  file "../esp8266.c",line 172,column 3,is_stmt,isa 1
    1294                    ;----------------------------------------------------------------------
    1295                    ; 172 | if(ServerResponseSearchLooking==1){                                    
    1296                    ;----------------------------------------------------------------------
    1297 000000be 48AD              LDR       A1, $C$CON7           ; [DPU_3_PIPE] |172|  ; [ORIG 16-BIT INS]
    1298 000000c0 6800              LDR       A1, [A1, #0]          ; [DPU_3_PIPE] |172|  ; [ORIG 16-BIT INS]
    1299 000000c2 2801              CMP       A1, #1                ; [DPU_3_PIPE] |172|  ; [ORIG 16-BIT INS]
    1300 000000c4 D122              BNE       ||$C$L5||             ; [DPU_3_PIPE] |172|  ; [ORIG 16-BIT INS]
    1301                            ; BRANCHCC OCCURS {||$C$L5||}    ; [] |172| 
    1302                    ;* --------------------------------------------------------------------------*
    1303                            .dwpsn  file "../esp8266.c",line 173,column 5,is_stmt,isa 1
    1304                    ;----------------------------------------------------------------------
    1305                    ; 173 | if(ServerResponseSearchString[ServerResponseSearchIndex] == lc(letter))
    1306                    ;     | { // match letter?                                                     
    1307                    ;----------------------------------------------------------------------
    1308 000000c6 0000F89D          LDRB      A1, [SP, #0]          ; [DPU_3_PIPE] |173|  ; [KEEP 32-BIT INS]
    1309                    $C$DW$68        .dwtag  DW_TAG_TI_branch
    1310                            .dwattr $C$DW$68, DW_AT_low_pc(0x00)
    1311                            .dwattr $C$DW$68, DW_AT_name("lc")
    1312                            .dwattr $C$DW$68, DW_AT_TI_call
    1313 000000ca FF99F7FF          BL        lc                    ; [DPU_3_PIPE] |173|  ; [KEEP 32-BIT INS]
    1314                            ; CALL OCCURS {lc }              ; [] |173| 
    1315 000000ce 49A8              LDR       A2, $C$CON6           ; [DPU_3_PIPE] |173|  ; [ORIG 16-BIT INS]
    1316 000000d0 4AA6              LDR       A3, $C$CON5           ; [DPU_3_PIPE] |173|  ; [ORIG 16-BIT INS]
    1317 000000d2 6809              LDR       A2, [A2, #0]          ; [DPU_3_PIPE] |173|  ; [ORIG 16-BIT INS]
    1318 000000d4 5C51              LDRB      A2, [A3, +A2]         ; [DPU_3_PIPE] |173|  ; [ORIG 16-BIT INS]
    1319 000000d6 4288              CMP       A1, A2                ; [DPU_3_PIPE] |173|  ; [ORIG 16-BIT INS]
    1320 000000d8 D114              BNE       ||$C$L4||             ; [DPU_3_PIPE] |173|  ; [ORIG 16-BIT INS]
TI ARM Assembler PC v5.2.4 Sat Feb 06 22:51:21 2016

Tools Copyright (c) 1996-2015 Texas Instruments Incorporated
esp8266.asm                                                          PAGE   25

    1321                            ; BRANCHCC OCCURS {||$C$L4||}    ; [] |173| 
    1322                    ;* --------------------------------------------------------------------------*
    1323                            .dwpsn  file "../esp8266.c",line 174,column 7,is_stmt,isa 1
    1324                    ;----------------------------------------------------------------------
    1325                    ; 174 | ServerResponseSearchIndex++;                                           
    1326                    ;----------------------------------------------------------------------
    1327 000000da 49A5              LDR       A2, $C$CON6           ; [DPU_3_PIPE] |174|  ; [ORIG 16-BIT INS]
    1328 000000dc 6808              LDR       A1, [A2, #0]          ; [DPU_3_PIPE] |174|  ; [ORIG 16-BIT INS]
    1329 000000de 1C40              ADDS      A1, A1, #1            ; [DPU_3_PIPE] |174|  ; [ORIG 16-BIT INS]
    1330 000000e0 6008              STR       A1, [A2, #0]          ; [DPU_3_PIPE] |174|  ; [ORIG 16-BIT INS]
    1331                            .dwpsn  file "../esp8266.c",line 175,column 7,is_stmt,isa 1
    1332                    ;----------------------------------------------------------------------
    1333                    ; 175 | if(ServerResponseSearchString[ServerResponseSearchIndex] == 0){ // matc
    1334                    ;     | h string?                                                              
    1335                    ;----------------------------------------------------------------------
    1336 000000e2 48A3              LDR       A1, $C$CON6           ; [DPU_3_PIPE] |175|  ; [ORIG 16-BIT INS]
    1337 000000e4 49A1              LDR       A2, $C$CON5           ; [DPU_3_PIPE] |175|  ; [ORIG 16-BIT INS]
    1338 000000e6 6800              LDR       A1, [A1, #0]          ; [DPU_3_PIPE] |175|  ; [ORIG 16-BIT INS]
    1339 000000e8 5C08              LDRB      A1, [A2, +A1]         ; [DPU_3_PIPE] |175|  ; [ORIG 16-BIT INS]
    1340 000000ea 2800              CMP       A1, #0                ; [DPU_3_PIPE] |175|  ; [ORIG 16-BIT INS]
    1341 000000ec D13F              BNE       ||$C$L8||             ; [DPU_3_PIPE] |175|  ; [ORIG 16-BIT INS]
    1342                            ; BRANCHCC OCCURS {||$C$L8||}    ; [] |175| 
    1343                    ;* --------------------------------------------------------------------------*
    1344                            .dwpsn  file "../esp8266.c",line 176,column 9,is_stmt,isa 1
    1345                    ;----------------------------------------------------------------------
    1346                    ; 176 | ServerResponseSearchLooking = 2;                                       
    1347                    ;----------------------------------------------------------------------
    1348 000000ee 49A1              LDR       A2, $C$CON7           ; [DPU_3_PIPE] |176|  ; [ORIG 16-BIT INS]
    1349 000000f0 2002              MOVS      A1, #2                ; [DPU_3_PIPE] |176|  ; [ORIG 16-BIT INS]
    1350 000000f2 6008              STR       A1, [A2, #0]          ; [DPU_3_PIPE] |176|  ; [ORIG 16-BIT INS]
    1351                            .dwpsn  file "../esp8266.c",line 177,column 9,is_stmt,isa 1
    1352                    ;----------------------------------------------------------------------
    1353                    ; 177 | strcpy(ServerResponseSearchString,"\r\nok\r\n");                       
    1354                    ;----------------------------------------------------------------------
    1355 000000f4 489D              LDR       A1, $C$CON5           ; [DPU_3_PIPE] |177|  ; [ORIG 16-BIT INS]
    1356 000000f6 A1B0              ADR       A2, $C$SL2            ; [DPU_3_PIPE] |177|  ; [ORIG 16-BIT INS]
    1357                    $C$DW$69        .dwtag  DW_TAG_TI_branch
    1358                            .dwattr $C$DW$69, DW_AT_low_pc(0x00)
    1359                            .dwattr $C$DW$69, DW_AT_name("strcpy")
    1360                            .dwattr $C$DW$69, DW_AT_TI_call
    1361 000000f8 FFFEF7FF!         BL        strcpy                ; [DPU_3_PIPE] |177|  ; [KEEP 32-BIT INS]
    1362                            ; CALL OCCURS {strcpy }          ; [] |177| 
    1363                            .dwpsn  file "../esp8266.c",line 178,column 9,is_stmt,isa 1
    1364                    ;----------------------------------------------------------------------
    1365                    ; 178 | ServerResponseSearchIndex = 0;                                         
    1366                    ;----------------------------------------------------------------------
    1367 000000fc 499C              LDR       A2, $C$CON6           ; [DPU_3_PIPE] |178|  ; [ORIG 16-BIT INS]
    1368 000000fe 2000              MOVS      A1, #0                ; [DPU_3_PIPE] |178|  ; [ORIG 16-BIT INS]
    1369 00000100 6008              STR       A1, [A2, #0]          ; [DPU_3_PIPE] |178|  ; [ORIG 16-BIT INS]
    1370                            .dwpsn  file "../esp8266.c",line 180,column 5,is_stmt,isa 1
    1371                    ;----------------------------------------------------------------------
    1372                    ; 180 | }else{                                                                 
    1373                    ;----------------------------------------------------------------------
    1374 00000102 E034              B         ||$C$L8||             ; [DPU_3_PIPE] |180|  ; [ORIG 16-BIT INS]
    1375                            ; BRANCH OCCURS {||$C$L8||}      ; [] |180| 
TI ARM Assembler PC v5.2.4 Sat Feb 06 22:51:21 2016

Tools Copyright (c) 1996-2015 Texas Instruments Incorporated
esp8266.asm                                                          PAGE   26

    1376                    ;* --------------------------------------------------------------------------*
    1377 00000104           ||$C$L4||:    
    1378                            .dwpsn  file "../esp8266.c",line 181,column 7,is_stmt,isa 1
    1379                    ;----------------------------------------------------------------------
    1380                    ; 181 | ServerResponseSearchIndex = 0; // start over                           
    1381                    ;----------------------------------------------------------------------
    1382 00000104 499A              LDR       A2, $C$CON6           ; [DPU_3_PIPE] |181|  ; [ORIG 16-BIT INS]
    1383 00000106 2000              MOVS      A1, #0                ; [DPU_3_PIPE] |181|  ; [ORIG 16-BIT INS]
    1384 00000108 6008              STR       A1, [A2, #0]          ; [DPU_3_PIPE] |181|  ; [ORIG 16-BIT INS]
    1385                            .dwpsn  file "../esp8266.c",line 183,column 3,is_stmt,isa 1
    1386                    ;----------------------------------------------------------------------
    1387                    ; 183 | }else if(ServerResponseSearchLooking==2){                              
    1388                    ;----------------------------------------------------------------------
    1389 0000010a E030              B         ||$C$L8||             ; [DPU_3_PIPE] |183|  ; [ORIG 16-BIT INS]
    1390                            ; BRANCH OCCURS {||$C$L8||}      ; [] |183| 
    1391                    ;* --------------------------------------------------------------------------*
    1392 0000010c           ||$C$L5||:    
    1393                            .dwpsn  file "../esp8266.c",line 183,column 9,is_stmt,isa 1
    1394 0000010c 4899              LDR       A1, $C$CON7           ; [DPU_3_PIPE] |183|  ; [ORIG 16-BIT INS]
    1395 0000010e 6800              LDR       A1, [A1, #0]          ; [DPU_3_PIPE] |183|  ; [ORIG 16-BIT INS]
    1396 00000110 2802              CMP       A1, #2                ; [DPU_3_PIPE] |183|  ; [ORIG 16-BIT INS]
    1397 00000112 D12C              BNE       ||$C$L8||             ; [DPU_3_PIPE] |183|  ; [ORIG 16-BIT INS]
    1398                            ; BRANCHCC OCCURS {||$C$L8||}    ; [] |183| 
    1399                    ;* --------------------------------------------------------------------------*
    1400                            .dwpsn  file "../esp8266.c",line 184,column 5,is_stmt,isa 1
    1401                    ;----------------------------------------------------------------------
    1402                    ; 184 | if(ServerResponseIndex < SERVER_RESPONSE_SIZE){                        
    1403                    ;----------------------------------------------------------------------
    1404 00000114 4899              LDR       A1, $C$CON9           ; [DPU_3_PIPE] |184|  ; [ORIG 16-BIT INS]
    1405 00000116 6800              LDR       A1, [A1, #0]          ; [DPU_3_PIPE] |184|  ; [ORIG 16-BIT INS]
    1406 00000118 0A80              LSRS      A1, A1, #10           ; [DPU_3_PIPE] |184|  ; [ORIG 16-BIT INS]
    1407 0000011a D10B              BNE       ||$C$L6||             ; [DPU_3_PIPE] |184|  ; [ORIG 16-BIT INS]
    1408                            ; BRANCHCC OCCURS {||$C$L6||}    ; [] |184| 
    1409                    ;* --------------------------------------------------------------------------*
    1410                            .dwpsn  file "../esp8266.c",line 185,column 7,is_stmt,isa 1
    1411                    ;----------------------------------------------------------------------
    1412                    ; 185 | ServerResponseBuffer[ServerResponseIndex] = lc(letter); // copy data fr
    1413                    ;     | om "+IPD," to "OK"                                                     
    1414                    ;----------------------------------------------------------------------
    1415 0000011c 0000F89D          LDRB      A1, [SP, #0]          ; [DPU_3_PIPE] |185|  ; [KEEP 32-BIT INS]
    1416                    $C$DW$70        .dwtag  DW_TAG_TI_branch
    1417                            .dwattr $C$DW$70, DW_AT_low_pc(0x00)
    1418                            .dwattr $C$DW$70, DW_AT_name("lc")
    1419                            .dwattr $C$DW$70, DW_AT_TI_call
    1420 00000120 FF6EF7FF          BL        lc                    ; [DPU_3_PIPE] |185|  ; [KEEP 32-BIT INS]
    1421                            ; CALL OCCURS {lc }              ; [] |185| 
    1422 00000124 4995              LDR       A2, $C$CON9           ; [DPU_3_PIPE] |185|  ; [ORIG 16-BIT INS]
    1423 00000126 4AA6              LDR       A3, $C$CON10          ; [DPU_3_PIPE] |185|  ; [ORIG 16-BIT INS]
    1424 00000128 6809              LDR       A2, [A2, #0]          ; [DPU_3_PIPE] |185|  ; [ORIG 16-BIT INS]
    1425 0000012a 5450              STRB      A1, [A3, +A2]         ; [DPU_3_PIPE] |185|  ; [ORIG 16-BIT INS]
    1426                            .dwpsn  file "../esp8266.c",line 186,column 7,is_stmt,isa 1
    1427                    ;----------------------------------------------------------------------
    1428                    ; 186 | ServerResponseIndex++;                                                 
    1429                    ;----------------------------------------------------------------------
    1430 0000012c 4993              LDR       A2, $C$CON9           ; [DPU_3_PIPE] |186|  ; [ORIG 16-BIT INS]
TI ARM Assembler PC v5.2.4 Sat Feb 06 22:51:21 2016

Tools Copyright (c) 1996-2015 Texas Instruments Incorporated
esp8266.asm                                                          PAGE   27

    1431 0000012e 6808              LDR       A1, [A2, #0]          ; [DPU_3_PIPE] |186|  ; [ORIG 16-BIT INS]
    1432 00000130 1C40              ADDS      A1, A1, #1            ; [DPU_3_PIPE] |186|  ; [ORIG 16-BIT INS]
    1433 00000132 6008              STR       A1, [A2, #0]          ; [DPU_3_PIPE] |186|  ; [ORIG 16-BIT INS]
    1434                    ;* --------------------------------------------------------------------------*
    1435 00000134           ||$C$L6||:    
    1436                            .dwpsn  file "../esp8266.c",line 188,column 5,is_stmt,isa 1
    1437                    ;----------------------------------------------------------------------
    1438                    ; 188 | if(ServerResponseSearchString[ServerResponseSearchIndex] == lc(letter))
    1439                    ;     | { // match letter?                                                     
    1440                    ;----------------------------------------------------------------------
    1441 00000134 0000F89D          LDRB      A1, [SP, #0]          ; [DPU_3_PIPE] |188|  ; [KEEP 32-BIT INS]
    1442                    $C$DW$71        .dwtag  DW_TAG_TI_branch
    1443                            .dwattr $C$DW$71, DW_AT_low_pc(0x00)
    1444                            .dwattr $C$DW$71, DW_AT_name("lc")
    1445                            .dwattr $C$DW$71, DW_AT_TI_call
    1446 00000138 FF62F7FF          BL        lc                    ; [DPU_3_PIPE] |188|  ; [KEEP 32-BIT INS]
    1447                            ; CALL OCCURS {lc }              ; [] |188| 
    1448 0000013c 498C              LDR       A2, $C$CON6           ; [DPU_3_PIPE] |188|  ; [ORIG 16-BIT INS]
    1449 0000013e 4A8B              LDR       A3, $C$CON5           ; [DPU_3_PIPE] |188|  ; [ORIG 16-BIT INS]
    1450 00000140 6809              LDR       A2, [A2, #0]          ; [DPU_3_PIPE] |188|  ; [ORIG 16-BIT INS]
    1451 00000142 5C51              LDRB      A2, [A3, +A2]         ; [DPU_3_PIPE] |188|  ; [ORIG 16-BIT INS]
    1452 00000144 4288              CMP       A1, A2                ; [DPU_3_PIPE] |188|  ; [ORIG 16-BIT INS]
    1453 00000146 D10F              BNE       ||$C$L7||             ; [DPU_3_PIPE] |188|  ; [ORIG 16-BIT INS]
    1454                            ; BRANCHCC OCCURS {||$C$L7||}    ; [] |188| 
    1455                    ;* --------------------------------------------------------------------------*
    1456                            .dwpsn  file "../esp8266.c",line 189,column 7,is_stmt,isa 1
    1457                    ;----------------------------------------------------------------------
    1458                    ; 189 | ServerResponseSearchIndex++;                                           
    1459                    ;----------------------------------------------------------------------
    1460 00000148 4989              LDR       A2, $C$CON6           ; [DPU_3_PIPE] |189|  ; [ORIG 16-BIT INS]
    1461 0000014a 6808              LDR       A1, [A2, #0]          ; [DPU_3_PIPE] |189|  ; [ORIG 16-BIT INS]
    1462 0000014c 1C40              ADDS      A1, A1, #1            ; [DPU_3_PIPE] |189|  ; [ORIG 16-BIT INS]
    1463 0000014e 6008              STR       A1, [A2, #0]          ; [DPU_3_PIPE] |189|  ; [ORIG 16-BIT INS]
    1464                            .dwpsn  file "../esp8266.c",line 190,column 7,is_stmt,isa 1
    1465                    ;----------------------------------------------------------------------
    1466                    ; 190 | if(ServerResponseSearchString[ServerResponseSearchIndex] == 0){   // ma
    1467                    ;     | tch OK string?                                                         
    1468                    ;----------------------------------------------------------------------
    1469 00000150 4887              LDR       A1, $C$CON6           ; [DPU_3_PIPE] |190|  ; [ORIG 16-BIT INS]
    1470 00000152 4986              LDR       A2, $C$CON5           ; [DPU_3_PIPE] |190|  ; [ORIG 16-BIT INS]
    1471 00000154 6800              LDR       A1, [A1, #0]          ; [DPU_3_PIPE] |190|  ; [ORIG 16-BIT INS]
    1472 00000156 5C08              LDRB      A1, [A2, +A1]         ; [DPU_3_PIPE] |190|  ; [ORIG 16-BIT INS]
    1473 00000158 B948              CBNZ      A1, ||$C$L8||         ; []  ; [ORIG 16-BIT INS]
    1474                            ; BRANCHCC OCCURS {||$C$L8||}    ; [] |190| 
    1475                    ;* --------------------------------------------------------------------------*
    1476                            .dwpsn  file "../esp8266.c",line 191,column 9,is_stmt,isa 1
    1477                    ;----------------------------------------------------------------------
    1478                    ; 191 | ServerResponseSearchFinished = 1;                                      
    1479                    ;----------------------------------------------------------------------
    1480 0000015a 4987              LDR       A2, $C$CON8           ; [DPU_3_PIPE] |191|  ; [ORIG 16-BIT INS]
    1481 0000015c 2001              MOVS      A1, #1                ; [DPU_3_PIPE] |191|  ; [ORIG 16-BIT INS]
    1482 0000015e 6008              STR       A1, [A2, #0]          ; [DPU_3_PIPE] |191|  ; [ORIG 16-BIT INS]
    1483                            .dwpsn  file "../esp8266.c",line 192,column 9,is_stmt,isa 1
    1484                    ;----------------------------------------------------------------------
    1485                    ; 192 | ServerResponseSearchLooking = 0;                                       
TI ARM Assembler PC v5.2.4 Sat Feb 06 22:51:21 2016

Tools Copyright (c) 1996-2015 Texas Instruments Incorporated
esp8266.asm                                                          PAGE   28

    1486                    ;----------------------------------------------------------------------
    1487 00000160 4984              LDR       A2, $C$CON7           ; [DPU_3_PIPE] |192|  ; [ORIG 16-BIT INS]
    1488 00000162 2000              MOVS      A1, #0                ; [DPU_3_PIPE] |192|  ; [ORIG 16-BIT INS]
    1489 00000164 6008              STR       A1, [A2, #0]          ; [DPU_3_PIPE] |192|  ; [ORIG 16-BIT INS]
    1490                            .dwpsn  file "../esp8266.c",line 194,column 5,is_stmt,isa 1
    1491                    ;----------------------------------------------------------------------
    1492                    ; 194 | }else{                                                                 
    1493                    ;----------------------------------------------------------------------
    1494 00000166 E002              B         ||$C$L8||             ; [DPU_3_PIPE] |194|  ; [ORIG 16-BIT INS]
    1495                            ; BRANCH OCCURS {||$C$L8||}      ; [] |194| 
    1496                    ;* --------------------------------------------------------------------------*
    1497 00000168           ||$C$L7||:    
    1498                            .dwpsn  file "../esp8266.c",line 195,column 7,is_stmt,isa 1
    1499                    ;----------------------------------------------------------------------
    1500                    ; 195 | ServerResponseSearchIndex = 0; // start over                           
    1501                    ;----------------------------------------------------------------------
    1502 00000168 4981              LDR       A2, $C$CON6           ; [DPU_3_PIPE] |195|  ; [ORIG 16-BIT INS]
    1503 0000016a 2000              MOVS      A1, #0                ; [DPU_3_PIPE] |195|  ; [ORIG 16-BIT INS]
    1504 0000016c 6008              STR       A1, [A2, #0]          ; [DPU_3_PIPE] |195|  ; [ORIG 16-BIT INS]
    1505                            .dwpsn  file "../esp8266.c",line 198,column 1,is_stmt,isa 1
    1506                    ;* --------------------------------------------------------------------------*
    1507                    ||$C$L8||:    
    1508                    $C$DW$72        .dwtag  DW_TAG_TI_branch
    1509                            .dwattr $C$DW$72, DW_AT_low_pc(0x00)
    1510                            .dwattr $C$DW$72, DW_AT_TI_return
    1511 0000016e BD08              POP       {A4, PC}              ; [DPU_3_PIPE]  ; [ORIG 16-BIT INS]
    1512                            .dwcfi  cfa_offset, 0
    1513                            ; BRANCH OCCURS                  ; [] 
    1514                            .dwattr $C$DW$65, DW_AT_TI_end_file("../esp8266.c")
    1515                            .dwattr $C$DW$65, DW_AT_TI_end_line(0xc6)
    1516                            .dwattr $C$DW$65, DW_AT_TI_end_column(0x01)
    1517                            .dwendentry
    1518                            .dwendtag $C$DW$65
    1519                    
    1520 00000170                   .sect   ".text"
    1521                            .clink
    1522                            .thumbfunc ESP8266_InitUART
    1523 00000170                   .thumb
    1524                            .global ESP8266_InitUART
    1525                    
    1526                    $C$DW$73        .dwtag  DW_TAG_subprogram, DW_AT_name("ESP8266_InitUART")
    1527                            .dwattr $C$DW$73, DW_AT_low_pc(ESP8266_InitUART)
    1528                            .dwattr $C$DW$73, DW_AT_high_pc(0x00)
    1529                            .dwattr $C$DW$73, DW_AT_TI_symbol_name("ESP8266_InitUART")
    1530                            .dwattr $C$DW$73, DW_AT_external
    1531                            .dwattr $C$DW$73, DW_AT_TI_begin_file("../esp8266.c")
    1532                            .dwattr $C$DW$73, DW_AT_TI_begin_line(0xd3)
    1533                            .dwattr $C$DW$73, DW_AT_TI_begin_column(0x06)
    1534                            .dwattr $C$DW$73, DW_AT_decl_file("../esp8266.c")
    1535                            .dwattr $C$DW$73, DW_AT_decl_line(0xd3)
    1536                            .dwattr $C$DW$73, DW_AT_decl_column(0x06)
    1537                            .dwattr $C$DW$73, DW_AT_TI_max_frame_size(0x18)
    1538                            .dwpsn  file "../esp8266.c",line 211,column 47,is_stmt,address ESP8266_InitUART,isa 1
    1539                    
    1540                            .dwfde $C$DW$CIE, ESP8266_InitUART
TI ARM Assembler PC v5.2.4 Sat Feb 06 22:51:21 2016

Tools Copyright (c) 1996-2015 Texas Instruments Incorporated
esp8266.asm                                                          PAGE   29

    1541                    $C$DW$74        .dwtag  DW_TAG_formal_parameter, DW_AT_name("baud")
    1542                            .dwattr $C$DW$74, DW_AT_TI_symbol_name("baud")
    1543                            .dwattr $C$DW$74, DW_AT_type(*$C$DW$T$38)
    1544                            .dwattr $C$DW$74, DW_AT_location[DW_OP_reg0]
    1545                    $C$DW$75        .dwtag  DW_TAG_formal_parameter, DW_AT_name("echo")
    1546                            .dwattr $C$DW$75, DW_AT_TI_symbol_name("echo")
    1547                            .dwattr $C$DW$75, DW_AT_type(*$C$DW$T$10)
    1548                            .dwattr $C$DW$75, DW_AT_location[DW_OP_reg1]
    1549                    
    1550                    ;*****************************************************************************
    1551                    ;* FUNCTION NAME: ESP8266_InitUART                                           *
    1552                    ;*                                                                           *
    1553                    ;*   Regs Modified     : A1,A2,A3,A4,V1,V2,SP,SR                             *
    1554                    ;*   Regs Used         : A1,A2,A3,A4,V1,V2,SP,LR,SR                          *
    1555                    ;*   Local Frame Size  : 0 Args + 8 Auto + 12 Save = 20 byte                 *
    1556                    ;*****************************************************************************
    1557 00000170           ESP8266_InitUART:
    1558                    ;* --------------------------------------------------------------------------*
    1559                            .dwcfi  cfa_offset, 0
    1560 00000170 B53E              PUSH      {A2, A3, A4, V1, V2, LR} ; [DPU_3_PIPE]  ; [ORIG 16-BIT INS]
    1561                            .dwcfi  cfa_offset, 24
    1562                            .dwcfi  save_reg_to_mem, 14, -4
    1563                            .dwcfi  save_reg_to_mem, 5, -8
    1564                            .dwcfi  save_reg_to_mem, 4, -12
    1565                            .dwcfi  save_reg_to_mem, 3, -16
    1566                            .dwcfi  save_reg_to_mem, 2, -20
    1567                            .dwcfi  save_reg_to_mem, 1, -24
    1568                    $C$DW$76        .dwtag  DW_TAG_variable, DW_AT_name("baud")
    1569                            .dwattr $C$DW$76, DW_AT_TI_symbol_name("baud")
    1570                            .dwattr $C$DW$76, DW_AT_type(*$C$DW$T$38)
    1571                            .dwattr $C$DW$76, DW_AT_location[DW_OP_breg13 0]
    1572                    $C$DW$77        .dwtag  DW_TAG_variable, DW_AT_name("echo")
    1573                            .dwattr $C$DW$77, DW_AT_TI_symbol_name("echo")
    1574                            .dwattr $C$DW$77, DW_AT_type(*$C$DW$T$10)
    1575                            .dwattr $C$DW$77, DW_AT_location[DW_OP_breg13 4]
    1576                    ;----------------------------------------------------------------------
    1577                    ; 211 | void ESP8266_InitUART(uint32_t baud, int echo){ volatile int delay;    
    1578                    ;----------------------------------------------------------------------
    1579 00000172 9101              STR       A2, [SP, #4]          ; [DPU_3_PIPE] |211|  ; [ORIG 16-BIT INS]
    1580 00000174 9000              STR       A1, [SP, #0]          ; [DPU_3_PIPE] |211|  ; [ORIG 16-BIT INS]
    1581                            .dwpsn  file "../esp8266.c",line 212,column 3,is_stmt,isa 1
    1582                    ;----------------------------------------------------------------------
    1583                    ; 212 | ESP8266_EchoResponse = echo;                                           
    1584                    ;----------------------------------------------------------------------
    1585 00000176 9801              LDR       A1, [SP, #4]          ; [DPU_3_PIPE] |212|  ; [ORIG 16-BIT INS]
    1586 00000178 2100              MOVS      A2, #0                ; [DPU_3_PIPE] |212|  ; [ORIG 16-BIT INS]
    1587 0000017a B100              CBZ       A1, ||$C$L9||         ; []  ; [ORIG 16-BIT INS]
    1588                            ; BRANCHCC OCCURS {||$C$L9||}    ; [] |212| 
    1589                    ;* --------------------------------------------------------------------------*
    1590 0000017c 2101              MOVS      A2, #1                ; [DPU_3_PIPE] |212|  ; [ORIG 16-BIT INS]
    1591                    ;* --------------------------------------------------------------------------*
    1592 0000017e           ||$C$L9||:    
    1593 0000017e 48C2              LDR       A1, $C$CON11          ; [DPU_3_PIPE] |212|  ; [ORIG 16-BIT INS]
    1594 00000180 7001              STRB      A2, [A1, #0]          ; [DPU_3_PIPE] |212|  ; [ORIG 16-BIT INS]
    1595                            .dwpsn  file "../esp8266.c",line 213,column 3,is_stmt,isa 1
TI ARM Assembler PC v5.2.4 Sat Feb 06 22:51:21 2016

Tools Copyright (c) 1996-2015 Texas Instruments Incorporated
esp8266.asm                                                          PAGE   30

    1596                    ;----------------------------------------------------------------------
    1597                    ; 213 | SYSCTL_RCGCUART_R |= 0x02; // Enable UART1                             
    1598                    ;----------------------------------------------------------------------
    1599 00000182 4990              LDR       A2, $C$CON12          ; [DPU_3_PIPE] |213|  ; [ORIG 16-BIT INS]
    1600 00000184 6808              LDR       A1, [A2, #0]          ; [DPU_3_PIPE] |213|  ; [ORIG 16-BIT INS]
    1601 00000186 0002F040          ORR       A1, A1, #2            ; [DPU_3_PIPE] |213|  ; [KEEP 32-BIT INS]
    1602 0000018a 6008              STR       A1, [A2, #0]          ; [DPU_3_PIPE] |213|  ; [ORIG 16-BIT INS]
    1603                            .dwpsn  file "../esp8266.c",line 214,column 3,is_stmt,isa 1
    1604                    ;----------------------------------------------------------------------
    1605                    ; 214 | while((SYSCTL_PRUART_R&0x02)==0){};                                    
    1606                    ;----------------------------------------------------------------------
    1607                    ;* --------------------------------------------------------------------------*
    1608                    ;*   BEGIN LOOP ||$C$L10||
    1609                    ;*
    1610                    ;*   Loop source line                : 214
    1611                    ;*   Loop closing brace source line  : 214
    1612                    ;*   Known Minimum Trip Count        : 1
    1613                    ;*   Known Maximum Trip Count        : 4294967295
    1614                    ;*   Known Max Trip Count Factor     : 1
    1615                    ;* --------------------------------------------------------------------------*
    1616 0000018c           ||$C$L10||:    
    1617                            .dwpsn  file "../esp8266.c",line 214,column 9,is_stmt,isa 1
    1618 0000018c 488E              LDR       A1, $C$CON13          ; [DPU_3_PIPE] |214|  ; [ORIG 16-BIT INS]
    1619 0000018e 6800              LDR       A1, [A1, #0]          ; [DPU_3_PIPE] |214|  ; [ORIG 16-BIT INS]
    1620 00000190 0880              LSRS      A1, A1, #2            ; [DPU_3_PIPE] |214|  ; [ORIG 16-BIT INS]
    1621 00000192 D3FB              BCC       ||$C$L10||            ; [DPU_3_PIPE] |214|  ; [ORIG 16-BIT INS]
    1622                            ; BRANCHCC OCCURS {||$C$L10||}   ; [] |214| 
    1623                    ;* --------------------------------------------------------------------------*
    1624                            .dwpsn  file "../esp8266.c",line 215,column 3,is_stmt,isa 1
    1625                    ;----------------------------------------------------------------------
    1626                    ; 215 | SYSCTL_RCGCGPIO_R |= 0x02; // Enable PORT B clock gating               
    1627                    ;----------------------------------------------------------------------
    1628 00000194 498D              LDR       A2, $C$CON14          ; [DPU_3_PIPE] |215|  ; [ORIG 16-BIT INS]
    1629 00000196 6808              LDR       A1, [A2, #0]          ; [DPU_3_PIPE] |215|  ; [ORIG 16-BIT INS]
    1630 00000198 0002F040          ORR       A1, A1, #2            ; [DPU_3_PIPE] |215|  ; [KEEP 32-BIT INS]
    1631 0000019c 6008              STR       A1, [A2, #0]          ; [DPU_3_PIPE] |215|  ; [ORIG 16-BIT INS]
    1632                            .dwpsn  file "../esp8266.c",line 216,column 3,is_stmt,isa 1
    1633                    ;----------------------------------------------------------------------
    1634                    ; 216 | while((SYSCTL_PRGPIO_R&0x02)==0){};                                    
    1635                    ;----------------------------------------------------------------------
    1636                    ;* --------------------------------------------------------------------------*
    1637                    ;*   BEGIN LOOP ||$C$L11||
    1638                    ;*
    1639                    ;*   Loop source line                : 216
    1640                    ;*   Loop closing brace source line  : 216
    1641                    ;*   Known Minimum Trip Count        : 1
    1642                    ;*   Known Maximum Trip Count        : 4294967295
    1643                    ;*   Known Max Trip Count Factor     : 1
    1644                    ;* --------------------------------------------------------------------------*
    1645 0000019e           ||$C$L11||:    
    1646                            .dwpsn  file "../esp8266.c",line 216,column 9,is_stmt,isa 1
    1647 0000019e 488C              LDR       A1, $C$CON15          ; [DPU_3_PIPE] |216|  ; [ORIG 16-BIT INS]
    1648 000001a0 6800              LDR       A1, [A1, #0]          ; [DPU_3_PIPE] |216|  ; [ORIG 16-BIT INS]
    1649 000001a2 0880              LSRS      A1, A1, #2            ; [DPU_3_PIPE] |216|  ; [ORIG 16-BIT INS]
    1650 000001a4 D3FB              BCC       ||$C$L11||            ; [DPU_3_PIPE] |216|  ; [ORIG 16-BIT INS]
TI ARM Assembler PC v5.2.4 Sat Feb 06 22:51:21 2016

Tools Copyright (c) 1996-2015 Texas Instruments Incorporated
esp8266.asm                                                          PAGE   31

    1651                            ; BRANCHCC OCCURS {||$C$L11||}   ; [] |216| 
    1652                    ;* --------------------------------------------------------------------------*
    1653                            .dwpsn  file "../esp8266.c",line 217,column 3,is_stmt,isa 1
    1654                    ;----------------------------------------------------------------------
    1655                    ; 217 | GPIO_PORTB_AFSEL_R |= 0x03;                                            
    1656                    ;----------------------------------------------------------------------
    1657 000001a6 498B              LDR       A2, $C$CON16          ; [DPU_3_PIPE] |217|  ; [ORIG 16-BIT INS]
    1658 000001a8 6808              LDR       A1, [A2, #0]          ; [DPU_3_PIPE] |217|  ; [ORIG 16-BIT INS]
    1659 000001aa 0003F040          ORR       A1, A1, #3            ; [DPU_3_PIPE] |217|  ; [KEEP 32-BIT INS]
    1660 000001ae 6008              STR       A1, [A2, #0]          ; [DPU_3_PIPE] |217|  ; [ORIG 16-BIT INS]
    1661                            .dwpsn  file "../esp8266.c",line 218,column 3,is_stmt,isa 1
    1662                    ;----------------------------------------------------------------------
    1663                    ; 218 | GPIO_PORTB_DIR_R |= 0x20; // PB5 output to reset                       
    1664                    ;----------------------------------------------------------------------
    1665 000001b0 4989              LDR       A2, $C$CON17          ; [DPU_3_PIPE] |218|  ; [ORIG 16-BIT INS]
    1666 000001b2 6808              LDR       A1, [A2, #0]          ; [DPU_3_PIPE] |218|  ; [ORIG 16-BIT INS]
    1667 000001b4 0020F040          ORR       A1, A1, #32           ; [DPU_3_PIPE] |218|  ; [KEEP 32-BIT INS]
    1668 000001b8 6008              STR       A1, [A2, #0]          ; [DPU_3_PIPE] |218|  ; [ORIG 16-BIT INS]
    1669                            .dwpsn  file "../esp8266.c",line 219,column 3,is_stmt,isa 1
    1670                    ;----------------------------------------------------------------------
    1671                    ; 219 | GPIO_PORTB_PCTL_R =(GPIO_PORTB_PCTL_R&0xFF0FFF00)|0x00000011;          
    1672                    ;----------------------------------------------------------------------
    1673 000001ba 4988              LDR       A2, $C$CON18          ; [DPU_3_PIPE] |219|  ; [ORIG 16-BIT INS]
    1674 000001bc 4888              LDR       A1, $C$CON19          ; [DPU_3_PIPE] |219|  ; [ORIG 16-BIT INS]
    1675 000001be 680A              LDR       A3, [A2, #0]          ; [DPU_3_PIPE] |219|  ; [ORIG 16-BIT INS]
    1676 000001c0 4986              LDR       A2, $C$CON18          ; [DPU_3_PIPE] |219|  ; [ORIG 16-BIT INS]
    1677 000001c2 4010              ANDS      A1, A1, A3            ; [DPU_3_PIPE] |219|  ; [ORIG 16-BIT INS]
    1678 000001c4 0011F040          ORR       A1, A1, #17           ; [DPU_3_PIPE] |219|  ; [KEEP 32-BIT INS]
    1679 000001c8 6008              STR       A1, [A2, #0]          ; [DPU_3_PIPE] |219|  ; [ORIG 16-BIT INS]
    1680                            .dwpsn  file "../esp8266.c",line 220,column 3,is_stmt,isa 1
    1681                    ;----------------------------------------------------------------------
    1682                    ; 220 | GPIO_PORTB_DEN_R   |= 0x23; //23                                       
    1683                    ;----------------------------------------------------------------------
    1684 000001ca 4986              LDR       A2, $C$CON20          ; [DPU_3_PIPE] |220|  ; [ORIG 16-BIT INS]
    1685 000001cc 6808              LDR       A1, [A2, #0]          ; [DPU_3_PIPE] |220|  ; [ORIG 16-BIT INS]
    1686 000001ce 0023F040          ORR       A1, A1, #35           ; [DPU_3_PIPE] |220|  ; [KEEP 32-BIT INS]
    1687 000001d2 6008              STR       A1, [A2, #0]          ; [DPU_3_PIPE] |220|  ; [ORIG 16-BIT INS]
    1688                            .dwpsn  file "../esp8266.c",line 221,column 3,is_stmt,isa 1
    1689                    ;----------------------------------------------------------------------
    1690                    ; 221 | GPIO_PORTB_DATA_R |= 0x20; // reset high                               
    1691                    ;----------------------------------------------------------------------
    1692 000001d4 4984              LDR       A2, $C$CON21          ; [DPU_3_PIPE] |221|  ; [ORIG 16-BIT INS]
    1693 000001d6 6808              LDR       A1, [A2, #0]          ; [DPU_3_PIPE] |221|  ; [ORIG 16-BIT INS]
    1694 000001d8 0020F040          ORR       A1, A1, #32           ; [DPU_3_PIPE] |221|  ; [KEEP 32-BIT INS]
    1695 000001dc 6008              STR       A1, [A2, #0]          ; [DPU_3_PIPE] |221|  ; [ORIG 16-BIT INS]
    1696                            .dwpsn  file "../esp8266.c",line 222,column 3,is_stmt,isa 1
    1697                    ;----------------------------------------------------------------------
    1698                    ; 222 | UART1_CTL_R &= ~UART_CTL_UARTEN;                  // Clear UART1 enable
    1699                    ;     |  bit during config                                                     
    1700                    ;----------------------------------------------------------------------
    1701 000001de 4983              LDR       A2, $C$CON22          ; [DPU_3_PIPE] |222|  ; [ORIG 16-BIT INS]
    1702 000001e0 6808              LDR       A1, [A2, #0]          ; [DPU_3_PIPE] |222|  ; [ORIG 16-BIT INS]
    1703 000001e2 0001F020          BIC       A1, A1, #1            ; [DPU_3_PIPE] |222|  ; [KEEP 32-BIT INS]
    1704 000001e6 6008              STR       A1, [A2, #0]          ; [DPU_3_PIPE] |222|  ; [ORIG 16-BIT INS]
    1705                            .dwpsn  file "../esp8266.c",line 223,column 3,is_stmt,isa 1
TI ARM Assembler PC v5.2.4 Sat Feb 06 22:51:21 2016

Tools Copyright (c) 1996-2015 Texas Instruments Incorporated
esp8266.asm                                                          PAGE   32

    1706                    ;----------------------------------------------------------------------
    1707                    ; 223 | UART1_IBRD_R = 5000000/baud;                                           
    1708                    ;----------------------------------------------------------------------
    1709 000001e8 4882              LDR       A1, $C$CON24          ; [DPU_3_PIPE] |223|  ; [ORIG 16-BIT INS]
    1710 000001ea 4981              LDR       A2, $C$CON23          ; [DPU_3_PIPE] |223|  ; [ORIG 16-BIT INS]
    1711 000001ec 9A00              LDR       A3, [SP, #0]          ; [DPU_3_PIPE] |223|  ; [ORIG 16-BIT INS]
    1712 000001ee F0F2FBB0          UDIV      A1, A1, A3            ; [DPU_3_PIPE] |223|  ; [KEEP 32-BIT INS]
    1713 000001f2 6008              STR       A1, [A2, #0]          ; [DPU_3_PIPE] |223|  ; [ORIG 16-BIT INS]
    1714                            .dwpsn  file "../esp8266.c",line 224,column 3,is_stmt,isa 1
    1715                    ;----------------------------------------------------------------------
    1716                    ; 224 | UART1_FBRD_R = ((64*(5000000%baud))+baud/2)/baud;                      
    1717                    ; 225 |  // UART1_IBRD_R = 43;       // IBRD = int(80,000,000 / (16 * 115,200))
    1718                    ;     |  = int(43.403)                                                         
    1719                    ; 226 |  // UART1_FBRD_R = 26;       // FBRD = round(0.4028 * 64 ) = 26        
    1720                    ;----------------------------------------------------------------------
    1721 000001f4 497F              LDR       A2, $C$CON24          ; [DPU_3_PIPE] |224|  ; [ORIG 16-BIT INS]
    1722 000001f6 4B80              LDR       A4, $C$CON25          ; [DPU_3_PIPE] |224|  ; [ORIG 16-BIT INS]
    1723 000001f8 9C00              LDR       V1, [SP, #0]          ; [DPU_3_PIPE] |224|  ; [ORIG 16-BIT INS]
    1724 000001fa 9A00              LDR       A3, [SP, #0]          ; [DPU_3_PIPE] |224|  ; [ORIG 16-BIT INS]
    1725 000001fc 9D00              LDR       V2, [SP, #0]          ; [DPU_3_PIPE] |224|  ; [ORIG 16-BIT INS]
    1726 000001fe F0F4FBB1          UDIV      A1, A2, V1            ; [DPU_3_PIPE] |224|  ; [KEEP 32-BIT INS]
    1727 00000202 0852              LSRS      A3, A3, #1            ; [DPU_3_PIPE] |224|  ; [ORIG 16-BIT INS]
    1728 00000204 4360              MULS      A1, A1, V1            ; [DPU_3_PIPE] |224|  ; [ORIG 16-BIT INS]
    1729 00000206 1A09              SUBS      A2, A2, A1            ; [DPU_3_PIPE] |224|  ; [ORIG 16-BIT INS]
    1730 00000208 1281EB02          ADD       A3, A3, A2, LSL #6    ; [DPU_3_PIPE] |224|  ; [KEEP 32-BIT INS]
    1731 0000020c F0F5FBB2          UDIV      A1, A3, V2            ; [DPU_3_PIPE] |224|  ; [KEEP 32-BIT INS]
    1732 00000210 6018              STR       A1, [A4, #0]          ; [DPU_3_PIPE] |224|  ; [ORIG 16-BIT INS]
    1733                            .dwpsn  file "../esp8266.c",line 228,column 3,is_stmt,isa 1
    1734                    ;----------------------------------------------------------------------
    1735                    ; 228 | UART1_LCRH_R = (UART_LCRH_WLEN_8|UART_LCRH_FEN);  // 8 bit word length,
    1736                    ;     |  1 stop, no parity, FIFOs enabled                                      
    1737                    ;----------------------------------------------------------------------
    1738 00000212 497A              LDR       A2, $C$CON26          ; [DPU_3_PIPE] |228|  ; [ORIG 16-BIT INS]
    1739 00000214 2070              MOVS      A1, #112              ; [DPU_3_PIPE] |228|  ; [ORIG 16-BIT INS]
    1740 00000216 6008              STR       A1, [A2, #0]          ; [DPU_3_PIPE] |228|  ; [ORIG 16-BIT INS]
    1741                            .dwpsn  file "../esp8266.c",line 229,column 3,is_stmt,isa 1
    1742                    ;----------------------------------------------------------------------
    1743                    ; 229 | UART1_IFLS_R &= ~0x3F;                            // Clear TX and RX in
    1744                    ;     | terrupt FIFO level fields                                              
    1745                    ;----------------------------------------------------------------------
    1746 00000218 4979              LDR       A2, $C$CON27          ; [DPU_3_PIPE] |229|  ; [ORIG 16-BIT INS]
    1747 0000021a 6808              LDR       A1, [A2, #0]          ; [DPU_3_PIPE] |229|  ; [ORIG 16-BIT INS]
    1748 0000021c 003FF020          BIC       A1, A1, #63           ; [DPU_3_PIPE] |229|  ; [KEEP 32-BIT INS]
    1749 00000220 6008              STR       A1, [A2, #0]          ; [DPU_3_PIPE] |229|  ; [ORIG 16-BIT INS]
    1750                            .dwpsn  file "../esp8266.c",line 230,column 3,is_stmt,isa 1
    1751                    ;----------------------------------------------------------------------
    1752                    ; 230 | UART1_IFLS_R += UART_IFLS_RX1_8 ;                 // RX FIFO interrupt
    1753                    ;     | threshold >= 1/8th full                                                
    1754                    ;----------------------------------------------------------------------
    1755 00000222 4977              LDR       A2, $C$CON27          ; [DPU_3_PIPE] |230|  ; [ORIG 16-BIT INS]
    1756 00000224 6808              LDR       A1, [A2, #0]          ; [DPU_3_PIPE] |230|  ; [ORIG 16-BIT INS]
    1757 00000226 6008              STR       A1, [A2, #0]          ; [DPU_3_PIPE] |230|  ; [ORIG 16-BIT INS]
    1758                            .dwpsn  file "../esp8266.c",line 231,column 3,is_stmt,isa 1
    1759                    ;----------------------------------------------------------------------
    1760                    ; 231 | UART1_IM_R  |= UART_IM_RXIM | UART_IM_RTIM;       // Enable interupt on
TI ARM Assembler PC v5.2.4 Sat Feb 06 22:51:21 2016

Tools Copyright (c) 1996-2015 Texas Instruments Incorporated
esp8266.asm                                                          PAGE   33

    1761                    ;     |  RX and RX transmission end                                            
    1762                    ;----------------------------------------------------------------------
    1763 00000228 4976              LDR       A2, $C$CON28          ; [DPU_3_PIPE] |231|  ; [ORIG 16-BIT INS]
    1764 0000022a 6808              LDR       A1, [A2, #0]          ; [DPU_3_PIPE] |231|  ; [ORIG 16-BIT INS]
    1765 0000022c 0050F040          ORR       A1, A1, #80           ; [DPU_3_PIPE] |231|  ; [KEEP 32-BIT INS]
    1766 00000230 6008              STR       A1, [A2, #0]          ; [DPU_3_PIPE] |231|  ; [ORIG 16-BIT INS]
    1767                            .dwpsn  file "../esp8266.c",line 232,column 3,is_stmt,isa 1
    1768                    ;----------------------------------------------------------------------
    1769                    ; 232 | UART1_CTL_R |= UART_CTL_UARTEN;                   // Set UART1 enable b
    1770                    ;     | it                                                                     
    1771                    ;----------------------------------------------------------------------
    1772 00000232 496E              LDR       A2, $C$CON22          ; [DPU_3_PIPE] |232|  ; [ORIG 16-BIT INS]
    1773 00000234 6808              LDR       A1, [A2, #0]          ; [DPU_3_PIPE] |232|  ; [ORIG 16-BIT INS]
    1774 00000236 0001F040          ORR       A1, A1, #1            ; [DPU_3_PIPE] |232|  ; [KEEP 32-BIT INS]
    1775 0000023a 6008              STR       A1, [A2, #0]          ; [DPU_3_PIPE] |232|  ; [ORIG 16-BIT INS]
    1776                            .dwpsn  file "../esp8266.c",line 233,column 1,is_stmt,isa 1
    1777                    $C$DW$78        .dwtag  DW_TAG_TI_branch
    1778                            .dwattr $C$DW$78, DW_AT_low_pc(0x00)
    1779                            .dwattr $C$DW$78, DW_AT_TI_return
    1780 0000023c BD3E              POP       {A2, A3, A4, V1, V2, PC} ; [DPU_3_PIPE]  ; [ORIG 16-BIT INS]
    1781                            .dwcfi  cfa_offset, 0
    1782                            ; BRANCH OCCURS                  ; [] 
    1783                            .dwattr $C$DW$73, DW_AT_TI_end_file("../esp8266.c")
    1784                            .dwattr $C$DW$73, DW_AT_TI_end_line(0xe9)
    1785                            .dwattr $C$DW$73, DW_AT_TI_end_column(0x01)
    1786                            .dwendentry
    1787                            .dwendtag $C$DW$73
    1788                    
    1789 0000023e                   .sect   ".text"
    1790                            .clink
    1791                            .thumbfunc UART1_Handler
    1792 0000023e                   .thumb
    1793                            .global UART1_Handler
    1794                    
    1795                    $C$DW$79        .dwtag  DW_TAG_subprogram, DW_AT_name("UART1_Handler")
    1796                            .dwattr $C$DW$79, DW_AT_low_pc(UART1_Handler)
    1797                            .dwattr $C$DW$79, DW_AT_high_pc(0x00)
    1798                            .dwattr $C$DW$79, DW_AT_TI_symbol_name("UART1_Handler")
    1799                            .dwattr $C$DW$79, DW_AT_external
    1800                            .dwattr $C$DW$79, DW_AT_TI_begin_file("../esp8266.c")
    1801                            .dwattr $C$DW$79, DW_AT_TI_begin_line(0xed)
    1802                            .dwattr $C$DW$79, DW_AT_TI_begin_column(0x06)
    1803                            .dwattr $C$DW$79, DW_AT_decl_file("../esp8266.c")
    1804                            .dwattr $C$DW$79, DW_AT_decl_line(0xed)
    1805                            .dwattr $C$DW$79, DW_AT_decl_column(0x06)
    1806                            .dwattr $C$DW$79, DW_AT_TI_max_frame_size(0x08)
    1807                            .dwpsn  file "../esp8266.c",line 237,column 25,is_stmt,address UART1_Handler,isa 1
    1808                    
    1809                            .dwfde $C$DW$CIE, UART1_Handler
    1810                    ;----------------------------------------------------------------------
    1811                    ; 237 | void UART1_Handler(void){                                              
    1812                    ;----------------------------------------------------------------------
    1813                    
    1814                    ;*****************************************************************************
    1815                    ;* FUNCTION NAME: UART1_Handler                                              *
TI ARM Assembler PC v5.2.4 Sat Feb 06 22:51:21 2016

Tools Copyright (c) 1996-2015 Texas Instruments Incorporated
esp8266.asm                                                          PAGE   34

    1816                    ;*                                                                           *
    1817                    ;*   Regs Modified     : A1,A2,A3,A4,V9,SP,LR,SR,D0,D0_hi,D1,D1_hi,D2,D2_hi, *
    1818                    ;*                           D3,D3_hi,D4,D4_hi,D5,D5_hi,D6,D6_hi,D7,D7_hi,   *
    1819                    ;*                           FPEXC,FPSCR                                     *
    1820                    ;*   Regs Used         : A1,A2,A3,A4,V9,SP,LR,SR,D0,D0_hi,D1,D1_hi,D2,D2_hi, *
    1821                    ;*                           D3,D3_hi,D4,D4_hi,D5,D5_hi,D6,D6_hi,D7,D7_hi,   *
    1822                    ;*                           FPEXC,FPSCR                                     *
    1823                    ;*   Local Frame Size  : 0 Args + 0 Auto + 4 Save = 4 byte                   *
    1824                    ;*****************************************************************************
    1825 0000023e           UART1_Handler:
    1826                    ;* --------------------------------------------------------------------------*
    1827                            .dwcfi  cfa_offset, 0
    1828 0000023e B508              PUSH      {A4, LR}              ; [DPU_3_PIPE]  ; [ORIG 16-BIT INS]
    1829                            .dwcfi  cfa_offset, 8
    1830                            .dwcfi  save_reg_to_mem, 14, -4
    1831                            .dwcfi  save_reg_to_mem, 3, -8
    1832                            .dwpsn  file "../esp8266.c",line 238,column 3,is_stmt,isa 1
    1833                    ;----------------------------------------------------------------------
    1834                    ; 238 | if(UART1_RIS_R & UART_RIS_RXRIS){   // rx fifo >= 1/8 full             
    1835                    ;----------------------------------------------------------------------
    1836 00000240 4871              LDR       A1, $C$CON29          ; [DPU_3_PIPE] |238|  ; [ORIG 16-BIT INS]
    1837 00000242 6800              LDR       A1, [A1, #0]          ; [DPU_3_PIPE] |238|  ; [ORIG 16-BIT INS]
    1838 00000244 0940              LSRS      A1, A1, #5            ; [DPU_3_PIPE] |238|  ; [ORIG 16-BIT INS]
    1839 00000246 D304              BCC       ||$C$L12||            ; [DPU_3_PIPE] |238|  ; [ORIG 16-BIT INS]
    1840                            ; BRANCHCC OCCURS {||$C$L12||}   ; [] |238| 
    1841                    ;* --------------------------------------------------------------------------*
    1842                            .dwpsn  file "../esp8266.c",line 239,column 5,is_stmt,isa 1
    1843                    ;----------------------------------------------------------------------
    1844                    ; 239 | UART1_ICR_R = UART_ICR_RXIC;      // acknowledge interrupt             
    1845                    ;----------------------------------------------------------------------
    1846 00000248 4970              LDR       A2, $C$CON30          ; [DPU_3_PIPE] |239|  ; [ORIG 16-BIT INS]
    1847 0000024a 2010              MOVS      A1, #16               ; [DPU_3_PIPE] |239|  ; [ORIG 16-BIT INS]
    1848 0000024c 6008              STR       A1, [A2, #0]          ; [DPU_3_PIPE] |239|  ; [ORIG 16-BIT INS]
    1849                            .dwpsn  file "../esp8266.c",line 240,column 5,is_stmt,isa 1
    1850                    ;----------------------------------------------------------------------
    1851                    ; 240 | ESP8266FIFOtoBuffer();                                                 
    1852                    ;----------------------------------------------------------------------
    1853                    $C$DW$80        .dwtag  DW_TAG_TI_branch
    1854                            .dwattr $C$DW$80, DW_AT_low_pc(0x00)
    1855                            .dwattr $C$DW$80, DW_AT_name("ESP8266FIFOtoBuffer")
    1856                            .dwattr $C$DW$80, DW_AT_TI_call
    1857 0000024e F820F000          BL        ESP8266FIFOtoBuffer   ; [DPU_3_PIPE] |240|  ; [KEEP 32-BIT INS]
    1858                            ; CALL OCCURS {ESP8266FIFOtoBuffer }  ; [] |240| 
    1859                    ;* --------------------------------------------------------------------------*
    1860 00000252           ||$C$L12||:    
    1861                            .dwpsn  file "../esp8266.c",line 242,column 3,is_stmt,isa 1
    1862                    ;----------------------------------------------------------------------
    1863                    ; 242 | if(UART1_RIS_R & UART_RIS_RTRIS){   // receiver timed out              
    1864                    ;----------------------------------------------------------------------
    1865 00000252 486D              LDR       A1, $C$CON29          ; [DPU_3_PIPE] |242|  ; [ORIG 16-BIT INS]
    1866 00000254 6800              LDR       A1, [A1, #0]          ; [DPU_3_PIPE] |242|  ; [ORIG 16-BIT INS]
    1867 00000256 09C0              LSRS      A1, A1, #7            ; [DPU_3_PIPE] |242|  ; [ORIG 16-BIT INS]
    1868 00000258 D304              BCC       ||$C$L13||            ; [DPU_3_PIPE] |242|  ; [ORIG 16-BIT INS]
    1869                            ; BRANCHCC OCCURS {||$C$L13||}   ; [] |242| 
    1870                    ;* --------------------------------------------------------------------------*
TI ARM Assembler PC v5.2.4 Sat Feb 06 22:51:21 2016

Tools Copyright (c) 1996-2015 Texas Instruments Incorporated
esp8266.asm                                                          PAGE   35

    1871                            .dwpsn  file "../esp8266.c",line 243,column 5,is_stmt,isa 1
    1872                    ;----------------------------------------------------------------------
    1873                    ; 243 | UART1_ICR_R = UART_ICR_RTIC;      // acknowledge receiver time         
    1874                    ;----------------------------------------------------------------------
    1875 0000025a 496C              LDR       A2, $C$CON30          ; [DPU_3_PIPE] |243|  ; [ORIG 16-BIT INS]
    1876 0000025c 2040              MOVS      A1, #64               ; [DPU_3_PIPE] |243|  ; [ORIG 16-BIT INS]
    1877 0000025e 6008              STR       A1, [A2, #0]          ; [DPU_3_PIPE] |243|  ; [ORIG 16-BIT INS]
    1878                            .dwpsn  file "../esp8266.c",line 244,column 5,is_stmt,isa 1
    1879                    ;----------------------------------------------------------------------
    1880                    ; 244 | ESP8266FIFOtoBuffer();                                                 
    1881                    ;----------------------------------------------------------------------
    1882                    $C$DW$81        .dwtag  DW_TAG_TI_branch
    1883                            .dwattr $C$DW$81, DW_AT_low_pc(0x00)
    1884                            .dwattr $C$DW$81, DW_AT_name("ESP8266FIFOtoBuffer")
    1885                            .dwattr $C$DW$81, DW_AT_TI_call
    1886 00000260 F817F000          BL        ESP8266FIFOtoBuffer   ; [DPU_3_PIPE] |244|  ; [KEEP 32-BIT INS]
    1887                            ; CALL OCCURS {ESP8266FIFOtoBuffer }  ; [] |244| 
    1888                            .dwpsn  file "../esp8266.c",line 246,column 1,is_stmt,isa 1
    1889                    ;* --------------------------------------------------------------------------*
    1890                    ||$C$L13||:    
    1891                    $C$DW$82        .dwtag  DW_TAG_TI_branch
    1892                            .dwattr $C$DW$82, DW_AT_low_pc(0x00)
    1893                            .dwattr $C$DW$82, DW_AT_TI_return
    1894 00000264 BD08              POP       {A4, PC}              ; [DPU_3_PIPE]  ; [ORIG 16-BIT INS]
    1895                            .dwcfi  cfa_offset, 0
    1896                            ; BRANCH OCCURS                  ; [] 
    1897                            .dwattr $C$DW$79, DW_AT_TI_end_file("../esp8266.c")
    1898                            .dwattr $C$DW$79, DW_AT_TI_end_line(0xf6)
    1899                            .dwattr $C$DW$79, DW_AT_TI_end_column(0x01)
    1900                            .dwendentry
    1901                            .dwendtag $C$DW$79
    1902                    
    1903 00000266                   .sect   ".text"
    1904                            .clink
    1905                            .thumbfunc ESP8266_EnableRXInterrupt
    1906 00000266                   .thumb
    1907                            .global ESP8266_EnableRXInterrupt
    1908                    
    1909                    $C$DW$83        .dwtag  DW_TAG_subprogram, DW_AT_name("ESP8266_EnableRXInterrupt")
    1910                            .dwattr $C$DW$83, DW_AT_low_pc(ESP8266_EnableRXInterrupt)
    1911                            .dwattr $C$DW$83, DW_AT_high_pc(0x00)
    1912                            .dwattr $C$DW$83, DW_AT_TI_symbol_name("ESP8266_EnableRXInterrupt")
    1913                            .dwattr $C$DW$83, DW_AT_external
    1914                            .dwattr $C$DW$83, DW_AT_TI_begin_file("../esp8266.c")
    1915                            .dwattr $C$DW$83, DW_AT_TI_begin_line(0xfb)
    1916                            .dwattr $C$DW$83, DW_AT_TI_begin_column(0x06)
    1917                            .dwattr $C$DW$83, DW_AT_decl_file("../esp8266.c")
    1918                            .dwattr $C$DW$83, DW_AT_decl_line(0xfb)
    1919                            .dwattr $C$DW$83, DW_AT_decl_column(0x06)
    1920                            .dwattr $C$DW$83, DW_AT_TI_max_frame_size(0x00)
    1921                            .dwpsn  file "../esp8266.c",line 251,column 37,is_stmt,address ESP8266_EnableRXInterrupt,isa 1
    1922                    
    1923                            .dwfde $C$DW$CIE, ESP8266_EnableRXInterrupt
    1924                    ;----------------------------------------------------------------------
    1925                    ; 251 | void ESP8266_EnableRXInterrupt(void){                                  
TI ARM Assembler PC v5.2.4 Sat Feb 06 22:51:21 2016

Tools Copyright (c) 1996-2015 Texas Instruments Incorporated
esp8266.asm                                                          PAGE   36

    1926                    ;----------------------------------------------------------------------
    1927                    
    1928                    ;*****************************************************************************
    1929                    ;* FUNCTION NAME: ESP8266_EnableRXInterrupt                                  *
    1930                    ;*                                                                           *
    1931                    ;*   Regs Modified     : A1,A2,SR                                            *
    1932                    ;*   Regs Used         : A1,A2,LR,SR                                         *
    1933                    ;*   Local Frame Size  : 0 Args + 0 Auto + 0 Save = 0 byte                   *
    1934                    ;*****************************************************************************
    1935 00000266           ESP8266_EnableRXInterrupt:
    1936                    ;* --------------------------------------------------------------------------*
    1937                            .dwcfi  cfa_offset, 0
    1938                            .dwpsn  file "../esp8266.c",line 252,column 3,is_stmt,isa 1
    1939                    ;----------------------------------------------------------------------
    1940                    ; 252 | NVIC_EN0_R = 1<<6; // interrupt 6                                      
    1941                    ;----------------------------------------------------------------------
    1942 00000266 496A              LDR       A2, $C$CON31          ; [DPU_3_PIPE] |252|  ; [ORIG 16-BIT INS]
    1943 00000268 2040              MOVS      A1, #64               ; [DPU_3_PIPE] |252|  ; [ORIG 16-BIT INS]
    1944 0000026a 6008              STR       A1, [A2, #0]          ; [DPU_3_PIPE] |252|  ; [ORIG 16-BIT INS]
    1945                            .dwpsn  file "../esp8266.c",line 253,column 1,is_stmt,isa 1
    1946                    $C$DW$84        .dwtag  DW_TAG_TI_branch
    1947                            .dwattr $C$DW$84, DW_AT_low_pc(0x00)
    1948                            .dwattr $C$DW$84, DW_AT_TI_return
    1949 0000026c 4770              BX        LR                    ; [DPU_3_PIPE]  ; [ORIG 16-BIT INS]
    1950                            ; BRANCH OCCURS                  ; [] 
    1951                            .dwattr $C$DW$83, DW_AT_TI_end_file("../esp8266.c")
    1952                            .dwattr $C$DW$83, DW_AT_TI_end_line(0xfd)
    1953                            .dwattr $C$DW$83, DW_AT_TI_end_column(0x01)
    1954                            .dwendentry
    1955                            .dwendtag $C$DW$83
    1956                    
    1957 0000026e                   .sect   ".text"
    1958                            .clink
    1959                            .thumbfunc ESP8266_DisableRXInterrupt
    1960 0000026e                   .thumb
    1961                            .global ESP8266_DisableRXInterrupt
    1962                    
    1963                    $C$DW$85        .dwtag  DW_TAG_subprogram, DW_AT_name("ESP8266_DisableRXInterrupt")
    1964                            .dwattr $C$DW$85, DW_AT_low_pc(ESP8266_DisableRXInterrupt)
    1965                            .dwattr $C$DW$85, DW_AT_high_pc(0x00)
    1966                            .dwattr $C$DW$85, DW_AT_TI_symbol_name("ESP8266_DisableRXInterrupt")
    1967                            .dwattr $C$DW$85, DW_AT_external
    1968                            .dwattr $C$DW$85, DW_AT_TI_begin_file("../esp8266.c")
    1969                            .dwattr $C$DW$85, DW_AT_TI_begin_line(0x103)
    1970                            .dwattr $C$DW$85, DW_AT_TI_begin_column(0x06)
    1971                            .dwattr $C$DW$85, DW_AT_decl_file("../esp8266.c")
    1972                            .dwattr $C$DW$85, DW_AT_decl_line(0x103)
    1973                            .dwattr $C$DW$85, DW_AT_decl_column(0x06)
    1974                            .dwattr $C$DW$85, DW_AT_TI_max_frame_size(0x00)
    1975                            .dwpsn  file "../esp8266.c",line 259,column 38,is_stmt,address ESP8266_DisableRXInterrupt,isa 
    1976                    
    1977                            .dwfde $C$DW$CIE, ESP8266_DisableRXInterrupt
    1978                    ;----------------------------------------------------------------------
    1979                    ; 259 | void ESP8266_DisableRXInterrupt(void){                                 
    1980                    ;----------------------------------------------------------------------
TI ARM Assembler PC v5.2.4 Sat Feb 06 22:51:21 2016

Tools Copyright (c) 1996-2015 Texas Instruments Incorporated
esp8266.asm                                                          PAGE   37

    1981                    
    1982                    ;*****************************************************************************
    1983                    ;* FUNCTION NAME: ESP8266_DisableRXInterrupt                                 *
    1984                    ;*                                                                           *
    1985                    ;*   Regs Modified     : A1,A2,SR                                            *
    1986                    ;*   Regs Used         : A1,A2,LR,SR                                         *
    1987                    ;*   Local Frame Size  : 0 Args + 0 Auto + 0 Save = 0 byte                   *
    1988                    ;*****************************************************************************
    1989 0000026e           ESP8266_DisableRXInterrupt:
    1990                    ;* --------------------------------------------------------------------------*
    1991                            .dwcfi  cfa_offset, 0
    1992                            .dwpsn  file "../esp8266.c",line 260,column 3,is_stmt,isa 1
    1993                    ;----------------------------------------------------------------------
    1994                    ; 260 | NVIC_DIS0_R = 1<<6; // interrupt 6                                     
    1995                    ;----------------------------------------------------------------------
    1996 0000026e 4969              LDR       A2, $C$CON32          ; [DPU_3_PIPE] |260|  ; [ORIG 16-BIT INS]
    1997 00000270 2040              MOVS      A1, #64               ; [DPU_3_PIPE] |260|  ; [ORIG 16-BIT INS]
    1998 00000272 6008              STR       A1, [A2, #0]          ; [DPU_3_PIPE] |260|  ; [ORIG 16-BIT INS]
    1999                            .dwpsn  file "../esp8266.c",line 261,column 1,is_stmt,isa 1
    2000                    $C$DW$86        .dwtag  DW_TAG_TI_branch
    2001                            .dwattr $C$DW$86, DW_AT_low_pc(0x00)
    2002                            .dwattr $C$DW$86, DW_AT_TI_return
    2003 00000274 4770              BX        LR                    ; [DPU_3_PIPE]  ; [ORIG 16-BIT INS]
    2004                            ; BRANCH OCCURS                  ; [] 
    2005                            .dwattr $C$DW$85, DW_AT_TI_end_file("../esp8266.c")
    2006                            .dwattr $C$DW$85, DW_AT_TI_end_line(0x105)
    2007                            .dwattr $C$DW$85, DW_AT_TI_end_column(0x01)
    2008                            .dwendentry
    2009                            .dwendtag $C$DW$85
    2010                    
    2011 00000276                   .sect   ".text"
    2012                            .clink
    2013                            .thumbfunc ESP8266_PrintChar
    2014 00000276                   .thumb
    2015                            .global ESP8266_PrintChar
    2016                    
    2017                    $C$DW$87        .dwtag  DW_TAG_subprogram, DW_AT_name("ESP8266_PrintChar")
    2018                            .dwattr $C$DW$87, DW_AT_low_pc(ESP8266_PrintChar)
    2019                            .dwattr $C$DW$87, DW_AT_high_pc(0x00)
    2020                            .dwattr $C$DW$87, DW_AT_TI_symbol_name("ESP8266_PrintChar")
    2021                            .dwattr $C$DW$87, DW_AT_external
    2022                            .dwattr $C$DW$87, DW_AT_TI_begin_file("../esp8266.c")
    2023                            .dwattr $C$DW$87, DW_AT_TI_begin_line(0x10c)
    2024                            .dwattr $C$DW$87, DW_AT_TI_begin_column(0x06)
    2025                            .dwattr $C$DW$87, DW_AT_decl_file("../esp8266.c")
    2026                            .dwattr $C$DW$87, DW_AT_decl_line(0x10c)
    2027                            .dwattr $C$DW$87, DW_AT_decl_column(0x06)
    2028                            .dwattr $C$DW$87, DW_AT_TI_max_frame_size(0x08)
    2029                            .dwpsn  file "../esp8266.c",line 268,column 35,is_stmt,address ESP8266_PrintChar,isa 1
    2030                    
    2031                            .dwfde $C$DW$CIE, ESP8266_PrintChar
    2032                    $C$DW$88        .dwtag  DW_TAG_formal_parameter, DW_AT_name("input")
    2033                            .dwattr $C$DW$88, DW_AT_TI_symbol_name("input")
    2034                            .dwattr $C$DW$88, DW_AT_type(*$C$DW$T$6)
    2035                            .dwattr $C$DW$88, DW_AT_location[DW_OP_reg0]
TI ARM Assembler PC v5.2.4 Sat Feb 06 22:51:21 2016

Tools Copyright (c) 1996-2015 Texas Instruments Incorporated
esp8266.asm                                                          PAGE   38

    2036                    
    2037                    ;*****************************************************************************
    2038                    ;* FUNCTION NAME: ESP8266_PrintChar                                          *
    2039                    ;*                                                                           *
    2040                    ;*   Regs Modified     : A1,A2,SP,SR                                         *
    2041                    ;*   Regs Used         : A1,A2,SP,LR,SR                                      *
    2042                    ;*   Local Frame Size  : 0 Args + 4 Auto + 0 Save = 4 byte                   *
    2043                    ;*****************************************************************************
    2044 00000276           ESP8266_PrintChar:
    2045                    ;* --------------------------------------------------------------------------*
    2046                            .dwcfi  cfa_offset, 0
    2047 00000276 0D08F1AD          SUB       SP, SP, #8            ; [DPU_3_PIPE]  ; [KEEP 32-BIT INS]
    2048                            .dwcfi  cfa_offset, 8
    2049                    $C$DW$89        .dwtag  DW_TAG_variable, DW_AT_name("input")
    2050                            .dwattr $C$DW$89, DW_AT_TI_symbol_name("input")
    2051                            .dwattr $C$DW$89, DW_AT_type(*$C$DW$T$6)
    2052                            .dwattr $C$DW$89, DW_AT_location[DW_OP_breg13 0]
    2053                    ;----------------------------------------------------------------------
    2054                    ; 268 | void ESP8266_PrintChar(char input){                                    
    2055                    ;----------------------------------------------------------------------
    2056 0000027a 0000F88D          STRB      A1, [SP, #0]          ; [DPU_3_PIPE] |268|  ; [KEEP 32-BIT INS]
    2057                            .dwpsn  file "../esp8266.c",line 269,column 3,is_stmt,isa 1
    2058                    ;----------------------------------------------------------------------
    2059                    ; 269 | while((UART1_FR_R&UART_FR_TXFF) != 0) {};                              
    2060                    ;----------------------------------------------------------------------
    2061                    ;* --------------------------------------------------------------------------*
    2062                    ;*   BEGIN LOOP ||$C$L14||
    2063                    ;*
    2064                    ;*   Loop source line                : 269
    2065                    ;*   Loop closing brace source line  : 269
    2066                    ;*   Known Minimum Trip Count        : 1
    2067                    ;*   Known Maximum Trip Count        : 4294967295
    2068                    ;*   Known Max Trip Count Factor     : 1
    2069                    ;* --------------------------------------------------------------------------*
    2070 0000027e           ||$C$L14||:    
    2071                            .dwpsn  file "../esp8266.c",line 269,column 9,is_stmt,isa 1
    2072 0000027e 4866              LDR       A1, $C$CON33          ; [DPU_3_PIPE] |269|  ; [ORIG 16-BIT INS]
    2073 00000280 6800              LDR       A1, [A1, #0]          ; [DPU_3_PIPE] |269|  ; [ORIG 16-BIT INS]
    2074 00000282 0980              LSRS      A1, A1, #6            ; [DPU_3_PIPE] |269|  ; [ORIG 16-BIT INS]
    2075 00000284 D2FB              BCS       ||$C$L14||            ; [DPU_3_PIPE] |269|  ; [ORIG 16-BIT INS]
    2076                            ; BRANCHCC OCCURS {||$C$L14||}   ; [] |269| 
    2077                    ;* --------------------------------------------------------------------------*
    2078                            .dwpsn  file "../esp8266.c",line 270,column 3,is_stmt,isa 1
    2079                    ;----------------------------------------------------------------------
    2080                    ; 270 | UART1_DR_R = input;                                                    
    2081                    ; 271 | //  UART_OutChar(input); // echo debugging                             
    2082                    ;----------------------------------------------------------------------
    2083 00000286 0000F89D          LDRB      A1, [SP, #0]          ; [DPU_3_PIPE] |270|  ; [KEEP 32-BIT INS]
    2084 0000028a 4964              LDR       A2, $C$CON34          ; [DPU_3_PIPE] |270|  ; [ORIG 16-BIT INS]
    2085 0000028c 6008              STR       A1, [A2, #0]          ; [DPU_3_PIPE] |270|  ; [ORIG 16-BIT INS]
    2086                            .dwpsn  file "../esp8266.c",line 272,column 1,is_stmt,isa 1
    2087 0000028e B002              ADD       SP, SP, #8            ; [DPU_3_PIPE]  ; [ORIG 16-BIT INS]
    2088                            .dwcfi  cfa_offset, 0
    2089                    $C$DW$90        .dwtag  DW_TAG_TI_branch
    2090                            .dwattr $C$DW$90, DW_AT_low_pc(0x00)
TI ARM Assembler PC v5.2.4 Sat Feb 06 22:51:21 2016

Tools Copyright (c) 1996-2015 Texas Instruments Incorporated
esp8266.asm                                                          PAGE   39

    2091                            .dwattr $C$DW$90, DW_AT_TI_return
    2092 00000290 4770              BX        LR                    ; [DPU_3_PIPE]  ; [ORIG 16-BIT INS]
    2093                            ; BRANCH OCCURS                  ; [] 
    2094                            .dwattr $C$DW$87, DW_AT_TI_end_file("../esp8266.c")
    2095                            .dwattr $C$DW$87, DW_AT_TI_end_line(0x110)
    2096                            .dwattr $C$DW$87, DW_AT_TI_end_column(0x01)
    2097                            .dwendentry
    2098                            .dwendtag $C$DW$87
    2099                    
    2100 00000292                   .sect   ".text"
    2101                            .clink
    2102                            .thumbfunc ESP8266FIFOtoBuffer
    2103 00000292                   .thumb
    2104                            .global ESP8266FIFOtoBuffer
    2105                    
    2106                    $C$DW$91        .dwtag  DW_TAG_subprogram, DW_AT_name("ESP8266FIFOtoBuffer")
    2107                            .dwattr $C$DW$91, DW_AT_low_pc(ESP8266FIFOtoBuffer)
    2108                            .dwattr $C$DW$91, DW_AT_high_pc(0x00)
    2109                            .dwattr $C$DW$91, DW_AT_TI_symbol_name("ESP8266FIFOtoBuffer")
    2110                            .dwattr $C$DW$91, DW_AT_external
    2111                            .dwattr $C$DW$91, DW_AT_TI_begin_file("../esp8266.c")
    2112                            .dwattr $C$DW$91, DW_AT_TI_begin_line(0x117)
    2113                            .dwattr $C$DW$91, DW_AT_TI_begin_column(0x06)
    2114                            .dwattr $C$DW$91, DW_AT_decl_file("../esp8266.c")
    2115                            .dwattr $C$DW$91, DW_AT_decl_line(0x117)
    2116                            .dwattr $C$DW$91, DW_AT_decl_column(0x06)
    2117                            .dwattr $C$DW$91, DW_AT_TI_max_frame_size(0x08)
    2118                            .dwpsn  file "../esp8266.c",line 279,column 31,is_stmt,address ESP8266FIFOtoBuffer,isa 1
    2119                    
    2120                            .dwfde $C$DW$CIE, ESP8266FIFOtoBuffer
    2121                    ;----------------------------------------------------------------------
    2122                    ; 279 | void ESP8266FIFOtoBuffer(void){                                        
    2123                    ; 280 | char letter;                                                           
    2124                    ;----------------------------------------------------------------------
    2125                    
    2126                    ;*****************************************************************************
    2127                    ;* FUNCTION NAME: ESP8266FIFOtoBuffer                                        *
    2128                    ;*                                                                           *
    2129                    ;*   Regs Modified     : A1,A2,A3,A4,V9,SP,LR,SR,D0,D0_hi,D1,D1_hi,D2,D2_hi, *
    2130                    ;*                           D3,D3_hi,D4,D4_hi,D5,D5_hi,D6,D6_hi,D7,D7_hi,   *
    2131                    ;*                           FPEXC,FPSCR                                     *
    2132                    ;*   Regs Used         : A1,A2,A3,A4,V9,SP,LR,SR,D0,D0_hi,D1,D1_hi,D2,D2_hi, *
    2133                    ;*                           D3,D3_hi,D4,D4_hi,D5,D5_hi,D6,D6_hi,D7,D7_hi,   *
    2134                    ;*                           FPEXC,FPSCR                                     *
    2135                    ;*   Local Frame Size  : 0 Args + 4 Auto + 4 Save = 8 byte                   *
    2136                    ;*****************************************************************************
    2137 00000292           ESP8266FIFOtoBuffer:
    2138                    ;* --------------------------------------------------------------------------*
    2139                            .dwcfi  cfa_offset, 0
    2140 00000292 B508              PUSH      {A4, LR}              ; [DPU_3_PIPE]  ; [ORIG 16-BIT INS]
    2141                            .dwcfi  cfa_offset, 8
    2142                            .dwcfi  save_reg_to_mem, 14, -4
    2143                            .dwcfi  save_reg_to_mem, 3, -8
    2144                    $C$DW$92        .dwtag  DW_TAG_variable, DW_AT_name("letter")
    2145                            .dwattr $C$DW$92, DW_AT_TI_symbol_name("letter")
TI ARM Assembler PC v5.2.4 Sat Feb 06 22:51:21 2016

Tools Copyright (c) 1996-2015 Texas Instruments Incorporated
esp8266.asm                                                          PAGE   40

    2146                            .dwattr $C$DW$92, DW_AT_type(*$C$DW$T$6)
    2147                            .dwattr $C$DW$92, DW_AT_location[DW_OP_breg13 0]
    2148                            .dwpsn  file "../esp8266.c",line 281,column 3,is_stmt,isa 1
    2149                    ;----------------------------------------------------------------------
    2150                    ; 281 | while((UART1_FR_R&UART_FR_RXFE) == 0){                                 
    2151                    ;----------------------------------------------------------------------
    2152 00000294 E02F              B         ||$C$L18||            ; [DPU_3_PIPE] |281|  ; [ORIG 16-BIT INS]
    2153                            ; BRANCH OCCURS {||$C$L18||}     ; [] |281| 
    2154                    ;* --------------------------------------------------------------------------*
    2155 00000296           ||$C$L15||:    
    2156                            .dwpsn  file "../esp8266.c",line 282,column 5,is_stmt,isa 1
    2157                    ;----------------------------------------------------------------------
    2158                    ; 282 | letter = UART1_DR_R;        // retrieve char from FIFO                 
    2159                    ;----------------------------------------------------------------------
    2160 00000296 4861              LDR       A1, $C$CON34          ; [DPU_3_PIPE] |282|  ; [ORIG 16-BIT INS]
    2161 00000298 6800              LDR       A1, [A1, #0]          ; [DPU_3_PIPE] |282|  ; [ORIG 16-BIT INS]
    2162 0000029a 0000F88D          STRB      A1, [SP, #0]          ; [DPU_3_PIPE] |282|  ; [KEEP 32-BIT INS]
    2163                            .dwpsn  file "../esp8266.c",line 283,column 5,is_stmt,isa 1
    2164                    ;----------------------------------------------------------------------
    2165                    ; 283 | if(ESP8266_EchoResponse){                                              
    2166                    ;----------------------------------------------------------------------
    2167 0000029e 487A              LDR       A1, $C$CON11          ; [DPU_3_PIPE] |283|  ; [ORIG 16-BIT INS]
    2168 000002a0 7800              LDRB      A1, [A1, #0]          ; [DPU_3_PIPE] |283|  ; [ORIG 16-BIT INS]
    2169 000002a2 B118              CBZ       A1, ||$C$L16||        ; []  ; [ORIG 16-BIT INS]
    2170                            ; BRANCHCC OCCURS {||$C$L16||}   ; [] |283| 
    2171                    ;* --------------------------------------------------------------------------*
    2172                            .dwpsn  file "../esp8266.c",line 284,column 7,is_stmt,isa 1
    2173                    ;----------------------------------------------------------------------
    2174                    ; 284 | UART_OutCharNonBlock(letter); // echo                                  
    2175                    ;----------------------------------------------------------------------
    2176 000002a4 0000F89D          LDRB      A1, [SP, #0]          ; [DPU_3_PIPE] |284|  ; [KEEP 32-BIT INS]
    2177                    $C$DW$93        .dwtag  DW_TAG_TI_branch
    2178                            .dwattr $C$DW$93, DW_AT_low_pc(0x00)
    2179                            .dwattr $C$DW$93, DW_AT_name("UART_OutCharNonBlock")
    2180                            .dwattr $C$DW$93, DW_AT_TI_call
    2181 000002a8 FFFEF7FF!         BL        UART_OutCharNonBlock  ; [DPU_3_PIPE] |284|  ; [KEEP 32-BIT INS]
    2182                            ; CALL OCCURS {UART_OutCharNonBlock }  ; [] |284| 
    2183                    ;* --------------------------------------------------------------------------*
    2184 000002ac           ||$C$L16||:    
    2185                            .dwpsn  file "../esp8266.c",line 286,column 5,is_stmt,isa 1
    2186                    ;----------------------------------------------------------------------
    2187                    ; 286 | if(RXBufferIndex >= BUFFER_SIZE){                                      
    2188                    ;----------------------------------------------------------------------
    2189 000002ac 485C              LDR       A1, $C$CON35          ; [DPU_3_PIPE] |286|  ; [ORIG 16-BIT INS]
    2190 000002ae 6800              LDR       A1, [A1, #0]          ; [DPU_3_PIPE] |286|  ; [ORIG 16-BIT INS]
    2191 000002b0 0A80              LSRS      A1, A1, #10           ; [DPU_3_PIPE] |286|  ; [ORIG 16-BIT INS]
    2192 000002b2 D002              BEQ       ||$C$L17||            ; [DPU_3_PIPE] |286|  ; [ORIG 16-BIT INS]
    2193                            ; BRANCHCC OCCURS {||$C$L17||}   ; [] |286| 
    2194                    ;* --------------------------------------------------------------------------*
    2195                            .dwpsn  file "../esp8266.c",line 287,column 7,is_stmt,isa 1
    2196                    ;----------------------------------------------------------------------
    2197                    ; 287 | RXBufferIndex = 0; // store last BUFFER_SIZE received                  
    2198                    ;----------------------------------------------------------------------
    2199 000002b4 495A              LDR       A2, $C$CON35          ; [DPU_3_PIPE] |287|  ; [ORIG 16-BIT INS]
    2200 000002b6 2000              MOVS      A1, #0                ; [DPU_3_PIPE] |287|  ; [ORIG 16-BIT INS]
TI ARM Assembler PC v5.2.4 Sat Feb 06 22:51:21 2016

Tools Copyright (c) 1996-2015 Texas Instruments Incorporated
esp8266.asm                                                          PAGE   41

    2201 000002b8 6008              STR       A1, [A2, #0]          ; [DPU_3_PIPE] |287|  ; [ORIG 16-BIT INS]
    2202                    ;* --------------------------------------------------------------------------*
    2203 000002ba           ||$C$L17||:    
    2204                            .dwpsn  file "../esp8266.c",line 289,column 5,is_stmt,isa 1
    2205                    ;----------------------------------------------------------------------
    2206                    ; 289 | RXBuffer[RXBufferIndex] = letter; // put char into buffer              
    2207                    ;----------------------------------------------------------------------
    2208 000002ba 4959              LDR       A2, $C$CON35          ; [DPU_3_PIPE] |289|  ; [ORIG 16-BIT INS]
    2209 000002bc 4A59              LDR       A3, $C$CON36          ; [DPU_3_PIPE] |289|  ; [ORIG 16-BIT INS]
    2210 000002be 0000F89D          LDRB      A1, [SP, #0]          ; [DPU_3_PIPE] |289|  ; [KEEP 32-BIT INS]
    2211 000002c2 6809              LDR       A2, [A2, #0]          ; [DPU_3_PIPE] |289|  ; [ORIG 16-BIT INS]
    2212 000002c4 5450              STRB      A1, [A3, +A2]         ; [DPU_3_PIPE] |289|  ; [ORIG 16-BIT INS]
    2213                            .dwpsn  file "../esp8266.c",line 290,column 5,is_stmt,isa 1
    2214                    ;----------------------------------------------------------------------
    2215                    ; 290 | RXBufferIndex++; // increment buffer index                             
    2216                    ;----------------------------------------------------------------------
    2217 000002c6 4956              LDR       A2, $C$CON35          ; [DPU_3_PIPE] |290|  ; [ORIG 16-BIT INS]
    2218 000002c8 6808              LDR       A1, [A2, #0]          ; [DPU_3_PIPE] |290|  ; [ORIG 16-BIT INS]
    2219 000002ca 1C40              ADDS      A1, A1, #1            ; [DPU_3_PIPE] |290|  ; [ORIG 16-BIT INS]
    2220 000002cc 6008              STR       A1, [A2, #0]          ; [DPU_3_PIPE] |290|  ; [ORIG 16-BIT INS]
    2221                            .dwpsn  file "../esp8266.c",line 291,column 5,is_stmt,isa 1
    2222                    ;----------------------------------------------------------------------
    2223                    ; 291 | SearchCheck(letter);               // check for end of command         
    2224                    ;----------------------------------------------------------------------
    2225 000002ce 0000F89D          LDRB      A1, [SP, #0]          ; [DPU_3_PIPE] |291|  ; [KEEP 32-BIT INS]
    2226                    $C$DW$94        .dwtag  DW_TAG_TI_branch
    2227                            .dwattr $C$DW$94, DW_AT_low_pc(0x00)
    2228                            .dwattr $C$DW$94, DW_AT_name("SearchCheck")
    2229                            .dwattr $C$DW$94, DW_AT_TI_call
    2230 000002d2 FEBBF7FF          BL        SearchCheck           ; [DPU_3_PIPE] |291|  ; [KEEP 32-BIT INS]
    2231                            ; CALL OCCURS {SearchCheck }     ; [] |291| 
    2232                            .dwpsn  file "../esp8266.c",line 292,column 5,is_stmt,isa 1
    2233                    ;----------------------------------------------------------------------
    2234                    ; 292 | ServerResponseSearchCheck(letter); // check for server response        
    2235                    ;----------------------------------------------------------------------
    2236 000002d6 0000F89D          LDRB      A1, [SP, #0]          ; [DPU_3_PIPE] |292|  ; [KEEP 32-BIT INS]
    2237                    $C$DW$95        .dwtag  DW_TAG_TI_branch
    2238                            .dwattr $C$DW$95, DW_AT_low_pc(0x00)
    2239                            .dwattr $C$DW$95, DW_AT_name("ServerResponseSearchCheck")
    2240                            .dwattr $C$DW$95, DW_AT_TI_call
    2241 000002da FEEDF7FF          BL        ServerResponseSearchCheck ; [DPU_3_PIPE] |292|  ; [KEEP 32-BIT INS]
    2242                            ; CALL OCCURS {ServerResponseSearchCheck }  ; [] |292| 
    2243                            .dwpsn  file "../esp8266.c",line 293,column 5,is_stmt,isa 1
    2244                    ;----------------------------------------------------------------------
    2245                    ; 293 | if(letter == '\n'){                                                    
    2246                    ;----------------------------------------------------------------------
    2247 000002de 0000F89D          LDRB      A1, [SP, #0]          ; [DPU_3_PIPE] |293|  ; [KEEP 32-BIT INS]
    2248 000002e2 280A              CMP       A1, #10               ; [DPU_3_PIPE] |293|  ; [ORIG 16-BIT INS]
    2249 000002e4 D107              BNE       ||$C$L18||            ; [DPU_3_PIPE] |293|  ; [ORIG 16-BIT INS]
    2250                            ; BRANCHCC OCCURS {||$C$L18||}   ; [] |293| 
    2251                    ;* --------------------------------------------------------------------------*
    2252                            .dwpsn  file "../esp8266.c",line 294,column 7,is_stmt,isa 1
    2253                    ;----------------------------------------------------------------------
    2254                    ; 294 | LastReturnIndex = CurrentReturnIndex;                                  
    2255                    ;----------------------------------------------------------------------
TI ARM Assembler PC v5.2.4 Sat Feb 06 22:51:21 2016

Tools Copyright (c) 1996-2015 Texas Instruments Incorporated
esp8266.asm                                                          PAGE   42

    2256 000002e6 4851              LDR       A1, $C$CON38          ; [DPU_3_PIPE] |294|  ; [ORIG 16-BIT INS]
    2257 000002e8 494F              LDR       A2, $C$CON37          ; [DPU_3_PIPE] |294|  ; [ORIG 16-BIT INS]
    2258 000002ea 6800              LDR       A1, [A1, #0]          ; [DPU_3_PIPE] |294|  ; [ORIG 16-BIT INS]
    2259 000002ec 6008              STR       A1, [A2, #0]          ; [DPU_3_PIPE] |294|  ; [ORIG 16-BIT INS]
    2260                            .dwpsn  file "../esp8266.c",line 295,column 7,is_stmt,isa 1
    2261                    ;----------------------------------------------------------------------
    2262                    ; 295 | CurrentReturnIndex = RXBufferIndex;                                    
    2263                    ;----------------------------------------------------------------------
    2264 000002ee 484C              LDR       A1, $C$CON35          ; [DPU_3_PIPE] |295|  ; [ORIG 16-BIT INS]
    2265 000002f0 494E              LDR       A2, $C$CON38          ; [DPU_3_PIPE] |295|  ; [ORIG 16-BIT INS]
    2266 000002f2 6800              LDR       A1, [A1, #0]          ; [DPU_3_PIPE] |295|  ; [ORIG 16-BIT INS]
    2267 000002f4 6008              STR       A1, [A2, #0]          ; [DPU_3_PIPE] |295|  ; [ORIG 16-BIT INS]
    2268                    ;* --------------------------------------------------------------------------*
    2269                    ;*   BEGIN LOOP ||$C$L18||
    2270                    ;* --------------------------------------------------------------------------*
    2271 000002f6           ||$C$L18||:    
    2272                            .dwpsn  file "../esp8266.c",line 281,column 9,is_stmt,isa 1
    2273 000002f6 4848              LDR       A1, $C$CON33          ; [DPU_3_PIPE] |281|  ; [ORIG 16-BIT INS]
    2274 000002f8 6800              LDR       A1, [A1, #0]          ; [DPU_3_PIPE] |281|  ; [ORIG 16-BIT INS]
    2275 000002fa 0940              LSRS      A1, A1, #5            ; [DPU_3_PIPE] |281|  ; [ORIG 16-BIT INS]
    2276 000002fc D3CB              BCC       ||$C$L15||            ; [DPU_3_PIPE] |281|  ; [ORIG 16-BIT INS]
    2277                            ; BRANCHCC OCCURS {||$C$L15||}   ; [] |281| 
    2278                    ;* --------------------------------------------------------------------------*
    2279                            .dwpsn  file "../esp8266.c",line 298,column 1,is_stmt,isa 1
    2280                    $C$DW$96        .dwtag  DW_TAG_TI_branch
    2281                            .dwattr $C$DW$96, DW_AT_low_pc(0x00)
    2282                            .dwattr $C$DW$96, DW_AT_TI_return
    2283 000002fe BD08              POP       {A4, PC}              ; [DPU_3_PIPE]  ; [ORIG 16-BIT INS]
    2284                            .dwcfi  cfa_offset, 0
    2285                            ; BRANCH OCCURS                  ; [] 
    2286                            .dwattr $C$DW$91, DW_AT_TI_end_file("../esp8266.c")
    2287                            .dwattr $C$DW$91, DW_AT_TI_end_line(0x12a)
    2288                            .dwattr $C$DW$91, DW_AT_TI_end_column(0x01)
    2289                            .dwendentry
    2290                            .dwendtag $C$DW$91
    2291                    
    2292                    ;******************************************************************************
    2293                    ;* CONSTANT TABLE                                                             *
    2294                    ;******************************************************************************
    2295 00000300                   .sect   ".text"
    2296                            .align  4
    2297 00000300 00000000! ||$C$CON1||:    .bits   SearchString,32
    2298 00000304                   .sect   ".text"
    2299                            .clink
    2300                            .thumbfunc ESP8266SendCommand
    2301 00000304                   .thumb
    2302                            .global ESP8266SendCommand
    2303                    
    2304                    $C$DW$97        .dwtag  DW_TAG_subprogram, DW_AT_name("ESP8266SendCommand")
    2305                            .dwattr $C$DW$97, DW_AT_low_pc(ESP8266SendCommand)
    2306                            .dwattr $C$DW$97, DW_AT_high_pc(0x00)
    2307                            .dwattr $C$DW$97, DW_AT_TI_symbol_name("ESP8266SendCommand")
    2308                            .dwattr $C$DW$97, DW_AT_external
    2309                            .dwattr $C$DW$97, DW_AT_TI_begin_file("../esp8266.c")
    2310                            .dwattr $C$DW$97, DW_AT_TI_begin_line(0x132)
TI ARM Assembler PC v5.2.4 Sat Feb 06 22:51:21 2016

Tools Copyright (c) 1996-2015 Texas Instruments Incorporated
esp8266.asm                                                          PAGE   43

    2311                            .dwattr $C$DW$97, DW_AT_TI_begin_column(0x06)
    2312                            .dwattr $C$DW$97, DW_AT_decl_file("../esp8266.c")
    2313                            .dwattr $C$DW$97, DW_AT_decl_line(0x132)
    2314                            .dwattr $C$DW$97, DW_AT_decl_column(0x06)
    2315                            .dwattr $C$DW$97, DW_AT_TI_max_frame_size(0x10)
    2316                            .dwpsn  file "../esp8266.c",line 306,column 49,is_stmt,address ESP8266SendCommand,isa 1
    2317                    
    2318                            .dwfde $C$DW$CIE, ESP8266SendCommand
    2319                    $C$DW$98        .dwtag  DW_TAG_formal_parameter, DW_AT_name("inputString")
    2320                            .dwattr $C$DW$98, DW_AT_TI_symbol_name("inputString")
    2321                            .dwattr $C$DW$98, DW_AT_type(*$C$DW$T$42)
    2322                            .dwattr $C$DW$98, DW_AT_location[DW_OP_reg0]
    2323                    
    2324                    ;*****************************************************************************
    2325                    ;* FUNCTION NAME: ESP8266SendCommand                                         *
    2326                    ;*                                                                           *
    2327                    ;*   Regs Modified     : A1,A2,A3,A4,SP,LR,SR,FPEXC,FPSCR                    *
    2328                    ;*   Regs Used         : A1,A2,A3,A4,SP,LR,SR,FPEXC,FPSCR                    *
    2329                    ;*   Local Frame Size  : 0 Args + 8 Auto + 4 Save = 12 byte                  *
    2330                    ;*****************************************************************************
    2331 00000304           ESP8266SendCommand:
    2332                    ;* --------------------------------------------------------------------------*
    2333                            .dwcfi  cfa_offset, 0
    2334 00000304 B50E              PUSH      {A2, A3, A4, LR}      ; [DPU_3_PIPE]  ; [ORIG 16-BIT INS]
    2335                            .dwcfi  cfa_offset, 16
    2336                            .dwcfi  save_reg_to_mem, 14, -4
    2337                            .dwcfi  save_reg_to_mem, 3, -8
    2338                            .dwcfi  save_reg_to_mem, 2, -12
    2339                            .dwcfi  save_reg_to_mem, 1, -16
    2340                    $C$DW$99        .dwtag  DW_TAG_variable, DW_AT_name("inputString")
    2341                            .dwattr $C$DW$99, DW_AT_TI_symbol_name("inputString")
    2342                            .dwattr $C$DW$99, DW_AT_type(*$C$DW$T$42)
    2343                            .dwattr $C$DW$99, DW_AT_location[DW_OP_breg13 0]
    2344                    $C$DW$100       .dwtag  DW_TAG_variable, DW_AT_name("index")
    2345                            .dwattr $C$DW$100, DW_AT_TI_symbol_name("index")
    2346                            .dwattr $C$DW$100, DW_AT_type(*$C$DW$T$10)
    2347                            .dwattr $C$DW$100, DW_AT_location[DW_OP_breg13 4]
    2348                    ;----------------------------------------------------------------------
    2349                    ; 306 | void ESP8266SendCommand(const char* inputString){                      
    2350                    ;----------------------------------------------------------------------
    2351 00000306 9000              STR       A1, [SP, #0]          ; [DPU_3_PIPE] |306|  ; [ORIG 16-BIT INS]
    2352                            .dwpsn  file "../esp8266.c",line 307,column 13,is_stmt,isa 1
    2353                    ;----------------------------------------------------------------------
    2354                    ; 307 | int index = 0;                                                         
    2355                    ;----------------------------------------------------------------------
    2356 00000308 2000              MOVS      A1, #0                ; [DPU_3_PIPE] |307|  ; [ORIG 16-BIT INS]
    2357 0000030a 9001              STR       A1, [SP, #4]          ; [DPU_3_PIPE] |307|  ; [ORIG 16-BIT INS]
    2358                            .dwpsn  file "../esp8266.c",line 308,column 3,is_stmt,isa 1
    2359                    ;----------------------------------------------------------------------
    2360                    ; 308 | while(inputString[index] != 0){                                        
    2361                    ;----------------------------------------------------------------------
    2362 0000030c E006              B         ||$C$L20||            ; [DPU_3_PIPE] |308|  ; [ORIG 16-BIT INS]
    2363                            ; BRANCH OCCURS {||$C$L20||}     ; [] |308| 
    2364                    ;* --------------------------------------------------------------------------*
    2365 0000030e           ||$C$L19||:    
TI ARM Assembler PC v5.2.4 Sat Feb 06 22:51:21 2016

Tools Copyright (c) 1996-2015 Texas Instruments Incorporated
esp8266.asm                                                          PAGE   44

    2366                            .dwpsn  file "../esp8266.c",line 309,column 5,is_stmt,isa 1
    2367                    ;----------------------------------------------------------------------
    2368                    ; 309 | ESP8266_PrintChar(inputString[index++]);                               
    2369                    ;----------------------------------------------------------------------
    2370 0000030e 9801              LDR       A1, [SP, #4]          ; [DPU_3_PIPE] |309|  ; [ORIG 16-BIT INS]
    2371 00000310 9900              LDR       A2, [SP, #0]          ; [DPU_3_PIPE] |309|  ; [ORIG 16-BIT INS]
    2372 00000312 1C42              ADDS      A3, A1, #1            ; [DPU_3_PIPE] |309|  ; [ORIG 16-BIT INS]
    2373 00000314 9201              STR       A3, [SP, #4]          ; [DPU_3_PIPE] |309|  ; [ORIG 16-BIT INS]
    2374 00000316 5C40              LDRB      A1, [A1, +A2]         ; [DPU_3_PIPE] |309|  ; [ORIG 16-BIT INS]
    2375                    $C$DW$101       .dwtag  DW_TAG_TI_branch
    2376                            .dwattr $C$DW$101, DW_AT_low_pc(0x00)
    2377                            .dwattr $C$DW$101, DW_AT_name("ESP8266_PrintChar")
    2378                            .dwattr $C$DW$101, DW_AT_TI_call
    2379 00000318 FFADF7FF          BL        ESP8266_PrintChar     ; [DPU_3_PIPE] |309|  ; [KEEP 32-BIT INS]
    2380                            ; CALL OCCURS {ESP8266_PrintChar }  ; [] |309| 
    2381                    ;* --------------------------------------------------------------------------*
    2382                    ;*   BEGIN LOOP ||$C$L20||
    2383                    ;* --------------------------------------------------------------------------*
    2384 0000031c           ||$C$L20||:    
    2385                            .dwpsn  file "../esp8266.c",line 308,column 9,is_stmt,isa 1
    2386 0000031c 9800              LDR       A1, [SP, #0]          ; [DPU_3_PIPE] |308|  ; [ORIG 16-BIT INS]
    2387 0000031e 9901              LDR       A2, [SP, #4]          ; [DPU_3_PIPE] |308|  ; [ORIG 16-BIT INS]
    2388 00000320 5C08              LDRB      A1, [A2, +A1]         ; [DPU_3_PIPE] |308|  ; [ORIG 16-BIT INS]
    2389 00000322 2800              CMP       A1, #0                ; [DPU_3_PIPE] |308|  ; [ORIG 16-BIT INS]
    2390 00000324 D1F3              BNE       ||$C$L19||            ; [DPU_3_PIPE] |308|  ; [ORIG 16-BIT INS]
    2391                            ; BRANCHCC OCCURS {||$C$L19||}   ; [] |308| 
    2392                    ;* --------------------------------------------------------------------------*
    2393                            .dwpsn  file "../esp8266.c",line 311,column 1,is_stmt,isa 1
    2394                    $C$DW$102       .dwtag  DW_TAG_TI_branch
    2395                            .dwattr $C$DW$102, DW_AT_low_pc(0x00)
    2396                            .dwattr $C$DW$102, DW_AT_TI_return
    2397 00000326 BD0E              POP       {A2, A3, A4, PC}      ; [DPU_3_PIPE]  ; [ORIG 16-BIT INS]
    2398                            .dwcfi  cfa_offset, 0
    2399                            ; BRANCH OCCURS                  ; [] 
    2400                            .dwattr $C$DW$97, DW_AT_TI_end_file("../esp8266.c")
    2401                            .dwattr $C$DW$97, DW_AT_TI_end_line(0x137)
    2402                            .dwattr $C$DW$97, DW_AT_TI_end_column(0x01)
    2403                            .dwendentry
    2404                            .dwendtag $C$DW$97
    2405                    
    2406                    ;******************************************************************************
    2407                    ;* CONSTANT TABLE                                                             *
    2408                    ;******************************************************************************
    2409 00000328                   .sect   ".text"
    2410                            .align  4
    2411 00000328 00000000! ||$C$CON2||:    .bits   SearchIndex,32
    2412                            .align  4
    2413 0000032c 00000000! ||$C$CON3||:    .bits   SearchFound,32
    2414                            .align  4
    2415 00000330 00000000! ||$C$CON4||:    .bits   SearchLooking,32
    2416 00000334                   .sect   ".text"
    2417                            .clink
    2418                            .thumbfunc DelayMs
    2419 00000334                   .thumb
    2420                            .global DelayMs
TI ARM Assembler PC v5.2.4 Sat Feb 06 22:51:21 2016

Tools Copyright (c) 1996-2015 Texas Instruments Incorporated
esp8266.asm                                                          PAGE   45

    2421                    
    2422                    $C$DW$103       .dwtag  DW_TAG_subprogram, DW_AT_name("DelayMs")
    2423                            .dwattr $C$DW$103, DW_AT_low_pc(DelayMs)
    2424                            .dwattr $C$DW$103, DW_AT_high_pc(0x00)
    2425                            .dwattr $C$DW$103, DW_AT_TI_symbol_name("DelayMs")
    2426                            .dwattr $C$DW$103, DW_AT_external
    2427                            .dwattr $C$DW$103, DW_AT_TI_begin_file("../esp8266.c")
    2428                            .dwattr $C$DW$103, DW_AT_TI_begin_line(0x13d)
    2429                            .dwattr $C$DW$103, DW_AT_TI_begin_column(0x06)
    2430                            .dwattr $C$DW$103, DW_AT_decl_file("../esp8266.c")
    2431                            .dwattr $C$DW$103, DW_AT_decl_line(0x13d)
    2432                            .dwattr $C$DW$103, DW_AT_decl_column(0x06)
    2433                            .dwattr $C$DW$103, DW_AT_TI_max_frame_size(0x08)
    2434                            .dwpsn  file "../esp8266.c",line 317,column 25,is_stmt,address DelayMs,isa 1
    2435                    
    2436                            .dwfde $C$DW$CIE, DelayMs
    2437                    $C$DW$104       .dwtag  DW_TAG_formal_parameter, DW_AT_name("n")
    2438                            .dwattr $C$DW$104, DW_AT_TI_symbol_name("n")
    2439                            .dwattr $C$DW$104, DW_AT_type(*$C$DW$T$38)
    2440                            .dwattr $C$DW$104, DW_AT_location[DW_OP_reg0]
    2441                    
    2442                    ;*****************************************************************************
    2443                    ;* FUNCTION NAME: DelayMs                                                    *
    2444                    ;*                                                                           *
    2445                    ;*   Regs Modified     : A1,SP,SR                                            *
    2446                    ;*   Regs Used         : A1,SP,LR,SR                                         *
    2447                    ;*   Local Frame Size  : 0 Args + 8 Auto + 0 Save = 8 byte                   *
    2448                    ;*****************************************************************************
    2449 00000334           DelayMs:
    2450                    ;* --------------------------------------------------------------------------*
    2451                            .dwcfi  cfa_offset, 0
    2452 00000334 0D08F1AD          SUB       SP, SP, #8            ; [DPU_3_PIPE]  ; [KEEP 32-BIT INS]
    2453                            .dwcfi  cfa_offset, 8
    2454                    $C$DW$105       .dwtag  DW_TAG_variable, DW_AT_name("n")
    2455                            .dwattr $C$DW$105, DW_AT_TI_symbol_name("n")
    2456                            .dwattr $C$DW$105, DW_AT_type(*$C$DW$T$38)
    2457                            .dwattr $C$DW$105, DW_AT_location[DW_OP_breg13 0]
    2458                    $C$DW$106       .dwtag  DW_TAG_variable, DW_AT_name("time")
    2459                            .dwattr $C$DW$106, DW_AT_TI_symbol_name("time")
    2460                            .dwattr $C$DW$106, DW_AT_type(*$C$DW$T$88)
    2461                            .dwattr $C$DW$106, DW_AT_location[DW_OP_breg13 4]
    2462                    ;----------------------------------------------------------------------
    2463                    ; 317 | void DelayMs(uint32_t n){                                              
    2464                    ; 318 | volatile uint32_t time;                                                
    2465                    ;----------------------------------------------------------------------
    2466 00000338 9000              STR       A1, [SP, #0]          ; [DPU_3_PIPE] |317|  ; [ORIG 16-BIT INS]
    2467                            .dwpsn  file "../esp8266.c",line 319,column 3,is_stmt,isa 1
    2468                    ;----------------------------------------------------------------------
    2469                    ; 319 | while(n){                                                              
    2470                    ;----------------------------------------------------------------------
    2471 0000033a 9800              LDR       A1, [SP, #0]          ; [DPU_3_PIPE] |319|  ; [ORIG 16-BIT INS]
    2472 0000033c B180              CBZ       A1, ||$C$L24||        ; []  ; [ORIG 16-BIT INS]
    2473                            ; BRANCHCC OCCURS {||$C$L24||}   ; [] |319| 
    2474                    ;* --------------------------------------------------------------------------*
    2475                    ;*   BEGIN LOOP ||$C$L21||
TI ARM Assembler PC v5.2.4 Sat Feb 06 22:51:21 2016

Tools Copyright (c) 1996-2015 Texas Instruments Incorporated
esp8266.asm                                                          PAGE   46

    2476                    ;*
    2477                    ;*   Loop source line                : 319
    2478                    ;*   Loop closing brace source line  : 325
    2479                    ;*   Known Minimum Trip Count        : 1
    2480                    ;*   Known Maximum Trip Count        : 4294967295
    2481                    ;*   Known Max Trip Count Factor     : 1
    2482                    ;* --------------------------------------------------------------------------*
    2483 0000033e           ||$C$L21||:    
    2484                            .dwpsn  file "../esp8266.c",line 320,column 5,is_stmt,isa 1
    2485                    ;----------------------------------------------------------------------
    2486                    ; 320 | time = 6665;  // 1msec, tuned at 80 MHz                                
    2487                    ;----------------------------------------------------------------------
    2488 0000033e 2009F641          MOV       A1, #6665             ; [DPU_3_PIPE] |320|  ; [KEEP 32-BIT INS]
    2489 00000342 9001              STR       A1, [SP, #4]          ; [DPU_3_PIPE] |320|  ; [ORIG 16-BIT INS]
    2490                            .dwpsn  file "../esp8266.c",line 321,column 5,is_stmt,isa 1
    2491                    ;----------------------------------------------------------------------
    2492                    ; 321 | while(time){                                                           
    2493                    ;----------------------------------------------------------------------
    2494 00000344 9801              LDR       A1, [SP, #4]          ; [DPU_3_PIPE] |321|  ; [ORIG 16-BIT INS]
    2495 00000346 B128              CBZ       A1, ||$C$L23||        ; []  ; [ORIG 16-BIT INS]
    2496                            ; BRANCHCC OCCURS {||$C$L23||}   ; [] |321| 
    2497                    ;* --------------------------------------------------------------------------*
    2498                    ;*   BEGIN LOOP ||$C$L22||
    2499                    ;*
    2500                    ;*   Loop source line                : 321
    2501                    ;*   Loop closing brace source line  : 323
    2502                    ;*   Known Minimum Trip Count        : 1
    2503                    ;*   Known Maximum Trip Count        : 4294967295
    2504                    ;*   Known Max Trip Count Factor     : 1
    2505                    ;* --------------------------------------------------------------------------*
    2506 00000348           ||$C$L22||:    
    2507                            .dwpsn  file "../esp8266.c",line 322,column 7,is_stmt,isa 1
    2508                    ;----------------------------------------------------------------------
    2509                    ; 322 | time--;                                                                
    2510                    ;----------------------------------------------------------------------
    2511 00000348 9801              LDR       A1, [SP, #4]          ; [DPU_3_PIPE] |322|  ; [ORIG 16-BIT INS]
    2512 0000034a 1E40              SUBS      A1, A1, #1            ; [DPU_3_PIPE] |322|  ; [ORIG 16-BIT INS]
    2513 0000034c 9001              STR       A1, [SP, #4]          ; [DPU_3_PIPE] |322|  ; [ORIG 16-BIT INS]
    2514                            .dwpsn  file "../esp8266.c",line 321,column 5,is_stmt,isa 1
    2515 0000034e 9801              LDR       A1, [SP, #4]          ; [DPU_3_PIPE] |321|  ; [ORIG 16-BIT INS]
    2516 00000350 2800              CMP       A1, #0                ; [DPU_3_PIPE] |321|  ; [ORIG 16-BIT INS]
    2517 00000352 D1F9              BNE       ||$C$L22||            ; [DPU_3_PIPE] |321|  ; [ORIG 16-BIT INS]
    2518                            ; BRANCHCC OCCURS {||$C$L22||}   ; [] |321| 
    2519                    ;* --------------------------------------------------------------------------*
    2520 00000354           ||$C$L23||:    
    2521                            .dwpsn  file "../esp8266.c",line 324,column 5,is_stmt,isa 1
    2522                    ;----------------------------------------------------------------------
    2523                    ; 324 | n--;                                                                   
    2524                    ;----------------------------------------------------------------------
    2525 00000354 9800              LDR       A1, [SP, #0]          ; [DPU_3_PIPE] |324|  ; [ORIG 16-BIT INS]
    2526 00000356 1E40              SUBS      A1, A1, #1            ; [DPU_3_PIPE] |324|  ; [ORIG 16-BIT INS]
    2527 00000358 9000              STR       A1, [SP, #0]          ; [DPU_3_PIPE] |324|  ; [ORIG 16-BIT INS]
    2528                            .dwpsn  file "../esp8266.c",line 319,column 3,is_stmt,isa 1
    2529 0000035a 9800              LDR       A1, [SP, #0]          ; [DPU_3_PIPE] |319|  ; [ORIG 16-BIT INS]
    2530 0000035c 2800              CMP       A1, #0                ; [DPU_3_PIPE] |319|  ; [ORIG 16-BIT INS]
TI ARM Assembler PC v5.2.4 Sat Feb 06 22:51:21 2016

Tools Copyright (c) 1996-2015 Texas Instruments Incorporated
esp8266.asm                                                          PAGE   47

    2531 0000035e D1EE              BNE       ||$C$L21||            ; [DPU_3_PIPE] |319|  ; [ORIG 16-BIT INS]
    2532                            ; BRANCHCC OCCURS {||$C$L21||}   ; [] |319| 
    2533                    ;* --------------------------------------------------------------------------*
    2534                            .dwpsn  file "../esp8266.c",line 326,column 1,is_stmt,isa 1
    2535                    ;* --------------------------------------------------------------------------*
    2536 00000360           ||$C$L24||:    
    2537 00000360 B002              ADD       SP, SP, #8            ; [DPU_3_PIPE]  ; [ORIG 16-BIT INS]
    2538                            .dwcfi  cfa_offset, 0
    2539                    $C$DW$107       .dwtag  DW_TAG_TI_branch
    2540                            .dwattr $C$DW$107, DW_AT_low_pc(0x00)
    2541                            .dwattr $C$DW$107, DW_AT_TI_return
    2542 00000362 4770              BX        LR                    ; [DPU_3_PIPE]  ; [ORIG 16-BIT INS]
    2543                            ; BRANCH OCCURS                  ; [] 
    2544                            .dwattr $C$DW$103, DW_AT_TI_end_file("../esp8266.c")
    2545                            .dwattr $C$DW$103, DW_AT_TI_end_line(0x146)
    2546                            .dwattr $C$DW$103, DW_AT_TI_end_column(0x01)
    2547                            .dwendentry
    2548                            .dwendtag $C$DW$103
    2549                    
    2550                    ;******************************************************************************
    2551                    ;* STRINGS                                                                    *
    2552                    ;******************************************************************************
    2553 00000364                   .sect   ".text"
    2554                            .align  4
    2555 00000364 2B        ||$C$SL1||:     .string "+ipd,",0
         00000365 69       
         00000366 70       
         00000367 64       
         00000368 2C       
         00000369 00       
    2556                    ;******************************************************************************
    2557                    ;* CONSTANT TABLE                                                             *
    2558                    ;******************************************************************************
    2559 0000036a                   .sect   ".text"
    2560                            .align  4
    2561 0000036c 00000000! ||$C$CON5||:    .bits   ServerResponseSearchString,32
    2562                            .align  4
    2563 00000370 00000000! ||$C$CON6||:    .bits   ServerResponseSearchIndex,32
    2564                            .align  4
    2565 00000374 00000000! ||$C$CON7||:    .bits   ServerResponseSearchLooking,32
    2566                            .align  4
    2567 00000378 00000000! ||$C$CON8||:    .bits   ServerResponseSearchFinished,32
    2568                            .align  4
    2569 0000037c 00000000! ||$C$CON9||:    .bits   ServerResponseIndex,32
    2570 00000380                   .sect   ".text"
    2571                            .clink
    2572                            .thumbfunc DelayMsSearching
    2573 00000380                   .thumb
    2574                            .global DelayMsSearching
    2575                    
    2576                    $C$DW$108       .dwtag  DW_TAG_subprogram, DW_AT_name("DelayMsSearching")
    2577                            .dwattr $C$DW$108, DW_AT_low_pc(DelayMsSearching)
    2578                            .dwattr $C$DW$108, DW_AT_high_pc(0x00)
    2579                            .dwattr $C$DW$108, DW_AT_TI_symbol_name("DelayMsSearching")
    2580                            .dwattr $C$DW$108, DW_AT_external
TI ARM Assembler PC v5.2.4 Sat Feb 06 22:51:21 2016

Tools Copyright (c) 1996-2015 Texas Instruments Incorporated
esp8266.asm                                                          PAGE   48

    2581                            .dwattr $C$DW$108, DW_AT_TI_begin_file("../esp8266.c")
    2582                            .dwattr $C$DW$108, DW_AT_TI_begin_line(0x147)
    2583                            .dwattr $C$DW$108, DW_AT_TI_begin_column(0x06)
    2584                            .dwattr $C$DW$108, DW_AT_decl_file("../esp8266.c")
    2585                            .dwattr $C$DW$108, DW_AT_decl_line(0x147)
    2586                            .dwattr $C$DW$108, DW_AT_decl_column(0x06)
    2587                            .dwattr $C$DW$108, DW_AT_TI_max_frame_size(0x08)
    2588                            .dwpsn  file "../esp8266.c",line 327,column 34,is_stmt,address DelayMsSearching,isa 1
    2589                    
    2590                            .dwfde $C$DW$CIE, DelayMsSearching
    2591                    $C$DW$109       .dwtag  DW_TAG_formal_parameter, DW_AT_name("n")
    2592                            .dwattr $C$DW$109, DW_AT_TI_symbol_name("n")
    2593                            .dwattr $C$DW$109, DW_AT_type(*$C$DW$T$38)
    2594                            .dwattr $C$DW$109, DW_AT_location[DW_OP_reg0]
    2595                    
    2596                    ;*****************************************************************************
    2597                    ;* FUNCTION NAME: DelayMsSearching                                           *
    2598                    ;*                                                                           *
    2599                    ;*   Regs Modified     : A1,SP,SR                                            *
    2600                    ;*   Regs Used         : A1,SP,LR,SR                                         *
    2601                    ;*   Local Frame Size  : 0 Args + 8 Auto + 0 Save = 8 byte                   *
    2602                    ;*****************************************************************************
    2603 00000380           DelayMsSearching:
    2604                    ;* --------------------------------------------------------------------------*
    2605                            .dwcfi  cfa_offset, 0
    2606 00000380 0D08F1AD          SUB       SP, SP, #8            ; [DPU_3_PIPE]  ; [KEEP 32-BIT INS]
    2607                            .dwcfi  cfa_offset, 8
    2608                    $C$DW$110       .dwtag  DW_TAG_variable, DW_AT_name("n")
    2609                            .dwattr $C$DW$110, DW_AT_TI_symbol_name("n")
    2610                            .dwattr $C$DW$110, DW_AT_type(*$C$DW$T$38)
    2611                            .dwattr $C$DW$110, DW_AT_location[DW_OP_breg13 0]
    2612                    $C$DW$111       .dwtag  DW_TAG_variable, DW_AT_name("time")
    2613                            .dwattr $C$DW$111, DW_AT_TI_symbol_name("time")
    2614                            .dwattr $C$DW$111, DW_AT_type(*$C$DW$T$88)
    2615                            .dwattr $C$DW$111, DW_AT_location[DW_OP_breg13 4]
    2616                    ;----------------------------------------------------------------------
    2617                    ; 327 | void DelayMsSearching(uint32_t n){                                     
    2618                    ; 328 | volatile uint32_t time;                                                
    2619                    ;----------------------------------------------------------------------
    2620 00000384 9000              STR       A1, [SP, #0]          ; [DPU_3_PIPE] |327|  ; [ORIG 16-BIT INS]
    2621                            .dwpsn  file "../esp8266.c",line 329,column 3,is_stmt,isa 1
    2622                    ;----------------------------------------------------------------------
    2623                    ; 329 | while(n){                                                              
    2624                    ;----------------------------------------------------------------------
    2625 00000386 9800              LDR       A1, [SP, #0]          ; [DPU_3_PIPE] |329|  ; [ORIG 16-BIT INS]
    2626 00000388 B198              CBZ       A1, ||$C$L28||        ; []  ; [ORIG 16-BIT INS]
    2627                            ; BRANCHCC OCCURS {||$C$L28||}   ; [] |329| 
    2628                    ;* --------------------------------------------------------------------------*
    2629                    ;*   BEGIN LOOP ||$C$L25||
    2630                    ;*
    2631                    ;*   Loop source line                : 329
    2632                    ;*   Loop closing brace source line  : 336
    2633                    ;*   Known Minimum Trip Count        : 1
    2634                    ;*   Known Maximum Trip Count        : 4294967295
    2635                    ;*   Known Max Trip Count Factor     : 1
TI ARM Assembler PC v5.2.4 Sat Feb 06 22:51:21 2016

Tools Copyright (c) 1996-2015 Texas Instruments Incorporated
esp8266.asm                                                          PAGE   49

    2636                    ;* --------------------------------------------------------------------------*
    2637 0000038a           ||$C$L25||:    
    2638                            .dwpsn  file "../esp8266.c",line 330,column 5,is_stmt,isa 1
    2639                    ;----------------------------------------------------------------------
    2640                    ; 330 | time = 4065;  // 1msec, tuned at 80 MHz                                
    2641                    ;----------------------------------------------------------------------
    2642 0000038a 70E1F640          MOV       A1, #4065             ; [DPU_3_PIPE] |330|  ; [KEEP 32-BIT INS]
    2643 0000038e 9001              STR       A1, [SP, #4]          ; [DPU_3_PIPE] |330|  ; [ORIG 16-BIT INS]
    2644                            .dwpsn  file "../esp8266.c",line 331,column 5,is_stmt,isa 1
    2645                    ;----------------------------------------------------------------------
    2646                    ; 331 | while(time){                                                           
    2647                    ;----------------------------------------------------------------------
    2648 00000390 9801              LDR       A1, [SP, #4]          ; [DPU_3_PIPE] |331|  ; [ORIG 16-BIT INS]
    2649 00000392 B140              CBZ       A1, ||$C$L27||        ; []  ; [ORIG 16-BIT INS]
    2650                            ; BRANCHCC OCCURS {||$C$L27||}   ; [] |331| 
    2651                    ;* --------------------------------------------------------------------------*
    2652                    ;*   BEGIN LOOP ||$C$L26||
    2653                    ;*
    2654                    ;*   Loop source line                : 331
    2655                    ;*   Loop closing brace source line  : 334
    2656                    ;*   Known Minimum Trip Count        : 1
    2657                    ;*   Known Maximum Trip Count        : 4294967295
    2658                    ;*   Known Max Trip Count Factor     : 1
    2659                    ;* --------------------------------------------------------------------------*
    2660 00000394           ||$C$L26||:    
    2661                            .dwpsn  file "../esp8266.c",line 332,column 7,is_stmt,isa 1
    2662                    ;----------------------------------------------------------------------
    2663                    ; 332 | time--;                                                                
    2664                    ;----------------------------------------------------------------------
    2665 00000394 9801              LDR       A1, [SP, #4]          ; [DPU_3_PIPE] |332|  ; [ORIG 16-BIT INS]
    2666 00000396 1E40              SUBS      A1, A1, #1            ; [DPU_3_PIPE] |332|  ; [ORIG 16-BIT INS]
    2667 00000398 9001              STR       A1, [SP, #4]          ; [DPU_3_PIPE] |332|  ; [ORIG 16-BIT INS]
    2668                            .dwpsn  file "../esp8266.c",line 333,column 7,is_stmt,isa 1
    2669                    ;----------------------------------------------------------------------
    2670                    ; 333 | if(SearchFound) return;                                                
    2671                    ;----------------------------------------------------------------------
    2672 0000039a 4877              LDR       A1, $C$CON39          ; [DPU_3_PIPE] |333|  ; [ORIG 16-BIT INS]
    2673 0000039c 7800              LDRB      A1, [A1, #0]          ; [DPU_3_PIPE] |333|  ; [ORIG 16-BIT INS]
    2674 0000039e B940              CBNZ      A1, ||$C$L28||        ; []  ; [ORIG 16-BIT INS]
    2675                            ; BRANCHCC OCCURS {||$C$L28||}   ; [] |333| 
    2676                    ;* --------------------------------------------------------------------------*
    2677                            .dwpsn  file "../esp8266.c",line 333,column 23,is_stmt,isa 1
    2678                            .dwpsn  file "../esp8266.c",line 331,column 5,is_stmt,isa 1
    2679 000003a0 9801              LDR       A1, [SP, #4]          ; [DPU_3_PIPE] |331|  ; [ORIG 16-BIT INS]
    2680 000003a2 2800              CMP       A1, #0                ; [DPU_3_PIPE] |331|  ; [ORIG 16-BIT INS]
    2681 000003a4 D1F6              BNE       ||$C$L26||            ; [DPU_3_PIPE] |331|  ; [ORIG 16-BIT INS]
    2682                            ; BRANCHCC OCCURS {||$C$L26||}   ; [] |331| 
    2683                    ;* --------------------------------------------------------------------------*
    2684 000003a6           ||$C$L27||:    
    2685                            .dwpsn  file "../esp8266.c",line 335,column 5,is_stmt,isa 1
    2686                    ;----------------------------------------------------------------------
    2687                    ; 335 | n--;                                                                   
    2688                    ;----------------------------------------------------------------------
    2689 000003a6 9800              LDR       A1, [SP, #0]          ; [DPU_3_PIPE] |335|  ; [ORIG 16-BIT INS]
    2690 000003a8 1E40              SUBS      A1, A1, #1            ; [DPU_3_PIPE] |335|  ; [ORIG 16-BIT INS]
TI ARM Assembler PC v5.2.4 Sat Feb 06 22:51:21 2016

Tools Copyright (c) 1996-2015 Texas Instruments Incorporated
esp8266.asm                                                          PAGE   50

    2691 000003aa 9000              STR       A1, [SP, #0]          ; [DPU_3_PIPE] |335|  ; [ORIG 16-BIT INS]
    2692                            .dwpsn  file "../esp8266.c",line 329,column 3,is_stmt,isa 1
    2693 000003ac 9800              LDR       A1, [SP, #0]          ; [DPU_3_PIPE] |329|  ; [ORIG 16-BIT INS]
    2694 000003ae 2800              CMP       A1, #0                ; [DPU_3_PIPE] |329|  ; [ORIG 16-BIT INS]
    2695 000003b0 D1EB              BNE       ||$C$L25||            ; [DPU_3_PIPE] |329|  ; [ORIG 16-BIT INS]
    2696                            ; BRANCHCC OCCURS {||$C$L25||}   ; [] |329| 
    2697                    ;* --------------------------------------------------------------------------*
    2698                            .dwpsn  file "../esp8266.c",line 337,column 1,is_stmt,isa 1
    2699                    ;* --------------------------------------------------------------------------*
    2700 000003b2           ||$C$L28||:    
    2701 000003b2 B002              ADD       SP, SP, #8            ; [DPU_3_PIPE]  ; [ORIG 16-BIT INS]
    2702                            .dwcfi  cfa_offset, 0
    2703                    $C$DW$112       .dwtag  DW_TAG_TI_branch
    2704                            .dwattr $C$DW$112, DW_AT_low_pc(0x00)
    2705                            .dwattr $C$DW$112, DW_AT_TI_return
    2706 000003b4 4770              BX        LR                    ; [DPU_3_PIPE]  ; [ORIG 16-BIT INS]
    2707                            ; BRANCH OCCURS                  ; [] 
    2708                            .dwattr $C$DW$108, DW_AT_TI_end_file("../esp8266.c")
    2709                            .dwattr $C$DW$108, DW_AT_TI_end_line(0x151)
    2710                            .dwattr $C$DW$108, DW_AT_TI_end_column(0x01)
    2711                            .dwendentry
    2712                            .dwendtag $C$DW$108
    2713                    
    2714                    ;******************************************************************************
    2715                    ;* STRINGS                                                                    *
    2716                    ;******************************************************************************
    2717 000003b6                   .sect   ".text"
    2718                            .align  4
    2719 000003b8 0D        ||$C$SL2||:     .string 13,10,"ok",13,10,0
         000003b9 0A       
         000003ba 6F       
         000003bb 6B       
         000003bc 0D       
         000003bd 0A       
         000003be 00       
    2720                    ;******************************************************************************
    2721                    ;* CONSTANT TABLE                                                             *
    2722                    ;******************************************************************************
    2723 000003bf                   .sect   ".text"
    2724                            .align  4
    2725 000003be 0000C000! ||$C$CON10||:   .bits   ServerResponseBuffer,32
         000003c2 00000000 
    2726                            .align  4
    2727 000003c2 E6180000  ||$C$CON12||:   .bits   1074783768,32
         000003c6 0000400F 
    2728                            .align  4
    2729 000003c6 EA18400F  ||$C$CON13||:   .bits   1074784792,32
         000003ca 0000400F 
    2730                            .align  4
    2731 000003ca E608400F  ||$C$CON14||:   .bits   1074783752,32
         000003ce 0000400F 
    2732                            .align  4
    2733 000003ce EA08400F  ||$C$CON15||:   .bits   1074784776,32
         000003d2 0000400F 
    2734                            .align  4
TI ARM Assembler PC v5.2.4 Sat Feb 06 22:51:21 2016

Tools Copyright (c) 1996-2015 Texas Instruments Incorporated
esp8266.asm                                                          PAGE   51

    2735 000003d2 5420400F  ||$C$CON16||:   .bits   1073763360,32
         000003d6 00004000 
    2736                            .align  4
    2737 000003d6 54004000  ||$C$CON17||:   .bits   1073763328,32
         000003da 00004000 
    2738                            .align  4
    2739 000003da 552C4000  ||$C$CON18||:   .bits   1073763628,32
         000003de 00004000 
    2740                            .align  4
    2741 000003de FF004000  ||$C$CON19||:   .bits   -15728896,32
         000003e2 0000FF0F 
    2742                            .align  4
    2743 000003e2 551CFF0F  ||$C$CON20||:   .bits   1073763612,32
         000003e6 00004000 
    2744                            .align  4
    2745 000003e6 53FC4000  ||$C$CON21||:   .bits   1073763324,32
         000003ea 00004000 
    2746                            .align  4
    2747 000003ea D0304000  ||$C$CON22||:   .bits   1073795120,32
         000003ee 00004000 
    2748                            .align  4
    2749 000003ee D0244000  ||$C$CON23||:   .bits   1073795108,32
         000003f2 00004000 
    2750                            .align  4
    2751 000003f2 4B404000  ||$C$CON24||:   .bits   5000000,32
         000003f6 0000004C 
    2752                            .align  4
    2753 000003f6 D028004C  ||$C$CON25||:   .bits   1073795112,32
         000003fa 00004000 
    2754                            .align  4
    2755 000003fa D02C4000  ||$C$CON26||:   .bits   1073795116,32
         000003fe 00004000 
    2756                            .align  4
    2757 000003fe D0344000  ||$C$CON27||:   .bits   1073795124,32
         00000402 00004000 
    2758                            .align  4
    2759 00000402 D0384000  ||$C$CON28||:   .bits   1073795128,32
         00000406 00004000 
    2760                            .align  4
    2761 00000406 D03C4000  ||$C$CON29||:   .bits   1073795132,32
         0000040a 00004000 
    2762                            .align  4
    2763 0000040a D0444000  ||$C$CON30||:   .bits   1073795140,32
         0000040e 00004000 
    2764                            .align  4
    2765 0000040e E1004000  ||$C$CON31||:   .bits   -536813312,32
         00000412 0000E000 
    2766                            .align  4
    2767 00000412 E180E000  ||$C$CON32||:   .bits   -536813184,32
         00000416 0000E000 
    2768                            .align  4
    2769 00000416 D018E000  ||$C$CON33||:   .bits   1073795096,32
         0000041a 00004000 
    2770                            .align  4
    2771 0000041a D0004000  ||$C$CON34||:   .bits   1073795072,32
TI ARM Assembler PC v5.2.4 Sat Feb 06 22:51:21 2016

Tools Copyright (c) 1996-2015 Texas Instruments Incorporated
esp8266.asm                                                          PAGE   52

         0000041e 00004000 
    2772                            .align  4
    2773 0000041e 00004000! ||$C$CON35||:   .bits   RXBufferIndex,32
         00000422 00000000 
    2774                            .align  4
    2775 00000422 00000000! ||$C$CON36||:   .bits   RXBuffer,32
         00000426 00000000 
    2776                            .align  4
    2777 00000426 00000000! ||$C$CON37||:   .bits   LastReturnIndex,32
         0000042a 00000000 
    2778                            .align  4
    2779 0000042a 00000000! ||$C$CON38||:   .bits   CurrentReturnIndex,32
         0000042e 00000000 
    2780 00000430                   .sect   ".text"
    2781                            .clink
    2782                            .thumbfunc ESP8266_Init
    2783 00000430                   .thumb
    2784                            .global ESP8266_Init
    2785                    
    2786                    $C$DW$113       .dwtag  DW_TAG_subprogram, DW_AT_name("ESP8266_Init")
    2787                            .dwattr $C$DW$113, DW_AT_low_pc(ESP8266_Init)
    2788                            .dwattr $C$DW$113, DW_AT_high_pc(0x00)
    2789                            .dwattr $C$DW$113, DW_AT_TI_symbol_name("ESP8266_Init")
    2790                            .dwattr $C$DW$113, DW_AT_external
    2791                            .dwattr $C$DW$113, DW_AT_TI_begin_file("../esp8266.c")
    2792                            .dwattr $C$DW$113, DW_AT_TI_begin_line(0x15c)
    2793                            .dwattr $C$DW$113, DW_AT_TI_begin_column(0x06)
    2794                            .dwattr $C$DW$113, DW_AT_decl_file("../esp8266.c")
    2795                            .dwattr $C$DW$113, DW_AT_decl_line(0x15c)
    2796                            .dwattr $C$DW$113, DW_AT_decl_column(0x06)
    2797                            .dwattr $C$DW$113, DW_AT_TI_max_frame_size(0x08)
    2798                            .dwpsn  file "../esp8266.c",line 348,column 33,is_stmt,address ESP8266_Init,isa 1
    2799                    
    2800                            .dwfde $C$DW$CIE, ESP8266_Init
    2801                    $C$DW$114       .dwtag  DW_TAG_formal_parameter, DW_AT_name("baud")
    2802                            .dwattr $C$DW$114, DW_AT_TI_symbol_name("baud")
    2803                            .dwattr $C$DW$114, DW_AT_type(*$C$DW$T$38)
    2804                            .dwattr $C$DW$114, DW_AT_location[DW_OP_reg0]
    2805                    
    2806                    ;*****************************************************************************
    2807                    ;* FUNCTION NAME: ESP8266_Init                                               *
    2808                    ;*                                                                           *
    2809                    ;*   Regs Modified     : A1,A2,A3,A4,V9,SP,LR,SR,D0,D0_hi,D1,D1_hi,D2,D2_hi, *
    2810                    ;*                           D3,D3_hi,D4,D4_hi,D5,D5_hi,D6,D6_hi,D7,D7_hi,   *
    2811                    ;*                           FPEXC,FPSCR                                     *
    2812                    ;*   Regs Used         : A1,A2,A3,A4,V9,SP,LR,SR,D0,D0_hi,D1,D1_hi,D2,D2_hi, *
    2813                    ;*                           D3,D3_hi,D4,D4_hi,D5,D5_hi,D6,D6_hi,D7,D7_hi,   *
    2814                    ;*                           FPEXC,FPSCR                                     *
    2815                    ;*   Local Frame Size  : 0 Args + 4 Auto + 4 Save = 8 byte                   *
    2816                    ;*****************************************************************************
    2817 00000430           ESP8266_Init:
    2818                    ;* --------------------------------------------------------------------------*
    2819                            .dwcfi  cfa_offset, 0
    2820 00000430 B508              PUSH      {A4, LR}              ; [DPU_3_PIPE]  ; [ORIG 16-BIT INS]
    2821                            .dwcfi  cfa_offset, 8
TI ARM Assembler PC v5.2.4 Sat Feb 06 22:51:21 2016

Tools Copyright (c) 1996-2015 Texas Instruments Incorporated
esp8266.asm                                                          PAGE   53

    2822                            .dwcfi  save_reg_to_mem, 14, -4
    2823                            .dwcfi  save_reg_to_mem, 3, -8
    2824                    $C$DW$115       .dwtag  DW_TAG_variable, DW_AT_name("baud")
    2825                            .dwattr $C$DW$115, DW_AT_TI_symbol_name("baud")
    2826                            .dwattr $C$DW$115, DW_AT_type(*$C$DW$T$38)
    2827                            .dwattr $C$DW$115, DW_AT_location[DW_OP_breg13 0]
    2828                    ;----------------------------------------------------------------------
    2829                    ; 348 | void ESP8266_Init(uint32_t baud){                                      
    2830                    ;----------------------------------------------------------------------
    2831 00000432 9000              STR       A1, [SP, #0]          ; [DPU_3_PIPE] |348|  ; [ORIG 16-BIT INS]
    2832                            .dwpsn  file "../esp8266.c",line 349,column 3,is_stmt,isa 1
    2833                    ;----------------------------------------------------------------------
    2834                    ; 349 | ESP8266_InitUART(baud,true); // baud rate, no echo to UART0            
    2835                    ;----------------------------------------------------------------------
    2836 00000434 9800              LDR       A1, [SP, #0]          ; [DPU_3_PIPE] |349|  ; [ORIG 16-BIT INS]
    2837 00000436 2101              MOVS      A2, #1                ; [DPU_3_PIPE] |349|  ; [ORIG 16-BIT INS]
    2838                    $C$DW$116       .dwtag  DW_TAG_TI_branch
    2839                            .dwattr $C$DW$116, DW_AT_low_pc(0x00)
    2840                            .dwattr $C$DW$116, DW_AT_name("ESP8266_InitUART")
    2841                            .dwattr $C$DW$116, DW_AT_TI_call
    2842 00000438 FE9AF7FF          BL        ESP8266_InitUART      ; [DPU_3_PIPE] |349|  ; [KEEP 32-BIT INS]
    2843                            ; CALL OCCURS {ESP8266_InitUART }  ; [] |349| 
    2844                            .dwpsn  file "../esp8266.c",line 350,column 3,is_stmt,isa 1
    2845                    ;----------------------------------------------------------------------
    2846                    ; 350 | ESP8266_EnableRXInterrupt();                                           
    2847                    ;----------------------------------------------------------------------
    2848                    $C$DW$117       .dwtag  DW_TAG_TI_branch
    2849                            .dwattr $C$DW$117, DW_AT_low_pc(0x00)
    2850                            .dwattr $C$DW$117, DW_AT_name("ESP8266_EnableRXInterrupt")
    2851                            .dwattr $C$DW$117, DW_AT_TI_call
    2852 0000043c FF13F7FF          BL        ESP8266_EnableRXInterrupt ; [DPU_3_PIPE] |350|  ; [KEEP 32-BIT INS]
    2853                            ; CALL OCCURS {ESP8266_EnableRXInterrupt }  ; [] |350| 
    2854                            .dwpsn  file "../esp8266.c",line 351,column 3,is_stmt,isa 1
    2855                    ;----------------------------------------------------------------------
    2856                    ; 351 | SearchLooking = false;                                                 
    2857                    ;----------------------------------------------------------------------
    2858 00000440 4960              LDR       A2, $C$CON41          ; [DPU_3_PIPE] |351|  ; [ORIG 16-BIT INS]
    2859 00000442 2000              MOVS      A1, #0                ; [DPU_3_PIPE] |351|  ; [ORIG 16-BIT INS]
    2860 00000444 7008              STRB      A1, [A2, #0]          ; [DPU_3_PIPE] |351|  ; [ORIG 16-BIT INS]
    2861                            .dwpsn  file "../esp8266.c",line 352,column 3,is_stmt,isa 1
    2862                    ;----------------------------------------------------------------------
    2863                    ; 352 | SearchFound = false;                                                   
    2864                    ;----------------------------------------------------------------------
    2865 00000446 494C              LDR       A2, $C$CON39          ; [DPU_3_PIPE] |352|  ; [ORIG 16-BIT INS]
    2866 00000448 2000              MOVS      A1, #0                ; [DPU_3_PIPE] |352|  ; [ORIG 16-BIT INS]
    2867 0000044a 7008              STRB      A1, [A2, #0]          ; [DPU_3_PIPE] |352|  ; [ORIG 16-BIT INS]
    2868                            .dwpsn  file "../esp8266.c",line 353,column 3,is_stmt,isa 1
    2869                    ;----------------------------------------------------------------------
    2870                    ; 353 | ServerResponseSearchLooking = 0; // not looking for "+IPD"             
    2871                    ;----------------------------------------------------------------------
    2872 0000044c 495E              LDR       A2, $C$CON42          ; [DPU_3_PIPE] |353|  ; [ORIG 16-BIT INS]
    2873 0000044e 2000              MOVS      A1, #0                ; [DPU_3_PIPE] |353|  ; [ORIG 16-BIT INS]
    2874 00000450 6008              STR       A1, [A2, #0]          ; [DPU_3_PIPE] |353|  ; [ORIG 16-BIT INS]
    2875                            .dwpsn  file "../esp8266.c",line 354,column 3,is_stmt,isa 1
    2876                    ;----------------------------------------------------------------------
TI ARM Assembler PC v5.2.4 Sat Feb 06 22:51:21 2016

Tools Copyright (c) 1996-2015 Texas Instruments Incorporated
esp8266.asm                                                          PAGE   54

    2877                    ; 354 | ServerResponseSearchFinished = 0;                                      
    2878                    ;----------------------------------------------------------------------
    2879 00000452 495E              LDR       A2, $C$CON43          ; [DPU_3_PIPE] |354|  ; [ORIG 16-BIT INS]
    2880 00000454 2000              MOVS      A1, #0                ; [DPU_3_PIPE] |354|  ; [ORIG 16-BIT INS]
    2881 00000456 6008              STR       A1, [A2, #0]          ; [DPU_3_PIPE] |354|  ; [ORIG 16-BIT INS]
    2882                            .dwpsn  file "../esp8266.c",line 355,column 3,is_stmt,isa 1
    2883                    ;----------------------------------------------------------------------
    2884                    ; 355 | EnableInterrupts();                                                    
    2885                    ; 356 | // step 1: AT+RST reset module                                         
    2886                    ;----------------------------------------------------------------------
    2887                    $C$DW$118       .dwtag  DW_TAG_TI_branch
    2888                            .dwattr $C$DW$118, DW_AT_low_pc(0x00)
    2889                            .dwattr $C$DW$118, DW_AT_name("EnableInterrupts")
    2890                            .dwattr $C$DW$118, DW_AT_TI_call
    2891 00000458 FFFEF7FF!         BL        EnableInterrupts      ; [DPU_3_PIPE] |355|  ; [KEEP 32-BIT INS]
    2892                            ; CALL OCCURS {EnableInterrupts }  ; [] |355| 
    2893                            .dwpsn  file "../esp8266.c",line 357,column 3,is_stmt,isa 1
    2894                    ;----------------------------------------------------------------------
    2895                    ; 357 | printf("ESP8266 Initialization:\n\r");                                 
    2896                    ;----------------------------------------------------------------------
    2897 0000045c A08C              ADR       A1, $C$SL3            ; [DPU_3_PIPE] |357|  ; [ORIG 16-BIT INS]
    2898                    $C$DW$119       .dwtag  DW_TAG_TI_branch
    2899                            .dwattr $C$DW$119, DW_AT_low_pc(0x00)
    2900                            .dwattr $C$DW$119, DW_AT_name("printf")
    2901                            .dwattr $C$DW$119, DW_AT_TI_call
    2902 0000045e FFFEF7FF!         BL        printf                ; [DPU_3_PIPE] |357|  ; [KEEP 32-BIT INS]
    2903                            ; CALL OCCURS {printf }          ; [] |357| 
    2904                            .dwpsn  file "../esp8266.c",line 358,column 3,is_stmt,isa 1
    2905                    ;----------------------------------------------------------------------
    2906                    ; 358 | ESP8266_EchoResponse = true; // debugging                              
    2907                    ;----------------------------------------------------------------------
    2908 00000462 4909              LDR       A2, $C$CON11          ; [DPU_3_PIPE] |358|  ; [ORIG 16-BIT INS]
    2909 00000464 2001              MOVS      A1, #1                ; [DPU_3_PIPE] |358|  ; [ORIG 16-BIT INS]
    2910 00000466 7008              STRB      A1, [A2, #0]          ; [DPU_3_PIPE] |358|  ; [ORIG 16-BIT INS]
    2911                            .dwpsn  file "../esp8266.c",line 359,column 3,is_stmt,isa 1
    2912                    ;----------------------------------------------------------------------
    2913                    ; 359 | if(ESP8266_Reset()==0){                                                
    2914                    ;----------------------------------------------------------------------
    2915                    $C$DW$120       .dwtag  DW_TAG_TI_branch
    2916                            .dwattr $C$DW$120, DW_AT_low_pc(0x00)
    2917                            .dwattr $C$DW$120, DW_AT_name("ESP8266_Reset")
    2918                            .dwattr $C$DW$120, DW_AT_TI_call
    2919 00000468 F833F000          BL        ESP8266_Reset         ; [DPU_3_PIPE] |359|  ; [KEEP 32-BIT INS]
    2920                            ; CALL OCCURS {ESP8266_Reset }   ; [] |359| 
    2921 0000046c B918              CBNZ      A1, ||$C$L30||        ; []  ; [ORIG 16-BIT INS]
    2922                            ; BRANCHCC OCCURS {||$C$L30||}   ; [] |359| 
    2923                    ;* --------------------------------------------------------------------------*
    2924                            .dwpsn  file "../esp8266.c",line 360,column 5,is_stmt,isa 1
    2925                    ;----------------------------------------------------------------------
    2926                    ; 360 | printf("Reset failure, could not reset\n\r"); while(1){};              
    2927                    ;----------------------------------------------------------------------
    2928 0000046e A08F              ADR       A1, $C$SL4            ; [DPU_3_PIPE] |360|  ; [ORIG 16-BIT INS]
    2929                    $C$DW$121       .dwtag  DW_TAG_TI_branch
    2930                            .dwattr $C$DW$121, DW_AT_low_pc(0x00)
    2931                            .dwattr $C$DW$121, DW_AT_name("printf")
TI ARM Assembler PC v5.2.4 Sat Feb 06 22:51:21 2016

Tools Copyright (c) 1996-2015 Texas Instruments Incorporated
esp8266.asm                                                          PAGE   55

    2932                            .dwattr $C$DW$121, DW_AT_TI_call
    2933 00000470 FFFEF7FF!         BL        printf                ; [DPU_3_PIPE] |360|  ; [KEEP 32-BIT INS]
    2934                            ; CALL OCCURS {printf }          ; [] |360| 
    2935                            .dwpsn  file "../esp8266.c",line 360,column 57,is_stmt,isa 1
    2936                    ;----------------------------------------------------------------------
    2937                    ; 362 | //  ESP8266SendCommand("AT+UART_CUR=115200,8,1,0,0\r\n");              
    2938                    ; 363 | //  UART_InChar();                                                     
    2939                    ; 365 | //  ESP8266_InitUART(115200,true);                                     
    2940                    ; 367 | // step 2: AT+CWMODE=1 set wifi mode to client (not an access point)   
    2941                    ;----------------------------------------------------------------------
    2942                    ;* --------------------------------------------------------------------------*
    2943                    ;*   BEGIN LOOP ||$C$L29||
    2944                    ;*
    2945                    ;*   Loop source line                : 360
    2946                    ;*   Loop closing brace source line  : 360
    2947                    ;*   Known Minimum Trip Count        : 1
    2948                    ;*   Known Maximum Trip Count        : 4294967295
    2949                    ;*   Known Max Trip Count Factor     : 1
    2950                    ;* --------------------------------------------------------------------------*
    2951 00000474           ||$C$L29||:    
    2952 00000474 E7FE              B         ||$C$L29||            ; [DPU_3_PIPE] |360|  ; [ORIG 16-BIT INS]
    2953                            ; BRANCH OCCURS {||$C$L29||}     ; [] |360| 
    2954                    ;* --------------------------------------------------------------------------*
    2955 00000476           ||$C$L30||:    
    2956                            .dwpsn  file "../esp8266.c",line 368,column 3,is_stmt,isa 1
    2957                    ;----------------------------------------------------------------------
    2958                    ; 368 | if(ESP8266_SetWifiMode(ESP8266_WIFI_MODE_CLIENT)==0){                  
    2959                    ;----------------------------------------------------------------------
    2960 00000476 2001              MOVS      A1, #1                ; [DPU_3_PIPE] |368|  ; [ORIG 16-BIT INS]
    2961                    $C$DW$122       .dwtag  DW_TAG_TI_branch
    2962                            .dwattr $C$DW$122, DW_AT_low_pc(0x00)
    2963                            .dwattr $C$DW$122, DW_AT_name("ESP8266_SetWifiMode")
    2964                            .dwattr $C$DW$122, DW_AT_TI_call
    2965 00000478 F854F000          BL        ESP8266_SetWifiMode   ; [DPU_3_PIPE] |368|  ; [KEEP 32-BIT INS]
    2966                            ; CALL OCCURS {ESP8266_SetWifiMode }  ; [] |368| 
    2967 0000047c B930              CBNZ      A1, ||$C$L32||        ; []  ; [ORIG 16-BIT INS]
    2968                            ; BRANCHCC OCCURS {||$C$L32||}   ; [] |368| 
    2969                    ;* --------------------------------------------------------------------------*
    2970                            .dwpsn  file "../esp8266.c",line 369,column 5,is_stmt,isa 1
    2971                    ;----------------------------------------------------------------------
    2972                    ; 369 | printf("SetWifiMode, could not set mode\n\r"); while(1){};             
    2973                    ;----------------------------------------------------------------------
    2974 0000047e A094              ADR       A1, $C$SL5            ; [DPU_3_PIPE] |369|  ; [ORIG 16-BIT INS]
    2975                    $C$DW$123       .dwtag  DW_TAG_TI_branch
    2976                            .dwattr $C$DW$123, DW_AT_low_pc(0x00)
    2977                            .dwattr $C$DW$123, DW_AT_name("printf")
    2978                            .dwattr $C$DW$123, DW_AT_TI_call
    2979 00000480 FFFEF7FF!         BL        printf                ; [DPU_3_PIPE] |369|  ; [KEEP 32-BIT INS]
    2980                            ; CALL OCCURS {printf }          ; [] |369| 
    2981                            .dwpsn  file "../esp8266.c",line 369,column 58,is_stmt,isa 1
    2982                    ;----------------------------------------------------------------------
    2983                    ; 371 | // step 3: AT+CWJAP="ValvanoAP","12345678"  connect to access point    
    2984                    ;----------------------------------------------------------------------
    2985                    ;* --------------------------------------------------------------------------*
    2986                    ;*   BEGIN LOOP ||$C$L31||
TI ARM Assembler PC v5.2.4 Sat Feb 06 22:51:21 2016

Tools Copyright (c) 1996-2015 Texas Instruments Incorporated
esp8266.asm                                                          PAGE   56

    2987                    ;*
    2988                    ;*   Loop source line                : 369
    2989                    ;*   Loop closing brace source line  : 369
    2990                    ;*   Known Minimum Trip Count        : 1
    2991                    ;*   Known Maximum Trip Count        : 4294967295
    2992                    ;*   Known Max Trip Count Factor     : 1
    2993                    ;* --------------------------------------------------------------------------*
    2994 00000484           ||$C$L31||:    
    2995 00000484 E7FE              B         ||$C$L31||            ; [DPU_3_PIPE] |369|  ; [ORIG 16-BIT INS]
    2996                            ; BRANCH OCCURS {||$C$L31||}     ; [] |369| 
    2997                    ;******************************************************************************
    2998                    ;* CONSTANT TABLE                                                             *
    2999                    ;******************************************************************************
    3000 00000486                   .sect   ".text"
    3001                            .align  4
    3002 00000486 000046C0! ||$C$CON11||:   .bits   ESP8266_EchoResponse,32
         0000048a 00000000 
    3003                    ;* --------------------------------------------------------------------------*
    3004 0000048c           ||$C$L32||:    
    3005                            .dwpsn  file "../esp8266.c",line 372,column 3,is_stmt,isa 1
    3006                    ;----------------------------------------------------------------------
    3007                    ; 372 | if(ESP8266_JoinAccessPoint(SSID_NAME,PASSKEY)==0){                     
    3008                    ;----------------------------------------------------------------------
    3009 0000048c A099              ADR       A1, $C$SL6            ; [DPU_3_PIPE] |372|  ; [ORIG 16-BIT INS]
    3010 0000048e A19C              ADR       A2, $C$SL7            ; [DPU_3_PIPE] |372|  ; [ORIG 16-BIT INS]
    3011                    $C$DW$124       .dwtag  DW_TAG_TI_branch
    3012                            .dwattr $C$DW$124, DW_AT_low_pc(0x00)
    3013                            .dwattr $C$DW$124, DW_AT_name("ESP8266_JoinAccessPoint")
    3014                            .dwattr $C$DW$124, DW_AT_TI_call
    3015 00000490 F89EF000          BL        ESP8266_JoinAccessPoint ; [DPU_3_PIPE] |372|  ; [KEEP 32-BIT INS]
    3016                            ; CALL OCCURS {ESP8266_JoinAccessPoint }  ; [] |372| 
    3017 00000494 B918              CBNZ      A1, ||$C$L34||        ; []  ; [ORIG 16-BIT INS]
    3018                            ; BRANCHCC OCCURS {||$C$L34||}   ; [] |372| 
    3019                    ;* --------------------------------------------------------------------------*
    3020                            .dwpsn  file "../esp8266.c",line 373,column 5,is_stmt,isa 1
    3021                    ;----------------------------------------------------------------------
    3022                    ; 373 | printf("JoinAccessPoint error, could not join AP\n\r"); while(1){};    
    3023                    ;----------------------------------------------------------------------
    3024 00000496 A09D              ADR       A1, $C$SL8            ; [DPU_3_PIPE] |373|  ; [ORIG 16-BIT INS]
    3025                    $C$DW$125       .dwtag  DW_TAG_TI_branch
    3026                            .dwattr $C$DW$125, DW_AT_low_pc(0x00)
    3027                            .dwattr $C$DW$125, DW_AT_name("printf")
    3028                            .dwattr $C$DW$125, DW_AT_TI_call
    3029 00000498 FFFEF7FF!         BL        printf                ; [DPU_3_PIPE] |373|  ; [KEEP 32-BIT INS]
    3030                            ; CALL OCCURS {printf }          ; [] |373| 
    3031                            .dwpsn  file "../esp8266.c",line 373,column 67,is_stmt,isa 1
    3032                    ;----------------------------------------------------------------------
    3033                    ; 375 | // optional step: AT+CIFSR check to see our IP address                 
    3034                    ;----------------------------------------------------------------------
    3035                    ;* --------------------------------------------------------------------------*
    3036                    ;*   BEGIN LOOP ||$C$L33||
    3037                    ;*
    3038                    ;*   Loop source line                : 373
    3039                    ;*   Loop closing brace source line  : 373
    3040                    ;*   Known Minimum Trip Count        : 1
TI ARM Assembler PC v5.2.4 Sat Feb 06 22:51:21 2016

Tools Copyright (c) 1996-2015 Texas Instruments Incorporated
esp8266.asm                                                          PAGE   57

    3041                    ;*   Known Maximum Trip Count        : 4294967295
    3042                    ;*   Known Max Trip Count Factor     : 1
    3043                    ;* --------------------------------------------------------------------------*
    3044 0000049c           ||$C$L33||:    
    3045 0000049c E7FE              B         ||$C$L33||            ; [DPU_3_PIPE] |373|  ; [ORIG 16-BIT INS]
    3046                            ; BRANCH OCCURS {||$C$L33||}     ; [] |373| 
    3047                    ;* --------------------------------------------------------------------------*
    3048 0000049e           ||$C$L34||:    
    3049                            .dwpsn  file "../esp8266.c",line 376,column 3,is_stmt,isa 1
    3050                    ;----------------------------------------------------------------------
    3051                    ; 376 | if(ESP8266_GetIPAddress()==0){ // data streamed to UART0, OK           
    3052                    ;----------------------------------------------------------------------
    3053                    $C$DW$126       .dwtag  DW_TAG_TI_branch
    3054                            .dwattr $C$DW$126, DW_AT_low_pc(0x00)
    3055                            .dwattr $C$DW$126, DW_AT_name("ESP8266_GetIPAddress")
    3056                            .dwattr $C$DW$126, DW_AT_TI_call
    3057 0000049e F9F1F000          BL        ESP8266_GetIPAddress  ; [DPU_3_PIPE] |376|  ; [KEEP 32-BIT INS]
    3058                            ; CALL OCCURS {ESP8266_GetIPAddress }  ; [] |376| 
    3059 000004a2 B918              CBNZ      A1, ||$C$L36||        ; []  ; [ORIG 16-BIT INS]
    3060                            ; BRANCHCC OCCURS {||$C$L36||}   ; [] |376| 
    3061                    ;* --------------------------------------------------------------------------*
    3062                            .dwpsn  file "../esp8266.c",line 377,column 5,is_stmt,isa 1
    3063                    ;----------------------------------------------------------------------
    3064                    ; 377 | printf("GetIPAddress error, could not get IP address\n\r"); while(1){};
    3065                    ;----------------------------------------------------------------------
    3066 000004a4 A0A4              ADR       A1, $C$SL9            ; [DPU_3_PIPE] |377|  ; [ORIG 16-BIT INS]
    3067                    $C$DW$127       .dwtag  DW_TAG_TI_branch
    3068                            .dwattr $C$DW$127, DW_AT_low_pc(0x00)
    3069                            .dwattr $C$DW$127, DW_AT_name("printf")
    3070                            .dwattr $C$DW$127, DW_AT_TI_call
    3071 000004a6 FFFEF7FF!         BL        printf                ; [DPU_3_PIPE] |377|  ; [KEEP 32-BIT INS]
    3072                            ; CALL OCCURS {printf }          ; [] |377| 
    3073                            .dwpsn  file "../esp8266.c",line 377,column 71,is_stmt,isa 1
    3074                    ;----------------------------------------------------------------------
    3075                    ; 379 | //// optional step: AT+CIPMUX==0 set mode to single socket             
    3076                    ; 380 | //  if(ESP8266_SetConnectionMux(0)==0){ // single socket               
    3077                    ; 381 | //    printf("SetConnectionMux error, could not set connection mux\n\r"
    3078                    ;     | ); while(1){};                                                         
    3079                    ; 382 | //  }                                                                  
    3080                    ; 383 | // optional step: AT+CWLAP check to see other AP in area               
    3081                    ;----------------------------------------------------------------------
    3082                    ;* --------------------------------------------------------------------------*
    3083                    ;*   BEGIN LOOP ||$C$L35||
    3084                    ;*
    3085                    ;*   Loop source line                : 377
    3086                    ;*   Loop closing brace source line  : 377
    3087                    ;*   Known Minimum Trip Count        : 1
    3088                    ;*   Known Maximum Trip Count        : 4294967295
    3089                    ;*   Known Max Trip Count Factor     : 1
    3090                    ;* --------------------------------------------------------------------------*
    3091 000004aa           ||$C$L35||:    
    3092 000004aa E7FE              B         ||$C$L35||            ; [DPU_3_PIPE] |377|  ; [ORIG 16-BIT INS]
    3093                            ; BRANCH OCCURS {||$C$L35||}     ; [] |377| 
    3094                    ;* --------------------------------------------------------------------------*
    3095 000004ac           ||$C$L36||:    
TI ARM Assembler PC v5.2.4 Sat Feb 06 22:51:21 2016

Tools Copyright (c) 1996-2015 Texas Instruments Incorporated
esp8266.asm                                                          PAGE   58

    3096                            .dwpsn  file "../esp8266.c",line 384,column 3,is_stmt,isa 1
    3097                    ;----------------------------------------------------------------------
    3098                    ; 384 | if(ESP8266_ListAccessPoints()==0){                                     
    3099                    ;----------------------------------------------------------------------
    3100                    $C$DW$128       .dwtag  DW_TAG_TI_branch
    3101                            .dwattr $C$DW$128, DW_AT_low_pc(0x00)
    3102                            .dwattr $C$DW$128, DW_AT_name("ESP8266_ListAccessPoints")
    3103                            .dwattr $C$DW$128, DW_AT_TI_call
    3104 000004ac F8B6F000          BL        ESP8266_ListAccessPoints ; [DPU_3_PIPE] |384|  ; [KEEP 32-BIT INS]
    3105                            ; CALL OCCURS {ESP8266_ListAccessPoints }  ; [] |384| 
    3106 000004b0 B918              CBNZ      A1, ||$C$L38||        ; []  ; [ORIG 16-BIT INS]
    3107                            ; BRANCHCC OCCURS {||$C$L38||}   ; [] |384| 
    3108                    ;* --------------------------------------------------------------------------*
    3109                            .dwpsn  file "../esp8266.c",line 385,column 5,is_stmt,isa 1
    3110                    ;----------------------------------------------------------------------
    3111                    ; 385 | printf("ListAccessPoints, could not list access points\n\r"); while(1){
    3112                    ;     | };                                                                     
    3113                    ;----------------------------------------------------------------------
    3114 000004b2 A0AD              ADR       A1, $C$SL10           ; [DPU_3_PIPE] |385|  ; [ORIG 16-BIT INS]
    3115                    $C$DW$129       .dwtag  DW_TAG_TI_branch
    3116                            .dwattr $C$DW$129, DW_AT_low_pc(0x00)
    3117                            .dwattr $C$DW$129, DW_AT_name("printf")
    3118                            .dwattr $C$DW$129, DW_AT_TI_call
    3119 000004b4 FFFEF7FF!         BL        printf                ; [DPU_3_PIPE] |385|  ; [KEEP 32-BIT INS]
    3120                            ; CALL OCCURS {printf }          ; [] |385| 
    3121                            .dwpsn  file "../esp8266.c",line 385,column 73,is_stmt,isa 1
    3122                    ;----------------------------------------------------------------------
    3123                    ; 387 | // step 4: AT+CIPMODE=0 set mode to not data mode                      
    3124                    ;----------------------------------------------------------------------
    3125                    ;* --------------------------------------------------------------------------*
    3126                    ;*   BEGIN LOOP ||$C$L37||
    3127                    ;*
    3128                    ;*   Loop source line                : 385
    3129                    ;*   Loop closing brace source line  : 385
    3130                    ;*   Known Minimum Trip Count        : 1
    3131                    ;*   Known Maximum Trip Count        : 4294967295
    3132                    ;*   Known Max Trip Count Factor     : 1
    3133                    ;* --------------------------------------------------------------------------*
    3134 000004b8           ||$C$L37||:    
    3135 000004b8 E7FE              B         ||$C$L37||            ; [DPU_3_PIPE] |385|  ; [ORIG 16-BIT INS]
    3136                            ; BRANCH OCCURS {||$C$L37||}     ; [] |385| 
    3137                    ;* --------------------------------------------------------------------------*
    3138 000004ba           ||$C$L38||:    
    3139                            .dwpsn  file "../esp8266.c",line 388,column 3,is_stmt,isa 1
    3140                    ;----------------------------------------------------------------------
    3141                    ; 388 | if(ESP8266_SetDataTransmissionMode(0)==0){                             
    3142                    ;----------------------------------------------------------------------
    3143 000004ba 2000              MOVS      A1, #0                ; [DPU_3_PIPE] |388|  ; [ORIG 16-BIT INS]
    3144                    $C$DW$130       .dwtag  DW_TAG_TI_branch
    3145                            .dwattr $C$DW$130, DW_AT_low_pc(0x00)
    3146                            .dwattr $C$DW$130, DW_AT_name("ESP8266_SetDataTransmissionMode")
    3147                            .dwattr $C$DW$130, DW_AT_TI_call
    3148 000004bc FA8CF000          BL        ESP8266_SetDataTransmissionMode ; [DPU_3_PIPE] |388|  ; [KEEP 32-BIT INS]
    3149                            ; CALL OCCURS {ESP8266_SetDataTransmissionMode }  ; [] |388| 
    3150 000004c0 B918              CBNZ      A1, ||$C$L40||        ; []  ; [ORIG 16-BIT INS]
TI ARM Assembler PC v5.2.4 Sat Feb 06 22:51:21 2016

Tools Copyright (c) 1996-2015 Texas Instruments Incorporated
esp8266.asm                                                          PAGE   59

    3151                            ; BRANCHCC OCCURS {||$C$L40||}   ; [] |388| 
    3152                    ;* --------------------------------------------------------------------------*
    3153                            .dwpsn  file "../esp8266.c",line 389,column 5,is_stmt,isa 1
    3154                    ;----------------------------------------------------------------------
    3155                    ; 389 | printf("SetDataTransmissionMode, could not make connection\n\r"); while
    3156                    ;     | (1){};                                                                 
    3157                    ;----------------------------------------------------------------------
    3158 000004c2 A0B6              ADR       A1, $C$SL11           ; [DPU_3_PIPE] |389|  ; [ORIG 16-BIT INS]
    3159                    $C$DW$131       .dwtag  DW_TAG_TI_branch
    3160                            .dwattr $C$DW$131, DW_AT_low_pc(0x00)
    3161                            .dwattr $C$DW$131, DW_AT_name("printf")
    3162                            .dwattr $C$DW$131, DW_AT_TI_call
    3163 000004c4 FFFEF7FF!         BL        printf                ; [DPU_3_PIPE] |389|  ; [KEEP 32-BIT INS]
    3164                            ; CALL OCCURS {printf }          ; [] |389| 
    3165                            .dwpsn  file "../esp8266.c",line 389,column 77,is_stmt,isa 1
    3166                    ;* --------------------------------------------------------------------------*
    3167                    ;*   BEGIN LOOP ||$C$L39||
    3168                    ;*
    3169                    ;*   Loop source line                : 389
    3170                    ;*   Loop closing brace source line  : 389
    3171                    ;*   Known Minimum Trip Count        : 1
    3172                    ;*   Known Maximum Trip Count        : 4294967295
    3173                    ;*   Known Max Trip Count Factor     : 1
    3174                    ;* --------------------------------------------------------------------------*
    3175 000004c8           ||$C$L39||:    
    3176 000004c8 E7FE              B         ||$C$L39||            ; [DPU_3_PIPE] |389|  ; [ORIG 16-BIT INS]
    3177                            ; BRANCH OCCURS {||$C$L39||}     ; [] |389| 
    3178                    ;* --------------------------------------------------------------------------*
    3179 000004ca           ||$C$L40||:    
    3180                            .dwpsn  file "../esp8266.c",line 391,column 3,is_stmt,isa 1
    3181                    ;----------------------------------------------------------------------
    3182                    ; 391 | ESP8266_InputProcessingEnabled = false; // not a server                
    3183                    ;----------------------------------------------------------------------
    3184 000004ca 4953              LDR       A2, $C$CON40          ; [DPU_3_PIPE] |391|  ; [ORIG 16-BIT INS]
    3185 000004cc 2000              MOVS      A1, #0                ; [DPU_3_PIPE] |391|  ; [ORIG 16-BIT INS]
    3186 000004ce 7008              STRB      A1, [A2, #0]          ; [DPU_3_PIPE] |391|  ; [ORIG 16-BIT INS]
    3187                            .dwpsn  file "../esp8266.c",line 392,column 1,is_stmt,isa 1
    3188                    $C$DW$132       .dwtag  DW_TAG_TI_branch
    3189                            .dwattr $C$DW$132, DW_AT_low_pc(0x00)
    3190                            .dwattr $C$DW$132, DW_AT_TI_return
    3191 000004d0 BD08              POP       {A4, PC}              ; [DPU_3_PIPE]  ; [ORIG 16-BIT INS]
    3192                            .dwcfi  cfa_offset, 0
    3193                            ; BRANCH OCCURS                  ; [] 
    3194                            .dwattr $C$DW$113, DW_AT_TI_end_file("../esp8266.c")
    3195                            .dwattr $C$DW$113, DW_AT_TI_end_line(0x188)
    3196                            .dwattr $C$DW$113, DW_AT_TI_end_column(0x01)
    3197                            .dwendentry
    3198                            .dwendtag $C$DW$113
    3199                    
    3200 000004d2                   .sect   ".text"
    3201                            .clink
    3202                            .thumbfunc ESP8266_Reset
    3203 000004d2                   .thumb
    3204                            .global ESP8266_Reset
    3205                    
TI ARM Assembler PC v5.2.4 Sat Feb 06 22:51:21 2016

Tools Copyright (c) 1996-2015 Texas Instruments Incorporated
esp8266.asm                                                          PAGE   60

    3206                    $C$DW$133       .dwtag  DW_TAG_subprogram, DW_AT_name("ESP8266_Reset")
    3207                            .dwattr $C$DW$133, DW_AT_low_pc(ESP8266_Reset)
    3208                            .dwattr $C$DW$133, DW_AT_high_pc(0x00)
    3209                            .dwattr $C$DW$133, DW_AT_TI_symbol_name("ESP8266_Reset")
    3210                            .dwattr $C$DW$133, DW_AT_external
    3211                            .dwattr $C$DW$133, DW_AT_type(*$C$DW$T$10)
    3212                            .dwattr $C$DW$133, DW_AT_TI_begin_file("../esp8266.c")
    3213                            .dwattr $C$DW$133, DW_AT_TI_begin_line(0x18e)
    3214                            .dwattr $C$DW$133, DW_AT_TI_begin_column(0x05)
    3215                            .dwattr $C$DW$133, DW_AT_decl_file("../esp8266.c")
    3216                            .dwattr $C$DW$133, DW_AT_decl_line(0x18e)
    3217                            .dwattr $C$DW$133, DW_AT_decl_column(0x05)
    3218                            .dwattr $C$DW$133, DW_AT_TI_max_frame_size(0x08)
    3219                            .dwpsn  file "../esp8266.c",line 398,column 20,is_stmt,address ESP8266_Reset,isa 1
    3220                    
    3221                            .dwfde $C$DW$CIE, ESP8266_Reset
    3222                    
    3223                    ;*****************************************************************************
    3224                    ;* FUNCTION NAME: ESP8266_Reset                                              *
    3225                    ;*                                                                           *
    3226                    ;*   Regs Modified     : A1,A2,A3,A4,V9,SP,LR,SR,D0,D0_hi,D1,D1_hi,D2,D2_hi, *
    3227                    ;*                           D3,D3_hi,D4,D4_hi,D5,D5_hi,D6,D6_hi,D7,D7_hi,   *
    3228                    ;*                           FPEXC,FPSCR                                     *
    3229                    ;*   Regs Used         : A1,A2,A3,A4,V9,SP,LR,SR,D0,D0_hi,D1,D1_hi,D2,D2_hi, *
    3230                    ;*                           D3,D3_hi,D4,D4_hi,D5,D5_hi,D6,D6_hi,D7,D7_hi,   *
    3231                    ;*                           FPEXC,FPSCR                                     *
    3232                    ;*   Local Frame Size  : 0 Args + 4 Auto + 4 Save = 8 byte                   *
    3233                    ;*****************************************************************************
    3234 000004d2           ESP8266_Reset:
    3235                    ;* --------------------------------------------------------------------------*
    3236                            .dwcfi  cfa_offset, 0
    3237 000004d2 B508              PUSH      {A4, LR}              ; [DPU_3_PIPE]  ; [ORIG 16-BIT INS]
    3238                            .dwcfi  cfa_offset, 8
    3239                            .dwcfi  save_reg_to_mem, 14, -4
    3240                            .dwcfi  save_reg_to_mem, 3, -8
    3241                    $C$DW$134       .dwtag  DW_TAG_variable, DW_AT_name("try")
    3242                            .dwattr $C$DW$134, DW_AT_TI_symbol_name("try")
    3243                            .dwattr $C$DW$134, DW_AT_type(*$C$DW$T$10)
    3244                            .dwattr $C$DW$134, DW_AT_location[DW_OP_breg13 0]
    3245                            .dwpsn  file "../esp8266.c",line 398,column 28,is_stmt,isa 1
    3246                    ;----------------------------------------------------------------------
    3247                    ; 398 | int ESP8266_Reset(){int try=MAXTRY;                                    
    3248                    ;----------------------------------------------------------------------
    3249 000004d4 200A              MOVS      A1, #10               ; [DPU_3_PIPE] |398|  ; [ORIG 16-BIT INS]
    3250 000004d6 9000              STR       A1, [SP, #0]          ; [DPU_3_PIPE] |398|  ; [ORIG 16-BIT INS]
    3251                            .dwpsn  file "../esp8266.c",line 399,column 3,is_stmt,isa 1
    3252                    ;----------------------------------------------------------------------
    3253                    ; 399 | SearchStart("ready");                                                  
    3254                    ;----------------------------------------------------------------------
    3255 000004d8 A0BE              ADR       A1, $C$SL12           ; [DPU_3_PIPE] |399|  ; [ORIG 16-BIT INS]
    3256                    $C$DW$135       .dwtag  DW_TAG_TI_branch
    3257                            .dwattr $C$DW$135, DW_AT_low_pc(0x00)
    3258                            .dwattr $C$DW$135, DW_AT_name("SearchStart")
    3259                            .dwattr $C$DW$135, DW_AT_TI_call
    3260 000004da FDA7F7FF          BL        SearchStart           ; [DPU_3_PIPE] |399|  ; [KEEP 32-BIT INS]
TI ARM Assembler PC v5.2.4 Sat Feb 06 22:51:21 2016

Tools Copyright (c) 1996-2015 Texas Instruments Incorporated
esp8266.asm                                                          PAGE   61

    3261                            ; CALL OCCURS {SearchStart }     ; [] |399| 
    3262                            .dwpsn  file "../esp8266.c",line 400,column 3,is_stmt,isa 1
    3263                    ;----------------------------------------------------------------------
    3264                    ; 400 | while(try){                                                            
    3265                    ;----------------------------------------------------------------------
    3266 000004de 9800              LDR       A1, [SP, #0]          ; [DPU_3_PIPE] |400|  ; [ORIG 16-BIT INS]
    3267 000004e0 B1F0              CBZ       A1, ||$C$L43||        ; []  ; [ORIG 16-BIT INS]
    3268                            ; BRANCHCC OCCURS {||$C$L43||}   ; [] |400| 
    3269                    ;* --------------------------------------------------------------------------*
    3270                    ;*   BEGIN LOOP ||$C$L41||
    3271                    ;*
    3272                    ;*   Loop source line                : 400
    3273                    ;*   Loop closing brace source line  : 408
    3274                    ;*   Known Minimum Trip Count        : 1
    3275                    ;*   Known Maximum Trip Count        : 4294967295
    3276                    ;*   Known Max Trip Count Factor     : 1
    3277                    ;* --------------------------------------------------------------------------*
    3278 000004e2           ||$C$L41||:    
    3279                            .dwpsn  file "../esp8266.c",line 401,column 5,is_stmt,isa 1
    3280                    ;----------------------------------------------------------------------
    3281                    ; 401 | GPIO_PORTB_DATA_R &= ~0x20; // reset low                               
    3282                    ;----------------------------------------------------------------------
    3283 000004e2 495C              LDR       A2, $C$CON44          ; [DPU_3_PIPE] |401|  ; [ORIG 16-BIT INS]
    3284 000004e4 6808              LDR       A1, [A2, #0]          ; [DPU_3_PIPE] |401|  ; [ORIG 16-BIT INS]
    3285 000004e6 0020F020          BIC       A1, A1, #32           ; [DPU_3_PIPE] |401|  ; [KEEP 32-BIT INS]
    3286 000004ea 6008              STR       A1, [A2, #0]          ; [DPU_3_PIPE] |401|  ; [ORIG 16-BIT INS]
    3287                            .dwpsn  file "../esp8266.c",line 402,column 5,is_stmt,isa 1
    3288                    ;----------------------------------------------------------------------
    3289                    ; 402 | DelayMs(10);                                                           
    3290                    ;----------------------------------------------------------------------
    3291 000004ec 200A              MOVS      A1, #10               ; [DPU_3_PIPE] |402|  ; [ORIG 16-BIT INS]
    3292                    $C$DW$136       .dwtag  DW_TAG_TI_branch
    3293                            .dwattr $C$DW$136, DW_AT_low_pc(0x00)
    3294                            .dwattr $C$DW$136, DW_AT_name("DelayMs")
    3295                            .dwattr $C$DW$136, DW_AT_TI_call
    3296 000004ee FF21F7FF          BL        DelayMs               ; [DPU_3_PIPE] |402|  ; [KEEP 32-BIT INS]
    3297                            ; CALL OCCURS {DelayMs }         ; [] |402| 
    3298                            .dwpsn  file "../esp8266.c",line 403,column 5,is_stmt,isa 1
    3299                    ;----------------------------------------------------------------------
    3300                    ; 403 | GPIO_PORTB_DATA_R |= 0x20; // reset high                               
    3301                    ;----------------------------------------------------------------------
    3302 000004f2 4958              LDR       A2, $C$CON44          ; [DPU_3_PIPE] |403|  ; [ORIG 16-BIT INS]
    3303 000004f4 6808              LDR       A1, [A2, #0]          ; [DPU_3_PIPE] |403|  ; [ORIG 16-BIT INS]
    3304 000004f6 0020F040          ORR       A1, A1, #32           ; [DPU_3_PIPE] |403|  ; [KEEP 32-BIT INS]
    3305 000004fa 6008              STR       A1, [A2, #0]          ; [DPU_3_PIPE] |403|  ; [ORIG 16-BIT INS]
    3306                            .dwpsn  file "../esp8266.c",line 404,column 5,is_stmt,isa 1
    3307                    ;----------------------------------------------------------------------
    3308                    ; 404 | ESP8266SendCommand("AT+RST\r\n");                                      
    3309                    ;----------------------------------------------------------------------
    3310 000004fc A0B7              ADR       A1, $C$SL13           ; [DPU_3_PIPE] |404|  ; [ORIG 16-BIT INS]
    3311                    $C$DW$137       .dwtag  DW_TAG_TI_branch
    3312                            .dwattr $C$DW$137, DW_AT_low_pc(0x00)
    3313                            .dwattr $C$DW$137, DW_AT_name("ESP8266SendCommand")
    3314                            .dwattr $C$DW$137, DW_AT_TI_call
    3315 000004fe FF01F7FF          BL        ESP8266SendCommand    ; [DPU_3_PIPE] |404|  ; [KEEP 32-BIT INS]
TI ARM Assembler PC v5.2.4 Sat Feb 06 22:51:21 2016

Tools Copyright (c) 1996-2015 Texas Instruments Incorporated
esp8266.asm                                                          PAGE   62

    3316                            ; CALL OCCURS {ESP8266SendCommand }  ; [] |404| 
    3317                            .dwpsn  file "../esp8266.c",line 405,column 5,is_stmt,isa 1
    3318                    ;----------------------------------------------------------------------
    3319                    ; 405 | DelayMsSearching(500);                                                 
    3320                    ;----------------------------------------------------------------------
    3321 00000502 70FAF44F          MOV       A1, #500              ; [DPU_3_PIPE] |405|  ; [KEEP 32-BIT INS]
    3322                    $C$DW$138       .dwtag  DW_TAG_TI_branch
    3323                            .dwattr $C$DW$138, DW_AT_low_pc(0x00)
    3324                            .dwattr $C$DW$138, DW_AT_name("DelayMsSearching")
    3325                            .dwattr $C$DW$138, DW_AT_TI_call
    3326 00000506 FF3BF7FF          BL        DelayMsSearching      ; [DPU_3_PIPE] |405|  ; [KEEP 32-BIT INS]
    3327                            ; CALL OCCURS {DelayMsSearching }  ; [] |405| 
    3328                            .dwpsn  file "../esp8266.c",line 406,column 5,is_stmt,isa 1
    3329                    ;----------------------------------------------------------------------
    3330                    ; 406 | if(SearchFound) return 1; // success                                   
    3331                    ;----------------------------------------------------------------------
    3332 0000050a 481B              LDR       A1, $C$CON39          ; [DPU_3_PIPE] |406|  ; [ORIG 16-BIT INS]
    3333 0000050c 7800              LDRB      A1, [A1, #0]          ; [DPU_3_PIPE] |406|  ; [ORIG 16-BIT INS]
    3334 0000050e B108              CBZ       A1, ||$C$L42||        ; []  ; [ORIG 16-BIT INS]
    3335                            ; BRANCHCC OCCURS {||$C$L42||}   ; [] |406| 
    3336                    ;* --------------------------------------------------------------------------*
    3337                            .dwpsn  file "../esp8266.c",line 406,column 21,is_stmt,isa 1
    3338 00000510 2001              MOVS      A1, #1                ; [DPU_3_PIPE] |406|  ; [ORIG 16-BIT INS]
    3339 00000512 E006              B         ||$C$L44||            ; [DPU_3_PIPE] |406|  ; [ORIG 16-BIT INS]
    3340                            ; BRANCH OCCURS {||$C$L44||}     ; [] |406| 
    3341                    ;* --------------------------------------------------------------------------*
    3342 00000514           ||$C$L42||:    
    3343                            .dwpsn  file "../esp8266.c",line 407,column 5,is_stmt,isa 1
    3344                    ;----------------------------------------------------------------------
    3345                    ; 407 | try--;                                                                 
    3346                    ;----------------------------------------------------------------------
    3347 00000514 9800              LDR       A1, [SP, #0]          ; [DPU_3_PIPE] |407|  ; [ORIG 16-BIT INS]
    3348 00000516 1E40              SUBS      A1, A1, #1            ; [DPU_3_PIPE] |407|  ; [ORIG 16-BIT INS]
    3349 00000518 9000              STR       A1, [SP, #0]          ; [DPU_3_PIPE] |407|  ; [ORIG 16-BIT INS]
    3350                            .dwpsn  file "../esp8266.c",line 400,column 3,is_stmt,isa 1
    3351 0000051a 9800              LDR       A1, [SP, #0]          ; [DPU_3_PIPE] |400|  ; [ORIG 16-BIT INS]
    3352 0000051c 2800              CMP       A1, #0                ; [DPU_3_PIPE] |400|  ; [ORIG 16-BIT INS]
    3353 0000051e D1E0              BNE       ||$C$L41||            ; [DPU_3_PIPE] |400|  ; [ORIG 16-BIT INS]
    3354                            ; BRANCHCC OCCURS {||$C$L41||}   ; [] |400| 
    3355                    ;* --------------------------------------------------------------------------*
    3356 00000520           ||$C$L43||:    
    3357                            .dwpsn  file "../esp8266.c",line 409,column 3,is_stmt,isa 1
    3358                    ;----------------------------------------------------------------------
    3359                    ; 409 | return 0; // fail                                                      
    3360                    ;----------------------------------------------------------------------
    3361 00000520 2000              MOVS      A1, #0                ; [DPU_3_PIPE] |409|  ; [ORIG 16-BIT INS]
    3362                    ;* --------------------------------------------------------------------------*
    3363 00000522           ||$C$L44||:    
    3364                            .dwpsn  file "../esp8266.c",line 410,column 1,is_stmt,isa 1
    3365                    $C$DW$139       .dwtag  DW_TAG_TI_branch
    3366                            .dwattr $C$DW$139, DW_AT_low_pc(0x00)
    3367                            .dwattr $C$DW$139, DW_AT_TI_return
    3368 00000522 BD08              POP       {A4, PC}              ; [DPU_3_PIPE]  ; [ORIG 16-BIT INS]
    3369                            .dwcfi  cfa_offset, 0
    3370                            ; BRANCH OCCURS                  ; [] 
TI ARM Assembler PC v5.2.4 Sat Feb 06 22:51:21 2016

Tools Copyright (c) 1996-2015 Texas Instruments Incorporated
esp8266.asm                                                          PAGE   63

    3371                            .dwattr $C$DW$133, DW_AT_TI_end_file("../esp8266.c")
    3372                            .dwattr $C$DW$133, DW_AT_TI_end_line(0x19a)
    3373                            .dwattr $C$DW$133, DW_AT_TI_end_column(0x01)
    3374                            .dwendentry
    3375                            .dwendtag $C$DW$133
    3376                    
    3377 00000524                   .sect   ".text"
    3378                            .clink
    3379                            .thumbfunc ESP8266_SetWifiMode
    3380 00000524                   .thumb
    3381                            .global ESP8266_SetWifiMode
    3382                    
    3383                    $C$DW$140       .dwtag  DW_TAG_subprogram, DW_AT_name("ESP8266_SetWifiMode")
    3384                            .dwattr $C$DW$140, DW_AT_low_pc(ESP8266_SetWifiMode)
    3385                            .dwattr $C$DW$140, DW_AT_high_pc(0x00)
    3386                            .dwattr $C$DW$140, DW_AT_TI_symbol_name("ESP8266_SetWifiMode")
    3387                            .dwattr $C$DW$140, DW_AT_external
    3388                            .dwattr $C$DW$140, DW_AT_type(*$C$DW$T$10)
    3389                            .dwattr $C$DW$140, DW_AT_TI_begin_file("../esp8266.c")
    3390                            .dwattr $C$DW$140, DW_AT_TI_begin_line(0x1a1)
    3391                            .dwattr $C$DW$140, DW_AT_TI_begin_column(0x05)
    3392                            .dwattr $C$DW$140, DW_AT_decl_file("../esp8266.c")
    3393                            .dwattr $C$DW$140, DW_AT_decl_line(0x1a1)
    3394                            .dwattr $C$DW$140, DW_AT_decl_column(0x05)
    3395                            .dwattr $C$DW$140, DW_AT_TI_max_frame_size(0x10)
    3396                            .dwpsn  file "../esp8266.c",line 417,column 38,is_stmt,address ESP8266_SetWifiMode,isa 1
    3397                    
    3398                            .dwfde $C$DW$CIE, ESP8266_SetWifiMode
    3399                    $C$DW$141       .dwtag  DW_TAG_formal_parameter, DW_AT_name("mode")
    3400                            .dwattr $C$DW$141, DW_AT_TI_symbol_name("mode")
    3401                            .dwattr $C$DW$141, DW_AT_type(*$C$DW$T$53)
    3402                            .dwattr $C$DW$141, DW_AT_location[DW_OP_reg0]
    3403                    
    3404                    ;*****************************************************************************
    3405                    ;* FUNCTION NAME: ESP8266_SetWifiMode                                        *
    3406                    ;*                                                                           *
    3407                    ;*   Regs Modified     : A1,A2,A3,A4,V9,SP,LR,SR,D0,D0_hi,D1,D1_hi,D2,D2_hi, *
    3408                    ;*                           D3,D3_hi,D4,D4_hi,D5,D5_hi,D6,D6_hi,D7,D7_hi,   *
    3409                    ;*                           FPEXC,FPSCR                                     *
    3410                    ;*   Regs Used         : A1,A2,A3,A4,V9,SP,LR,SR,D0,D0_hi,D1,D1_hi,D2,D2_hi, *
    3411                    ;*                           D3,D3_hi,D4,D4_hi,D5,D5_hi,D6,D6_hi,D7,D7_hi,   *
    3412                    ;*                           FPEXC,FPSCR                                     *
    3413                    ;*   Local Frame Size  : 0 Args + 8 Auto + 4 Save = 12 byte                  *
    3414                    ;*****************************************************************************
    3415 00000524           ESP8266_SetWifiMode:
    3416                    ;* --------------------------------------------------------------------------*
    3417                            .dwcfi  cfa_offset, 0
    3418 00000524 B50E              PUSH      {A2, A3, A4, LR}      ; [DPU_3_PIPE]  ; [ORIG 16-BIT INS]
    3419                            .dwcfi  cfa_offset, 16
    3420                            .dwcfi  save_reg_to_mem, 14, -4
    3421                            .dwcfi  save_reg_to_mem, 3, -8
    3422                            .dwcfi  save_reg_to_mem, 2, -12
    3423                            .dwcfi  save_reg_to_mem, 1, -16
    3424                    $C$DW$142       .dwtag  DW_TAG_variable, DW_AT_name("mode")
    3425                            .dwattr $C$DW$142, DW_AT_TI_symbol_name("mode")
TI ARM Assembler PC v5.2.4 Sat Feb 06 22:51:21 2016

Tools Copyright (c) 1996-2015 Texas Instruments Incorporated
esp8266.asm                                                          PAGE   64

    3426                            .dwattr $C$DW$142, DW_AT_type(*$C$DW$T$53)
    3427                            .dwattr $C$DW$142, DW_AT_location[DW_OP_breg13 0]
    3428                    $C$DW$143       .dwtag  DW_TAG_variable, DW_AT_name("try")
    3429                            .dwattr $C$DW$143, DW_AT_TI_symbol_name("try")
    3430                            .dwattr $C$DW$143, DW_AT_type(*$C$DW$T$10)
    3431                            .dwattr $C$DW$143, DW_AT_location[DW_OP_breg13 4]
    3432                    ;----------------------------------------------------------------------
    3433                    ; 417 | int ESP8266_SetWifiMode(uint8_t mode){                                 
    3434                    ;----------------------------------------------------------------------
    3435 00000526 0000F88D          STRB      A1, [SP, #0]          ; [DPU_3_PIPE] |417|  ; [KEEP 32-BIT INS]
    3436                            .dwpsn  file "../esp8266.c",line 418,column 10,is_stmt,isa 1
    3437                    ;----------------------------------------------------------------------
    3438                    ; 418 | int try=MAXTRY;                                                        
    3439                    ;----------------------------------------------------------------------
    3440 0000052a 200A              MOVS      A1, #10               ; [DPU_3_PIPE] |418|  ; [ORIG 16-BIT INS]
    3441 0000052c 9001              STR       A1, [SP, #4]          ; [DPU_3_PIPE] |418|  ; [ORIG 16-BIT INS]
    3442                            .dwpsn  file "../esp8266.c",line 419,column 3,is_stmt,isa 1
    3443                    ;----------------------------------------------------------------------
    3444                    ; 419 | if(mode > ESP8266_WIFI_MODE_AP_AND_CLIENT)return 0; // fail            
    3445                    ;----------------------------------------------------------------------
    3446 0000052e 0000F89D          LDRB      A1, [SP, #0]          ; [DPU_3_PIPE] |419|  ; [KEEP 32-BIT INS]
    3447 00000532 2803              CMP       A1, #3                ; [DPU_3_PIPE] |419|  ; [ORIG 16-BIT INS]
    3448 00000534 DD01              BLE       ||$C$L45||            ; [DPU_3_PIPE] |419|  ; [ORIG 16-BIT INS]
    3449                            ; BRANCHCC OCCURS {||$C$L45||}   ; [] |419| 
    3450                    ;* --------------------------------------------------------------------------*
    3451                            .dwpsn  file "../esp8266.c",line 419,column 45,is_stmt,isa 1
    3452 00000536 2000              MOVS      A1, #0                ; [DPU_3_PIPE] |419|  ; [ORIG 16-BIT INS]
    3453 00000538 E01D              B         ||$C$L49||            ; [DPU_3_PIPE] |419|  ; [ORIG 16-BIT INS]
    3454                            ; BRANCH OCCURS {||$C$L49||}     ; [] |419| 
    3455                    ;* --------------------------------------------------------------------------*
    3456 0000053a           ||$C$L45||:    
    3457                            .dwpsn  file "../esp8266.c",line 420,column 3,is_stmt,isa 1
    3458                    ;----------------------------------------------------------------------
    3459                    ; 420 | SearchStart("no change");                                              
    3460                    ;----------------------------------------------------------------------
    3461 0000053a A0AB              ADR       A1, $C$SL14           ; [DPU_3_PIPE] |420|  ; [ORIG 16-BIT INS]
    3462                    $C$DW$144       .dwtag  DW_TAG_TI_branch
    3463                            .dwattr $C$DW$144, DW_AT_low_pc(0x00)
    3464                            .dwattr $C$DW$144, DW_AT_name("SearchStart")
    3465                            .dwattr $C$DW$144, DW_AT_TI_call
    3466 0000053c FD76F7FF          BL        SearchStart           ; [DPU_3_PIPE] |420|  ; [KEEP 32-BIT INS]
    3467                            ; CALL OCCURS {SearchStart }     ; [] |420| 
    3468                            .dwpsn  file "../esp8266.c",line 421,column 3,is_stmt,isa 1
    3469                    ;----------------------------------------------------------------------
    3470                    ; 421 | while(try){                                                            
    3471                    ;----------------------------------------------------------------------
    3472 00000540 9801              LDR       A1, [SP, #4]          ; [DPU_3_PIPE] |421|  ; [ORIG 16-BIT INS]
    3473 00000542 B1B8              CBZ       A1, ||$C$L48||        ; []  ; [ORIG 16-BIT INS]
    3474                            ; BRANCHCC OCCURS {||$C$L48||}   ; [] |421| 
    3475                    ;* --------------------------------------------------------------------------*
    3476                    ;*   BEGIN LOOP ||$C$L46||
    3477                    ;*
    3478                    ;*   Loop source line                : 421
    3479                    ;*   Loop closing brace source line  : 427
    3480                    ;*   Known Minimum Trip Count        : 1
TI ARM Assembler PC v5.2.4 Sat Feb 06 22:51:21 2016

Tools Copyright (c) 1996-2015 Texas Instruments Incorporated
esp8266.asm                                                          PAGE   65

    3481                    ;*   Known Maximum Trip Count        : 4294967295
    3482                    ;*   Known Max Trip Count Factor     : 1
    3483                    ;* --------------------------------------------------------------------------*
    3484 00000544           ||$C$L46||:    
    3485                            .dwpsn  file "../esp8266.c",line 422,column 5,is_stmt,isa 1
    3486                    ;----------------------------------------------------------------------
    3487                    ; 422 | sprintf((char*)TXBuffer, "AT+CWMODE=%d\r\n", mode);                    
    3488                    ;----------------------------------------------------------------------
    3489 00000544 2000F89D          LDRB      A3, [SP, #0]          ; [DPU_3_PIPE] |422|  ; [KEEP 32-BIT INS]
    3490 00000548 48BD              LDR       A1, $C$CON45          ; [DPU_3_PIPE] |422|  ; [ORIG 16-BIT INS]
    3491 0000054a A1AA              ADR       A2, $C$SL15           ; [DPU_3_PIPE] |422|  ; [ORIG 16-BIT INS]
    3492                    $C$DW$145       .dwtag  DW_TAG_TI_branch
    3493                            .dwattr $C$DW$145, DW_AT_low_pc(0x00)
    3494                            .dwattr $C$DW$145, DW_AT_name("sprintf")
    3495                            .dwattr $C$DW$145, DW_AT_TI_call
    3496 0000054c FFFEF7FF!         BL        sprintf               ; [DPU_3_PIPE] |422|  ; [KEEP 32-BIT INS]
    3497                            ; CALL OCCURS {sprintf }         ; [] |422| 
    3498                            .dwpsn  file "../esp8266.c",line 423,column 5,is_stmt,isa 1
    3499                    ;----------------------------------------------------------------------
    3500                    ; 423 | ESP8266SendCommand((const char*)TXBuffer);                             
    3501                    ;----------------------------------------------------------------------
    3502 00000550 48BB              LDR       A1, $C$CON45          ; [DPU_3_PIPE] |423|  ; [ORIG 16-BIT INS]
    3503                    $C$DW$146       .dwtag  DW_TAG_TI_branch
    3504                            .dwattr $C$DW$146, DW_AT_low_pc(0x00)
    3505                            .dwattr $C$DW$146, DW_AT_name("ESP8266SendCommand")
    3506                            .dwattr $C$DW$146, DW_AT_TI_call
    3507 00000552 FED7F7FF          BL        ESP8266SendCommand    ; [DPU_3_PIPE] |423|  ; [KEEP 32-BIT INS]
    3508                            ; CALL OCCURS {ESP8266SendCommand }  ; [] |423| 
    3509                            .dwpsn  file "../esp8266.c",line 424,column 5,is_stmt,isa 1
    3510                    ;----------------------------------------------------------------------
    3511                    ; 424 | DelayMsSearching(5000);                                                
    3512                    ;----------------------------------------------------------------------
    3513 00000556 3088F241          MOV       A1, #5000             ; [DPU_3_PIPE] |424|  ; [KEEP 32-BIT INS]
    3514                    $C$DW$147       .dwtag  DW_TAG_TI_branch
    3515                            .dwattr $C$DW$147, DW_AT_low_pc(0x00)
    3516                            .dwattr $C$DW$147, DW_AT_name("DelayMsSearching")
    3517                            .dwattr $C$DW$147, DW_AT_TI_call
    3518 0000055a FF11F7FF          BL        DelayMsSearching      ; [DPU_3_PIPE] |424|  ; [KEEP 32-BIT INS]
    3519                            ; CALL OCCURS {DelayMsSearching }  ; [] |424| 
    3520                            .dwpsn  file "../esp8266.c",line 425,column 5,is_stmt,isa 1
    3521                    ;----------------------------------------------------------------------
    3522                    ; 425 | if(SearchFound) return 1; // success                                   
    3523                    ;----------------------------------------------------------------------
    3524 0000055e 4806              LDR       A1, $C$CON39          ; [DPU_3_PIPE] |425|  ; [ORIG 16-BIT INS]
    3525 00000560 7800              LDRB      A1, [A1, #0]          ; [DPU_3_PIPE] |425|  ; [ORIG 16-BIT INS]
    3526 00000562 B108              CBZ       A1, ||$C$L47||        ; []  ; [ORIG 16-BIT INS]
    3527                            ; BRANCHCC OCCURS {||$C$L47||}   ; [] |425| 
    3528                    ;* --------------------------------------------------------------------------*
    3529                            .dwpsn  file "../esp8266.c",line 425,column 21,is_stmt,isa 1
    3530 00000564 2001              MOVS      A1, #1                ; [DPU_3_PIPE] |425|  ; [ORIG 16-BIT INS]
    3531 00000566 E006              B         ||$C$L49||            ; [DPU_3_PIPE] |425|  ; [ORIG 16-BIT INS]
    3532                            ; BRANCH OCCURS {||$C$L49||}     ; [] |425| 
    3533                    ;* --------------------------------------------------------------------------*
    3534 00000568           ||$C$L47||:    
    3535                            .dwpsn  file "../esp8266.c",line 426,column 5,is_stmt,isa 1
TI ARM Assembler PC v5.2.4 Sat Feb 06 22:51:21 2016

Tools Copyright (c) 1996-2015 Texas Instruments Incorporated
esp8266.asm                                                          PAGE   66

    3536                    ;----------------------------------------------------------------------
    3537                    ; 426 | try--;                                                                 
    3538                    ;----------------------------------------------------------------------
    3539 00000568 9801              LDR       A1, [SP, #4]          ; [DPU_3_PIPE] |426|  ; [ORIG 16-BIT INS]
    3540 0000056a 1E40              SUBS      A1, A1, #1            ; [DPU_3_PIPE] |426|  ; [ORIG 16-BIT INS]
    3541 0000056c 9001              STR       A1, [SP, #4]          ; [DPU_3_PIPE] |426|  ; [ORIG 16-BIT INS]
    3542                            .dwpsn  file "../esp8266.c",line 421,column 3,is_stmt,isa 1
    3543 0000056e 9801              LDR       A1, [SP, #4]          ; [DPU_3_PIPE] |421|  ; [ORIG 16-BIT INS]
    3544 00000570 2800              CMP       A1, #0                ; [DPU_3_PIPE] |421|  ; [ORIG 16-BIT INS]
    3545 00000572 D1E7              BNE       ||$C$L46||            ; [DPU_3_PIPE] |421|  ; [ORIG 16-BIT INS]
    3546                            ; BRANCHCC OCCURS {||$C$L46||}   ; [] |421| 
    3547                    ;* --------------------------------------------------------------------------*
    3548 00000574           ||$C$L48||:    
    3549                            .dwpsn  file "../esp8266.c",line 428,column 3,is_stmt,isa 1
    3550                    ;----------------------------------------------------------------------
    3551                    ; 428 | return 0; // fail                                                      
    3552                    ;----------------------------------------------------------------------
    3553 00000574 2000              MOVS      A1, #0                ; [DPU_3_PIPE] |428|  ; [ORIG 16-BIT INS]
    3554                    ;* --------------------------------------------------------------------------*
    3555 00000576           ||$C$L49||:    
    3556                            .dwpsn  file "../esp8266.c",line 429,column 1,is_stmt,isa 1
    3557                    $C$DW$148       .dwtag  DW_TAG_TI_branch
    3558                            .dwattr $C$DW$148, DW_AT_low_pc(0x00)
    3559                            .dwattr $C$DW$148, DW_AT_TI_return
    3560 00000576 BD0E              POP       {A2, A3, A4, PC}      ; [DPU_3_PIPE]  ; [ORIG 16-BIT INS]
    3561                            .dwcfi  cfa_offset, 0
    3562                            ; BRANCH OCCURS                  ; [] 
    3563                    ;******************************************************************************
    3564                    ;* CONSTANT TABLE                                                             *
    3565                    ;******************************************************************************
    3566 00000578                   .sect   ".text"
    3567                            .align  4
    3568 00000578 00000000! ||$C$CON39||:   .bits   SearchFound,32
    3569                            .dwattr $C$DW$140, DW_AT_TI_end_file("../esp8266.c")
    3570                            .dwattr $C$DW$140, DW_AT_TI_end_line(0x1ad)
    3571                            .dwattr $C$DW$140, DW_AT_TI_end_column(0x01)
    3572                            .dwendentry
    3573                            .dwendtag $C$DW$140
    3574                    
    3575 0000057c                   .sect   ".text"
    3576                            .clink
    3577                            .thumbfunc ESP8266_SetConnectionMux
    3578 0000057c                   .thumb
    3579                            .global ESP8266_SetConnectionMux
    3580                    
    3581                    $C$DW$149       .dwtag  DW_TAG_subprogram, DW_AT_name("ESP8266_SetConnectionMux")
    3582                            .dwattr $C$DW$149, DW_AT_low_pc(ESP8266_SetConnectionMux)
    3583                            .dwattr $C$DW$149, DW_AT_high_pc(0x00)
    3584                            .dwattr $C$DW$149, DW_AT_TI_symbol_name("ESP8266_SetConnectionMux")
    3585                            .dwattr $C$DW$149, DW_AT_external
    3586                            .dwattr $C$DW$149, DW_AT_type(*$C$DW$T$10)
    3587                            .dwattr $C$DW$149, DW_AT_TI_begin_file("../esp8266.c")
    3588                            .dwattr $C$DW$149, DW_AT_TI_begin_line(0x1b3)
    3589                            .dwattr $C$DW$149, DW_AT_TI_begin_column(0x05)
    3590                            .dwattr $C$DW$149, DW_AT_decl_file("../esp8266.c")
TI ARM Assembler PC v5.2.4 Sat Feb 06 22:51:21 2016

Tools Copyright (c) 1996-2015 Texas Instruments Incorporated
esp8266.asm                                                          PAGE   67

    3591                            .dwattr $C$DW$149, DW_AT_decl_line(0x1b3)
    3592                            .dwattr $C$DW$149, DW_AT_decl_column(0x05)
    3593                            .dwattr $C$DW$149, DW_AT_TI_max_frame_size(0x10)
    3594                            .dwpsn  file "../esp8266.c",line 435,column 46,is_stmt,address ESP8266_SetConnectionMux,isa 1
    3595                    
    3596                            .dwfde $C$DW$CIE, ESP8266_SetConnectionMux
    3597                    $C$DW$150       .dwtag  DW_TAG_formal_parameter, DW_AT_name("enabled")
    3598                            .dwattr $C$DW$150, DW_AT_TI_symbol_name("enabled")
    3599                            .dwattr $C$DW$150, DW_AT_type(*$C$DW$T$53)
    3600                            .dwattr $C$DW$150, DW_AT_location[DW_OP_reg0]
    3601                    
    3602                    ;*****************************************************************************
    3603                    ;* FUNCTION NAME: ESP8266_SetConnectionMux                                   *
    3604                    ;*                                                                           *
    3605                    ;*   Regs Modified     : A1,A2,A3,A4,V9,SP,LR,SR,D0,D0_hi,D1,D1_hi,D2,D2_hi, *
    3606                    ;*                           D3,D3_hi,D4,D4_hi,D5,D5_hi,D6,D6_hi,D7,D7_hi,   *
    3607                    ;*                           FPEXC,FPSCR                                     *
    3608                    ;*   Regs Used         : A1,A2,A3,A4,V9,SP,LR,SR,D0,D0_hi,D1,D1_hi,D2,D2_hi, *
    3609                    ;*                           D3,D3_hi,D4,D4_hi,D5,D5_hi,D6,D6_hi,D7,D7_hi,   *
    3610                    ;*                           FPEXC,FPSCR                                     *
    3611                    ;*   Local Frame Size  : 0 Args + 8 Auto + 4 Save = 12 byte                  *
    3612                    ;*****************************************************************************
    3613 0000057c           ESP8266_SetConnectionMux:
    3614                    ;* --------------------------------------------------------------------------*
    3615                            .dwcfi  cfa_offset, 0
    3616 0000057c B50E              PUSH      {A2, A3, A4, LR}      ; [DPU_3_PIPE]  ; [ORIG 16-BIT INS]
    3617                            .dwcfi  cfa_offset, 16
    3618                            .dwcfi  save_reg_to_mem, 14, -4
    3619                            .dwcfi  save_reg_to_mem, 3, -8
    3620                            .dwcfi  save_reg_to_mem, 2, -12
    3621                            .dwcfi  save_reg_to_mem, 1, -16
    3622                    $C$DW$151       .dwtag  DW_TAG_variable, DW_AT_name("enabled")
    3623                            .dwattr $C$DW$151, DW_AT_TI_symbol_name("enabled")
    3624                            .dwattr $C$DW$151, DW_AT_type(*$C$DW$T$53)
    3625                            .dwattr $C$DW$151, DW_AT_location[DW_OP_breg13 0]
    3626                    $C$DW$152       .dwtag  DW_TAG_variable, DW_AT_name("try")
    3627                            .dwattr $C$DW$152, DW_AT_TI_symbol_name("try")
    3628                            .dwattr $C$DW$152, DW_AT_type(*$C$DW$T$10)
    3629                            .dwattr $C$DW$152, DW_AT_location[DW_OP_breg13 4]
    3630                    ;----------------------------------------------------------------------
    3631                    ; 435 | int ESP8266_SetConnectionMux(uint8_t enabled){                         
    3632                    ;----------------------------------------------------------------------
    3633 0000057e 0000F88D          STRB      A1, [SP, #0]          ; [DPU_3_PIPE] |435|  ; [KEEP 32-BIT INS]
    3634                            .dwpsn  file "../esp8266.c",line 436,column 10,is_stmt,isa 1
    3635                    ;----------------------------------------------------------------------
    3636                    ; 436 | int try=MAXTRY;                                                        
    3637                    ;----------------------------------------------------------------------
    3638 00000582 200A              MOVS      A1, #10               ; [DPU_3_PIPE] |436|  ; [ORIG 16-BIT INS]
    3639 00000584 9001              STR       A1, [SP, #4]          ; [DPU_3_PIPE] |436|  ; [ORIG 16-BIT INS]
    3640                            .dwpsn  file "../esp8266.c",line 437,column 3,is_stmt,isa 1
    3641                    ;----------------------------------------------------------------------
    3642                    ; 437 | SearchStart("ok");                                                     
    3643                    ;----------------------------------------------------------------------
    3644 00000586 A0BA              ADR       A1, $C$SL16           ; [DPU_3_PIPE] |437|  ; [ORIG 16-BIT INS]
    3645                    $C$DW$153       .dwtag  DW_TAG_TI_branch
TI ARM Assembler PC v5.2.4 Sat Feb 06 22:51:21 2016

Tools Copyright (c) 1996-2015 Texas Instruments Incorporated
esp8266.asm                                                          PAGE   68

    3646                            .dwattr $C$DW$153, DW_AT_low_pc(0x00)
    3647                            .dwattr $C$DW$153, DW_AT_name("SearchStart")
    3648                            .dwattr $C$DW$153, DW_AT_TI_call
    3649 00000588 FD50F7FF          BL        SearchStart           ; [DPU_3_PIPE] |437|  ; [KEEP 32-BIT INS]
    3650                            ; CALL OCCURS {SearchStart }     ; [] |437| 
    3651                            .dwpsn  file "../esp8266.c",line 438,column 3,is_stmt,isa 1
    3652                    ;----------------------------------------------------------------------
    3653                    ; 438 | while(try){                                                            
    3654                    ;----------------------------------------------------------------------
    3655 0000058c 9801              LDR       A1, [SP, #4]          ; [DPU_3_PIPE] |438|  ; [ORIG 16-BIT INS]
    3656 0000058e B1B8              CBZ       A1, ||$C$L52||        ; []  ; [ORIG 16-BIT INS]
    3657                            ; BRANCHCC OCCURS {||$C$L52||}   ; [] |438| 
    3658                    ;* --------------------------------------------------------------------------*
    3659                    ;*   BEGIN LOOP ||$C$L50||
    3660                    ;*
    3661                    ;*   Loop source line                : 438
    3662                    ;*   Loop closing brace source line  : 444
    3663                    ;*   Known Minimum Trip Count        : 1
    3664                    ;*   Known Maximum Trip Count        : 4294967295
    3665                    ;*   Known Max Trip Count Factor     : 1
    3666                    ;* --------------------------------------------------------------------------*
    3667 00000590           ||$C$L50||:    
    3668                            .dwpsn  file "../esp8266.c",line 439,column 5,is_stmt,isa 1
    3669                    ;----------------------------------------------------------------------
    3670                    ; 439 | sprintf((char*)TXBuffer, "AT+CIPMUX=%d\r\n", enabled);                 
    3671                    ;----------------------------------------------------------------------
    3672 00000590 2000F89D          LDRB      A3, [SP, #0]          ; [DPU_3_PIPE] |439|  ; [KEEP 32-BIT INS]
    3673 00000594 48AA              LDR       A1, $C$CON45          ; [DPU_3_PIPE] |439|  ; [ORIG 16-BIT INS]
    3674 00000596 A1B7              ADR       A2, $C$SL17           ; [DPU_3_PIPE] |439|  ; [ORIG 16-BIT INS]
    3675                    $C$DW$154       .dwtag  DW_TAG_TI_branch
    3676                            .dwattr $C$DW$154, DW_AT_low_pc(0x00)
    3677                            .dwattr $C$DW$154, DW_AT_name("sprintf")
    3678                            .dwattr $C$DW$154, DW_AT_TI_call
    3679 00000598 FFFEF7FF!         BL        sprintf               ; [DPU_3_PIPE] |439|  ; [KEEP 32-BIT INS]
    3680                            ; CALL OCCURS {sprintf }         ; [] |439| 
    3681                            .dwpsn  file "../esp8266.c",line 440,column 5,is_stmt,isa 1
    3682                    ;----------------------------------------------------------------------
    3683                    ; 440 | ESP8266SendCommand((const char*)TXBuffer);                             
    3684                    ;----------------------------------------------------------------------
    3685 0000059c 48A8              LDR       A1, $C$CON45          ; [DPU_3_PIPE] |440|  ; [ORIG 16-BIT INS]
    3686                    $C$DW$155       .dwtag  DW_TAG_TI_branch
    3687                            .dwattr $C$DW$155, DW_AT_low_pc(0x00)
    3688                            .dwattr $C$DW$155, DW_AT_name("ESP8266SendCommand")
    3689                            .dwattr $C$DW$155, DW_AT_TI_call
    3690 0000059e FEB1F7FF          BL        ESP8266SendCommand    ; [DPU_3_PIPE] |440|  ; [KEEP 32-BIT INS]
    3691                            ; CALL OCCURS {ESP8266SendCommand }  ; [] |440| 
    3692                            .dwpsn  file "../esp8266.c",line 441,column 5,is_stmt,isa 1
    3693                    ;----------------------------------------------------------------------
    3694                    ; 441 | DelayMsSearching(5000);                                                
    3695                    ;----------------------------------------------------------------------
    3696 000005a2 3088F241          MOV       A1, #5000             ; [DPU_3_PIPE] |441|  ; [KEEP 32-BIT INS]
    3697                    $C$DW$156       .dwtag  DW_TAG_TI_branch
    3698                            .dwattr $C$DW$156, DW_AT_low_pc(0x00)
    3699                            .dwattr $C$DW$156, DW_AT_name("DelayMsSearching")
    3700                            .dwattr $C$DW$156, DW_AT_TI_call
TI ARM Assembler PC v5.2.4 Sat Feb 06 22:51:21 2016

Tools Copyright (c) 1996-2015 Texas Instruments Incorporated
esp8266.asm                                                          PAGE   69

    3701 000005a6 FEEBF7FF          BL        DelayMsSearching      ; [DPU_3_PIPE] |441|  ; [KEEP 32-BIT INS]
    3702                            ; CALL OCCURS {DelayMsSearching }  ; [] |441| 
    3703                            .dwpsn  file "../esp8266.c",line 442,column 5,is_stmt,isa 1
    3704                    ;----------------------------------------------------------------------
    3705                    ; 442 | if(SearchFound) return 1; // success                                   
    3706                    ;----------------------------------------------------------------------
    3707 000005aa 48C1              LDR       A1, $C$CON46          ; [DPU_3_PIPE] |442|  ; [ORIG 16-BIT INS]
    3708 000005ac 7800              LDRB      A1, [A1, #0]          ; [DPU_3_PIPE] |442|  ; [ORIG 16-BIT INS]
    3709 000005ae B108              CBZ       A1, ||$C$L51||        ; []  ; [ORIG 16-BIT INS]
    3710                            ; BRANCHCC OCCURS {||$C$L51||}   ; [] |442| 
    3711                    ;* --------------------------------------------------------------------------*
    3712                            .dwpsn  file "../esp8266.c",line 442,column 21,is_stmt,isa 1
    3713 000005b0 2001              MOVS      A1, #1                ; [DPU_3_PIPE] |442|  ; [ORIG 16-BIT INS]
    3714 000005b2 E006              B         ||$C$L53||            ; [DPU_3_PIPE] |442|  ; [ORIG 16-BIT INS]
    3715                            ; BRANCH OCCURS {||$C$L53||}     ; [] |442| 
    3716                    ;* --------------------------------------------------------------------------*
    3717 000005b4           ||$C$L51||:    
    3718                            .dwpsn  file "../esp8266.c",line 443,column 5,is_stmt,isa 1
    3719                    ;----------------------------------------------------------------------
    3720                    ; 443 | try--;                                                                 
    3721                    ;----------------------------------------------------------------------
    3722 000005b4 9801              LDR       A1, [SP, #4]          ; [DPU_3_PIPE] |443|  ; [ORIG 16-BIT INS]
    3723 000005b6 1E40              SUBS      A1, A1, #1            ; [DPU_3_PIPE] |443|  ; [ORIG 16-BIT INS]
    3724 000005b8 9001              STR       A1, [SP, #4]          ; [DPU_3_PIPE] |443|  ; [ORIG 16-BIT INS]
    3725                            .dwpsn  file "../esp8266.c",line 438,column 3,is_stmt,isa 1
    3726 000005ba 9801              LDR       A1, [SP, #4]          ; [DPU_3_PIPE] |438|  ; [ORIG 16-BIT INS]
    3727 000005bc 2800              CMP       A1, #0                ; [DPU_3_PIPE] |438|  ; [ORIG 16-BIT INS]
    3728 000005be D1E7              BNE       ||$C$L50||            ; [DPU_3_PIPE] |438|  ; [ORIG 16-BIT INS]
    3729                            ; BRANCHCC OCCURS {||$C$L50||}   ; [] |438| 
    3730                    ;* --------------------------------------------------------------------------*
    3731 000005c0           ||$C$L52||:    
    3732                            .dwpsn  file "../esp8266.c",line 445,column 3,is_stmt,isa 1
    3733                    ;----------------------------------------------------------------------
    3734                    ; 445 | return 0; // fail                                                      
    3735                    ;----------------------------------------------------------------------
    3736 000005c0 2000              MOVS      A1, #0                ; [DPU_3_PIPE] |445|  ; [ORIG 16-BIT INS]
    3737                    ;* --------------------------------------------------------------------------*
    3738 000005c2           ||$C$L53||:    
    3739                            .dwpsn  file "../esp8266.c",line 446,column 1,is_stmt,isa 1
    3740                    $C$DW$157       .dwtag  DW_TAG_TI_branch
    3741                            .dwattr $C$DW$157, DW_AT_low_pc(0x00)
    3742                            .dwattr $C$DW$157, DW_AT_TI_return
    3743 000005c2 BD0E              POP       {A2, A3, A4, PC}      ; [DPU_3_PIPE]  ; [ORIG 16-BIT INS]
    3744                            .dwcfi  cfa_offset, 0
    3745                            ; BRANCH OCCURS                  ; [] 
    3746                            .dwattr $C$DW$149, DW_AT_TI_end_file("../esp8266.c")
    3747                            .dwattr $C$DW$149, DW_AT_TI_end_line(0x1be)
    3748                            .dwattr $C$DW$149, DW_AT_TI_end_column(0x01)
    3749                            .dwendentry
    3750                            .dwendtag $C$DW$149
    3751                    
    3752                    ;******************************************************************************
    3753                    ;* CONSTANT TABLE                                                             *
    3754                    ;******************************************************************************
    3755 000005c4                   .sect   ".text"
TI ARM Assembler PC v5.2.4 Sat Feb 06 22:51:21 2016

Tools Copyright (c) 1996-2015 Texas Instruments Incorporated
esp8266.asm                                                          PAGE   70

    3756                            .align  4
    3757 000005c4 00000000! ||$C$CON41||:   .bits   SearchLooking,32
    3758                            .align  4
    3759 000005c8 00000000! ||$C$CON42||:   .bits   ServerResponseSearchLooking,32
    3760                            .align  4
    3761 000005cc 00000000! ||$C$CON43||:   .bits   ServerResponseSearchFinished,32
    3762 000005d0                   .sect   ".text"
    3763                            .clink
    3764                            .thumbfunc ESP8266_JoinAccessPoint
    3765 000005d0                   .thumb
    3766                            .global ESP8266_JoinAccessPoint
    3767                    
    3768                    $C$DW$158       .dwtag  DW_TAG_subprogram, DW_AT_name("ESP8266_JoinAccessPoint")
    3769                            .dwattr $C$DW$158, DW_AT_low_pc(ESP8266_JoinAccessPoint)
    3770                            .dwattr $C$DW$158, DW_AT_high_pc(0x00)
    3771                            .dwattr $C$DW$158, DW_AT_TI_symbol_name("ESP8266_JoinAccessPoint")
    3772                            .dwattr $C$DW$158, DW_AT_external
    3773                            .dwattr $C$DW$158, DW_AT_type(*$C$DW$T$10)
    3774                            .dwattr $C$DW$158, DW_AT_TI_begin_file("../esp8266.c")
    3775                            .dwattr $C$DW$158, DW_AT_TI_begin_line(0x1c4)
    3776                            .dwattr $C$DW$158, DW_AT_TI_begin_column(0x05)
    3777                            .dwattr $C$DW$158, DW_AT_decl_file("../esp8266.c")
    3778                            .dwattr $C$DW$158, DW_AT_decl_line(0x1c4)
    3779                            .dwattr $C$DW$158, DW_AT_decl_column(0x05)
    3780                            .dwattr $C$DW$158, DW_AT_TI_max_frame_size(0x10)
    3781                            .dwpsn  file "../esp8266.c",line 452,column 68,is_stmt,address ESP8266_JoinAccessPoint,isa 1
    3782                    
    3783                            .dwfde $C$DW$CIE, ESP8266_JoinAccessPoint
    3784                    $C$DW$159       .dwtag  DW_TAG_formal_parameter, DW_AT_name("ssid")
    3785                            .dwattr $C$DW$159, DW_AT_TI_symbol_name("ssid")
    3786                            .dwattr $C$DW$159, DW_AT_type(*$C$DW$T$42)
    3787                            .dwattr $C$DW$159, DW_AT_location[DW_OP_reg0]
    3788                    $C$DW$160       .dwtag  DW_TAG_formal_parameter, DW_AT_name("password")
    3789                            .dwattr $C$DW$160, DW_AT_TI_symbol_name("password")
    3790                            .dwattr $C$DW$160, DW_AT_type(*$C$DW$T$42)
    3791                            .dwattr $C$DW$160, DW_AT_location[DW_OP_reg1]
    3792                    
    3793                    ;*****************************************************************************
    3794                    ;* FUNCTION NAME: ESP8266_JoinAccessPoint                                    *
    3795                    ;*                                                                           *
    3796                    ;*   Regs Modified     : A1,A2,A3,A4,V9,SP,LR,SR,D0,D0_hi,D1,D1_hi,D2,D2_hi, *
    3797                    ;*                           D3,D3_hi,D4,D4_hi,D5,D5_hi,D6,D6_hi,D7,D7_hi,   *
    3798                    ;*                           FPEXC,FPSCR                                     *
    3799                    ;*   Regs Used         : A1,A2,A3,A4,V9,SP,LR,SR,D0,D0_hi,D1,D1_hi,D2,D2_hi, *
    3800                    ;*                           D3,D3_hi,D4,D4_hi,D5,D5_hi,D6,D6_hi,D7,D7_hi,   *
    3801                    ;*                           FPEXC,FPSCR                                     *
    3802                    ;*   Local Frame Size  : 0 Args + 12 Auto + 4 Save = 16 byte                 *
    3803                    ;*****************************************************************************
    3804 000005d0           ESP8266_JoinAccessPoint:
    3805                    ;* --------------------------------------------------------------------------*
    3806                            .dwcfi  cfa_offset, 0
    3807 000005d0 B50E              PUSH      {A2, A3, A4, LR}      ; [DPU_3_PIPE]  ; [ORIG 16-BIT INS]
    3808                            .dwcfi  cfa_offset, 16
    3809                            .dwcfi  save_reg_to_mem, 14, -4
    3810                            .dwcfi  save_reg_to_mem, 3, -8
TI ARM Assembler PC v5.2.4 Sat Feb 06 22:51:21 2016

Tools Copyright (c) 1996-2015 Texas Instruments Incorporated
esp8266.asm                                                          PAGE   71

    3811                            .dwcfi  save_reg_to_mem, 2, -12
    3812                            .dwcfi  save_reg_to_mem, 1, -16
    3813                    $C$DW$161       .dwtag  DW_TAG_variable, DW_AT_name("ssid")
    3814                            .dwattr $C$DW$161, DW_AT_TI_symbol_name("ssid")
    3815                            .dwattr $C$DW$161, DW_AT_type(*$C$DW$T$42)
    3816                            .dwattr $C$DW$161, DW_AT_location[DW_OP_breg13 0]
    3817                    $C$DW$162       .dwtag  DW_TAG_variable, DW_AT_name("password")
    3818                            .dwattr $C$DW$162, DW_AT_TI_symbol_name("password")
    3819                            .dwattr $C$DW$162, DW_AT_type(*$C$DW$T$42)
    3820                            .dwattr $C$DW$162, DW_AT_location[DW_OP_breg13 4]
    3821                    $C$DW$163       .dwtag  DW_TAG_variable, DW_AT_name("try")
    3822                            .dwattr $C$DW$163, DW_AT_TI_symbol_name("try")
    3823                            .dwattr $C$DW$163, DW_AT_type(*$C$DW$T$10)
    3824                            .dwattr $C$DW$163, DW_AT_location[DW_OP_breg13 8]
    3825                    ;----------------------------------------------------------------------
    3826                    ; 452 | int ESP8266_JoinAccessPoint(const char* ssid, const char* password){   
    3827                    ;----------------------------------------------------------------------
    3828 000005d2 9101              STR       A2, [SP, #4]          ; [DPU_3_PIPE] |452|  ; [ORIG 16-BIT INS]
    3829 000005d4 9000              STR       A1, [SP, #0]          ; [DPU_3_PIPE] |452|  ; [ORIG 16-BIT INS]
    3830                            .dwpsn  file "../esp8266.c",line 453,column 10,is_stmt,isa 1
    3831                    ;----------------------------------------------------------------------
    3832                    ; 453 | int try=MAXTRY;                                                        
    3833                    ;----------------------------------------------------------------------
    3834 000005d6 200A              MOVS      A1, #10               ; [DPU_3_PIPE] |453|  ; [ORIG 16-BIT INS]
    3835 000005d8 9002              STR       A1, [SP, #8]          ; [DPU_3_PIPE] |453|  ; [ORIG 16-BIT INS]
    3836                            .dwpsn  file "../esp8266.c",line 454,column 3,is_stmt,isa 1
    3837                    ;----------------------------------------------------------------------
    3838                    ; 454 | SearchStart("ok");                                                     
    3839                    ;----------------------------------------------------------------------
    3840 000005da A0A5              ADR       A1, $C$SL16           ; [DPU_3_PIPE] |454|  ; [ORIG 16-BIT INS]
    3841                    $C$DW$164       .dwtag  DW_TAG_TI_branch
    3842                            .dwattr $C$DW$164, DW_AT_low_pc(0x00)
    3843                            .dwattr $C$DW$164, DW_AT_name("SearchStart")
    3844                            .dwattr $C$DW$164, DW_AT_TI_call
    3845 000005dc FD26F7FF          BL        SearchStart           ; [DPU_3_PIPE] |454|  ; [KEEP 32-BIT INS]
    3846                            ; CALL OCCURS {SearchStart }     ; [] |454| 
    3847                            .dwpsn  file "../esp8266.c",line 455,column 3,is_stmt,isa 1
    3848                    ;----------------------------------------------------------------------
    3849                    ; 455 | while(try){                                                            
    3850                    ;----------------------------------------------------------------------
    3851 000005e0 9802              LDR       A1, [SP, #8]          ; [DPU_3_PIPE] |455|  ; [ORIG 16-BIT INS]
    3852 000005e2 B1B8              CBZ       A1, ||$C$L56||        ; []  ; [ORIG 16-BIT INS]
    3853                            ; BRANCHCC OCCURS {||$C$L56||}   ; [] |455| 
    3854                    ;* --------------------------------------------------------------------------*
    3855                    ;*   BEGIN LOOP ||$C$L54||
    3856                    ;*
    3857                    ;*   Loop source line                : 455
    3858                    ;*   Loop closing brace source line  : 461
    3859                    ;*   Known Minimum Trip Count        : 1
    3860                    ;*   Known Maximum Trip Count        : 4294967295
    3861                    ;*   Known Max Trip Count Factor     : 1
    3862                    ;* --------------------------------------------------------------------------*
    3863 000005e4           ||$C$L54||:    
    3864                            .dwpsn  file "../esp8266.c",line 456,column 5,is_stmt,isa 1
    3865                    ;----------------------------------------------------------------------
TI ARM Assembler PC v5.2.4 Sat Feb 06 22:51:21 2016

Tools Copyright (c) 1996-2015 Texas Instruments Incorporated
esp8266.asm                                                          PAGE   72

    3866                    ; 456 | sprintf((char*)TXBuffer, "AT+CWJAP=\"%s\",\"%s\"\r\n", ssid, password);
    3867                    ;----------------------------------------------------------------------
    3868 000005e4 4896              LDR       A1, $C$CON45          ; [DPU_3_PIPE] |456|  ; [ORIG 16-BIT INS]
    3869 000005e6 9A00              LDR       A3, [SP, #0]          ; [DPU_3_PIPE] |456|  ; [ORIG 16-BIT INS]
    3870 000005e8 9B01              LDR       A4, [SP, #4]          ; [DPU_3_PIPE] |456|  ; [ORIG 16-BIT INS]
    3871 000005ea A1B6              ADR       A2, $C$SL18           ; [DPU_3_PIPE] |456|  ; [ORIG 16-BIT INS]
    3872                    $C$DW$165       .dwtag  DW_TAG_TI_branch
    3873                            .dwattr $C$DW$165, DW_AT_low_pc(0x00)
    3874                            .dwattr $C$DW$165, DW_AT_name("sprintf")
    3875                            .dwattr $C$DW$165, DW_AT_TI_call
    3876 000005ec FFFEF7FF!         BL        sprintf               ; [DPU_3_PIPE] |456|  ; [KEEP 32-BIT INS]
    3877                            ; CALL OCCURS {sprintf }         ; [] |456| 
    3878                            .dwpsn  file "../esp8266.c",line 457,column 5,is_stmt,isa 1
    3879                    ;----------------------------------------------------------------------
    3880                    ; 457 | ESP8266SendCommand((const char*)TXBuffer);                             
    3881                    ;----------------------------------------------------------------------
    3882 000005f0 4893              LDR       A1, $C$CON45          ; [DPU_3_PIPE] |457|  ; [ORIG 16-BIT INS]
    3883                    $C$DW$166       .dwtag  DW_TAG_TI_branch
    3884                            .dwattr $C$DW$166, DW_AT_low_pc(0x00)
    3885                            .dwattr $C$DW$166, DW_AT_name("ESP8266SendCommand")
    3886                            .dwattr $C$DW$166, DW_AT_TI_call
    3887 000005f2 FE87F7FF          BL        ESP8266SendCommand    ; [DPU_3_PIPE] |457|  ; [KEEP 32-BIT INS]
    3888                            ; CALL OCCURS {ESP8266SendCommand }  ; [] |457| 
    3889                            .dwpsn  file "../esp8266.c",line 458,column 5,is_stmt,isa 1
    3890                    ;----------------------------------------------------------------------
    3891                    ; 458 | DelayMsSearching(4000);                                                
    3892                    ;----------------------------------------------------------------------
    3893 000005f6 607AF44F          MOV       A1, #4000             ; [DPU_3_PIPE] |458|  ; [KEEP 32-BIT INS]
    3894                    $C$DW$167       .dwtag  DW_TAG_TI_branch
    3895                            .dwattr $C$DW$167, DW_AT_low_pc(0x00)
    3896                            .dwattr $C$DW$167, DW_AT_name("DelayMsSearching")
    3897                            .dwattr $C$DW$167, DW_AT_TI_call
    3898 000005fa FEC1F7FF          BL        DelayMsSearching      ; [DPU_3_PIPE] |458|  ; [KEEP 32-BIT INS]
    3899                            ; CALL OCCURS {DelayMsSearching }  ; [] |458| 
    3900                            .dwpsn  file "../esp8266.c",line 459,column 5,is_stmt,isa 1
    3901                    ;----------------------------------------------------------------------
    3902                    ; 459 | if(SearchFound) return 1; // success                                   
    3903                    ;----------------------------------------------------------------------
    3904 000005fe 48AC              LDR       A1, $C$CON46          ; [DPU_3_PIPE] |459|  ; [ORIG 16-BIT INS]
    3905 00000600 7800              LDRB      A1, [A1, #0]          ; [DPU_3_PIPE] |459|  ; [ORIG 16-BIT INS]
    3906 00000602 B108              CBZ       A1, ||$C$L55||        ; []  ; [ORIG 16-BIT INS]
    3907                            ; BRANCHCC OCCURS {||$C$L55||}   ; [] |459| 
    3908                    ;* --------------------------------------------------------------------------*
    3909                            .dwpsn  file "../esp8266.c",line 459,column 21,is_stmt,isa 1
    3910 00000604 2001              MOVS      A1, #1                ; [DPU_3_PIPE] |459|  ; [ORIG 16-BIT INS]
    3911 00000606 E006              B         ||$C$L57||            ; [DPU_3_PIPE] |459|  ; [ORIG 16-BIT INS]
    3912                            ; BRANCH OCCURS {||$C$L57||}     ; [] |459| 
    3913                    ;* --------------------------------------------------------------------------*
    3914 00000608           ||$C$L55||:    
    3915                            .dwpsn  file "../esp8266.c",line 460,column 5,is_stmt,isa 1
    3916                    ;----------------------------------------------------------------------
    3917                    ; 460 | try--;                                                                 
    3918                    ;----------------------------------------------------------------------
    3919 00000608 9802              LDR       A1, [SP, #8]          ; [DPU_3_PIPE] |460|  ; [ORIG 16-BIT INS]
    3920 0000060a 1E40              SUBS      A1, A1, #1            ; [DPU_3_PIPE] |460|  ; [ORIG 16-BIT INS]
TI ARM Assembler PC v5.2.4 Sat Feb 06 22:51:21 2016

Tools Copyright (c) 1996-2015 Texas Instruments Incorporated
esp8266.asm                                                          PAGE   73

    3921 0000060c 9002              STR       A1, [SP, #8]          ; [DPU_3_PIPE] |460|  ; [ORIG 16-BIT INS]
    3922                            .dwpsn  file "../esp8266.c",line 455,column 3,is_stmt,isa 1
    3923 0000060e 9802              LDR       A1, [SP, #8]          ; [DPU_3_PIPE] |455|  ; [ORIG 16-BIT INS]
    3924 00000610 2800              CMP       A1, #0                ; [DPU_3_PIPE] |455|  ; [ORIG 16-BIT INS]
    3925 00000612 D1E7              BNE       ||$C$L54||            ; [DPU_3_PIPE] |455|  ; [ORIG 16-BIT INS]
    3926                            ; BRANCHCC OCCURS {||$C$L54||}   ; [] |455| 
    3927                    ;* --------------------------------------------------------------------------*
    3928 00000614           ||$C$L56||:    
    3929                            .dwpsn  file "../esp8266.c",line 462,column 3,is_stmt,isa 1
    3930                    ;----------------------------------------------------------------------
    3931                    ; 462 | return 0; // fail                                                      
    3932                    ;----------------------------------------------------------------------
    3933 00000614 2000              MOVS      A1, #0                ; [DPU_3_PIPE] |462|  ; [ORIG 16-BIT INS]
    3934                    ;* --------------------------------------------------------------------------*
    3935 00000616           ||$C$L57||:    
    3936                            .dwpsn  file "../esp8266.c",line 463,column 1,is_stmt,isa 1
    3937                    $C$DW$168       .dwtag  DW_TAG_TI_branch
    3938                            .dwattr $C$DW$168, DW_AT_low_pc(0x00)
    3939                            .dwattr $C$DW$168, DW_AT_TI_return
    3940 00000616 BD0E              POP       {A2, A3, A4, PC}      ; [DPU_3_PIPE]  ; [ORIG 16-BIT INS]
    3941                            .dwcfi  cfa_offset, 0
    3942                            ; BRANCH OCCURS                  ; [] 
    3943                            .dwattr $C$DW$158, DW_AT_TI_end_file("../esp8266.c")
    3944                            .dwattr $C$DW$158, DW_AT_TI_end_line(0x1cf)
    3945                            .dwattr $C$DW$158, DW_AT_TI_end_column(0x01)
    3946                            .dwendentry
    3947                            .dwendtag $C$DW$158
    3948                    
    3949                    ;******************************************************************************
    3950                    ;* CONSTANT TABLE                                                             *
    3951                    ;******************************************************************************
    3952 00000618                   .sect   ".text"
    3953                            .align  4
    3954 00000618 00000000! ||$C$CON40||:   .bits   ESP8266_InputProcessingEnabled,32
    3955 0000061c                   .sect   ".text"
    3956                            .clink
    3957                            .thumbfunc ESP8266_ListAccessPoints
    3958 0000061c                   .thumb
    3959                            .global ESP8266_ListAccessPoints
    3960                    
    3961                    $C$DW$169       .dwtag  DW_TAG_subprogram, DW_AT_name("ESP8266_ListAccessPoints")
    3962                            .dwattr $C$DW$169, DW_AT_low_pc(ESP8266_ListAccessPoints)
    3963                            .dwattr $C$DW$169, DW_AT_high_pc(0x00)
    3964                            .dwattr $C$DW$169, DW_AT_TI_symbol_name("ESP8266_ListAccessPoints")
    3965                            .dwattr $C$DW$169, DW_AT_external
    3966                            .dwattr $C$DW$169, DW_AT_type(*$C$DW$T$10)
    3967                            .dwattr $C$DW$169, DW_AT_TI_begin_file("../esp8266.c")
    3968                            .dwattr $C$DW$169, DW_AT_TI_begin_line(0x1d5)
    3969                            .dwattr $C$DW$169, DW_AT_TI_begin_column(0x05)
    3970                            .dwattr $C$DW$169, DW_AT_decl_file("../esp8266.c")
    3971                            .dwattr $C$DW$169, DW_AT_decl_line(0x1d5)
    3972                            .dwattr $C$DW$169, DW_AT_decl_column(0x05)
    3973                            .dwattr $C$DW$169, DW_AT_TI_max_frame_size(0x08)
    3974                            .dwpsn  file "../esp8266.c",line 469,column 35,is_stmt,address ESP8266_ListAccessPoints,isa 1
    3975                    
TI ARM Assembler PC v5.2.4 Sat Feb 06 22:51:21 2016

Tools Copyright (c) 1996-2015 Texas Instruments Incorporated
esp8266.asm                                                          PAGE   74

    3976                            .dwfde $C$DW$CIE, ESP8266_ListAccessPoints
    3977                    ;----------------------------------------------------------------------
    3978                    ; 469 | int ESP8266_ListAccessPoints(void){                                    
    3979                    ;----------------------------------------------------------------------
    3980                    
    3981                    ;*****************************************************************************
    3982                    ;* FUNCTION NAME: ESP8266_ListAccessPoints                                   *
    3983                    ;*                                                                           *
    3984                    ;*   Regs Modified     : A1,A2,A3,A4,V9,SP,LR,SR,D0,D0_hi,D1,D1_hi,D2,D2_hi, *
    3985                    ;*                           D3,D3_hi,D4,D4_hi,D5,D5_hi,D6,D6_hi,D7,D7_hi,   *
    3986                    ;*                           FPEXC,FPSCR                                     *
    3987                    ;*   Regs Used         : A1,A2,A3,A4,V9,SP,LR,SR,D0,D0_hi,D1,D1_hi,D2,D2_hi, *
    3988                    ;*                           D3,D3_hi,D4,D4_hi,D5,D5_hi,D6,D6_hi,D7,D7_hi,   *
    3989                    ;*                           FPEXC,FPSCR                                     *
    3990                    ;*   Local Frame Size  : 0 Args + 4 Auto + 4 Save = 8 byte                   *
    3991                    ;*****************************************************************************
    3992 0000061c           ESP8266_ListAccessPoints:
    3993                    ;* --------------------------------------------------------------------------*
    3994                            .dwcfi  cfa_offset, 0
    3995 0000061c B508              PUSH      {A4, LR}              ; [DPU_3_PIPE]  ; [ORIG 16-BIT INS]
    3996                            .dwcfi  cfa_offset, 8
    3997                            .dwcfi  save_reg_to_mem, 14, -4
    3998                            .dwcfi  save_reg_to_mem, 3, -8
    3999                    $C$DW$170       .dwtag  DW_TAG_variable, DW_AT_name("try")
    4000                            .dwattr $C$DW$170, DW_AT_TI_symbol_name("try")
    4001                            .dwattr $C$DW$170, DW_AT_type(*$C$DW$T$10)
    4002                            .dwattr $C$DW$170, DW_AT_location[DW_OP_breg13 0]
    4003                            .dwpsn  file "../esp8266.c",line 470,column 10,is_stmt,isa 1
    4004                    ;----------------------------------------------------------------------
    4005                    ; 470 | int try=MAXTRY;                                                        
    4006                    ;----------------------------------------------------------------------
    4007 0000061e 200A              MOVS      A1, #10               ; [DPU_3_PIPE] |470|  ; [ORIG 16-BIT INS]
    4008 00000620 9000              STR       A1, [SP, #0]          ; [DPU_3_PIPE] |470|  ; [ORIG 16-BIT INS]
    4009                            .dwpsn  file "../esp8266.c",line 471,column 3,is_stmt,isa 1
    4010                    ;----------------------------------------------------------------------
    4011                    ; 471 | SearchStart("ok");                                                     
    4012                    ;----------------------------------------------------------------------
    4013 00000622 A093              ADR       A1, $C$SL16           ; [DPU_3_PIPE] |471|  ; [ORIG 16-BIT INS]
    4014                    $C$DW$171       .dwtag  DW_TAG_TI_branch
    4015                            .dwattr $C$DW$171, DW_AT_low_pc(0x00)
    4016                            .dwattr $C$DW$171, DW_AT_name("SearchStart")
    4017                            .dwattr $C$DW$171, DW_AT_TI_call
    4018 00000624 FD02F7FF          BL        SearchStart           ; [DPU_3_PIPE] |471|  ; [KEEP 32-BIT INS]
    4019                            ; CALL OCCURS {SearchStart }     ; [] |471| 
    4020                            .dwpsn  file "../esp8266.c",line 472,column 3,is_stmt,isa 1
    4021                    ;----------------------------------------------------------------------
    4022                    ; 472 | while(try){                                                            
    4023                    ;----------------------------------------------------------------------
    4024 00000628 9800              LDR       A1, [SP, #0]          ; [DPU_3_PIPE] |472|  ; [ORIG 16-BIT INS]
    4025 0000062a B188              CBZ       A1, ||$C$L60||        ; []  ; [ORIG 16-BIT INS]
    4026                            ; BRANCHCC OCCURS {||$C$L60||}   ; [] |472| 
    4027                    ;* --------------------------------------------------------------------------*
    4028                    ;*   BEGIN LOOP ||$C$L58||
    4029                    ;*
    4030                    ;*   Loop source line                : 472
TI ARM Assembler PC v5.2.4 Sat Feb 06 22:51:21 2016

Tools Copyright (c) 1996-2015 Texas Instruments Incorporated
esp8266.asm                                                          PAGE   75

    4031                    ;*   Loop closing brace source line  : 477
    4032                    ;*   Known Minimum Trip Count        : 1
    4033                    ;*   Known Maximum Trip Count        : 4294967295
    4034                    ;*   Known Max Trip Count Factor     : 1
    4035                    ;* --------------------------------------------------------------------------*
    4036 0000062c           ||$C$L58||:    
    4037                            .dwpsn  file "../esp8266.c",line 473,column 5,is_stmt,isa 1
    4038                    ;----------------------------------------------------------------------
    4039                    ; 473 | ESP8266SendCommand("AT+CWLAP\r\n");                                    
    4040                    ;----------------------------------------------------------------------
    4041 0000062c A0BC              ADR       A1, $C$SL19           ; [DPU_3_PIPE] |473|  ; [ORIG 16-BIT INS]
    4042                    $C$DW$172       .dwtag  DW_TAG_TI_branch
    4043                            .dwattr $C$DW$172, DW_AT_low_pc(0x00)
    4044                            .dwattr $C$DW$172, DW_AT_name("ESP8266SendCommand")
    4045                            .dwattr $C$DW$172, DW_AT_TI_call
    4046 0000062e FE69F7FF          BL        ESP8266SendCommand    ; [DPU_3_PIPE] |473|  ; [KEEP 32-BIT INS]
    4047                            ; CALL OCCURS {ESP8266SendCommand }  ; [] |473| 
    4048                            .dwpsn  file "../esp8266.c",line 474,column 5,is_stmt,isa 1
    4049                    ;----------------------------------------------------------------------
    4050                    ; 474 | DelayMsSearching(8000);                                                
    4051                    ;----------------------------------------------------------------------
    4052 00000632 50FAF44F          MOV       A1, #8000             ; [DPU_3_PIPE] |474|  ; [KEEP 32-BIT INS]
    4053                    $C$DW$173       .dwtag  DW_TAG_TI_branch
    4054                            .dwattr $C$DW$173, DW_AT_low_pc(0x00)
    4055                            .dwattr $C$DW$173, DW_AT_name("DelayMsSearching")
    4056                            .dwattr $C$DW$173, DW_AT_TI_call
    4057 00000636 FEA3F7FF          BL        DelayMsSearching      ; [DPU_3_PIPE] |474|  ; [KEEP 32-BIT INS]
    4058                            ; CALL OCCURS {DelayMsSearching }  ; [] |474| 
    4059                            .dwpsn  file "../esp8266.c",line 475,column 5,is_stmt,isa 1
    4060                    ;----------------------------------------------------------------------
    4061                    ; 475 | if(SearchFound) return 1; // success                                   
    4062                    ;----------------------------------------------------------------------
    4063 0000063a 489D              LDR       A1, $C$CON46          ; [DPU_3_PIPE] |475|  ; [ORIG 16-BIT INS]
    4064 0000063c 7800              LDRB      A1, [A1, #0]          ; [DPU_3_PIPE] |475|  ; [ORIG 16-BIT INS]
    4065 0000063e B108              CBZ       A1, ||$C$L59||        ; []  ; [ORIG 16-BIT INS]
    4066                            ; BRANCHCC OCCURS {||$C$L59||}   ; [] |475| 
    4067                    ;* --------------------------------------------------------------------------*
    4068                            .dwpsn  file "../esp8266.c",line 475,column 21,is_stmt,isa 1
    4069 00000640 2001              MOVS      A1, #1                ; [DPU_3_PIPE] |475|  ; [ORIG 16-BIT INS]
    4070 00000642 E006              B         ||$C$L61||            ; [DPU_3_PIPE] |475|  ; [ORIG 16-BIT INS]
    4071                            ; BRANCH OCCURS {||$C$L61||}     ; [] |475| 
    4072                    ;* --------------------------------------------------------------------------*
    4073 00000644           ||$C$L59||:    
    4074                            .dwpsn  file "../esp8266.c",line 476,column 5,is_stmt,isa 1
    4075                    ;----------------------------------------------------------------------
    4076                    ; 476 | try--;                                                                 
    4077                    ;----------------------------------------------------------------------
    4078 00000644 9800              LDR       A1, [SP, #0]          ; [DPU_3_PIPE] |476|  ; [ORIG 16-BIT INS]
    4079 00000646 1E40              SUBS      A1, A1, #1            ; [DPU_3_PIPE] |476|  ; [ORIG 16-BIT INS]
    4080 00000648 9000              STR       A1, [SP, #0]          ; [DPU_3_PIPE] |476|  ; [ORIG 16-BIT INS]
    4081                            .dwpsn  file "../esp8266.c",line 472,column 3,is_stmt,isa 1
    4082 0000064a 9800              LDR       A1, [SP, #0]          ; [DPU_3_PIPE] |472|  ; [ORIG 16-BIT INS]
    4083 0000064c 2800              CMP       A1, #0                ; [DPU_3_PIPE] |472|  ; [ORIG 16-BIT INS]
    4084 0000064e D1ED              BNE       ||$C$L58||            ; [DPU_3_PIPE] |472|  ; [ORIG 16-BIT INS]
    4085                            ; BRANCHCC OCCURS {||$C$L58||}   ; [] |472| 
TI ARM Assembler PC v5.2.4 Sat Feb 06 22:51:21 2016

Tools Copyright (c) 1996-2015 Texas Instruments Incorporated
esp8266.asm                                                          PAGE   76

    4086                    ;* --------------------------------------------------------------------------*
    4087 00000650           ||$C$L60||:    
    4088                            .dwpsn  file "../esp8266.c",line 478,column 3,is_stmt,isa 1
    4089                    ;----------------------------------------------------------------------
    4090                    ; 478 | return 0; // fail                                                      
    4091                    ;----------------------------------------------------------------------
    4092 00000650 2000              MOVS      A1, #0                ; [DPU_3_PIPE] |478|  ; [ORIG 16-BIT INS]
    4093                    ;* --------------------------------------------------------------------------*
    4094 00000652           ||$C$L61||:    
    4095                            .dwpsn  file "../esp8266.c",line 479,column 1,is_stmt,isa 1
    4096                    $C$DW$174       .dwtag  DW_TAG_TI_branch
    4097                            .dwattr $C$DW$174, DW_AT_low_pc(0x00)
    4098                            .dwattr $C$DW$174, DW_AT_TI_return
    4099 00000652 BD08              POP       {A4, PC}              ; [DPU_3_PIPE]  ; [ORIG 16-BIT INS]
    4100                            .dwcfi  cfa_offset, 0
    4101                            ; BRANCH OCCURS                  ; [] 
    4102                            .dwattr $C$DW$169, DW_AT_TI_end_file("../esp8266.c")
    4103                            .dwattr $C$DW$169, DW_AT_TI_end_line(0x1df)
    4104                            .dwattr $C$DW$169, DW_AT_TI_end_column(0x01)
    4105                            .dwendentry
    4106                            .dwendtag $C$DW$169
    4107                    
    4108                    ;******************************************************************************
    4109                    ;* CONSTANT TABLE                                                             *
    4110                    ;******************************************************************************
    4111 00000654                   .sect   ".text"
    4112                            .align  4
    4113 00000654 400053FC  ||$C$CON44||:   .bits   1073763324,32
    4114 00000658                   .sect   ".text"
    4115                            .clink
    4116                            .thumbfunc ESP8266_QuitAccessPoint
    4117 00000658                   .thumb
    4118                            .global ESP8266_QuitAccessPoint
    4119                    
    4120                    $C$DW$175       .dwtag  DW_TAG_subprogram, DW_AT_name("ESP8266_QuitAccessPoint")
    4121                            .dwattr $C$DW$175, DW_AT_low_pc(ESP8266_QuitAccessPoint)
    4122                            .dwattr $C$DW$175, DW_AT_high_pc(0x00)
    4123                            .dwattr $C$DW$175, DW_AT_TI_symbol_name("ESP8266_QuitAccessPoint")
    4124                            .dwattr $C$DW$175, DW_AT_external
    4125                            .dwattr $C$DW$175, DW_AT_type(*$C$DW$T$10)
    4126                            .dwattr $C$DW$175, DW_AT_TI_begin_file("../esp8266.c")
    4127                            .dwattr $C$DW$175, DW_AT_TI_begin_line(0x1e5)
    4128                            .dwattr $C$DW$175, DW_AT_TI_begin_column(0x05)
    4129                            .dwattr $C$DW$175, DW_AT_decl_file("../esp8266.c")
    4130                            .dwattr $C$DW$175, DW_AT_decl_line(0x1e5)
    4131                            .dwattr $C$DW$175, DW_AT_decl_column(0x05)
    4132                            .dwattr $C$DW$175, DW_AT_TI_max_frame_size(0x08)
    4133                            .dwpsn  file "../esp8266.c",line 485,column 34,is_stmt,address ESP8266_QuitAccessPoint,isa 1
    4134                    
    4135                            .dwfde $C$DW$CIE, ESP8266_QuitAccessPoint
    4136                    ;----------------------------------------------------------------------
    4137                    ; 485 | int ESP8266_QuitAccessPoint(void){                                     
    4138                    ;----------------------------------------------------------------------
    4139                    
    4140                    ;*****************************************************************************
TI ARM Assembler PC v5.2.4 Sat Feb 06 22:51:21 2016

Tools Copyright (c) 1996-2015 Texas Instruments Incorporated
esp8266.asm                                                          PAGE   77

    4141                    ;* FUNCTION NAME: ESP8266_QuitAccessPoint                                    *
    4142                    ;*                                                                           *
    4143                    ;*   Regs Modified     : A1,A2,A3,A4,V9,SP,LR,SR,D0,D0_hi,D1,D1_hi,D2,D2_hi, *
    4144                    ;*                           D3,D3_hi,D4,D4_hi,D5,D5_hi,D6,D6_hi,D7,D7_hi,   *
    4145                    ;*                           FPEXC,FPSCR                                     *
    4146                    ;*   Regs Used         : A1,A2,A3,A4,V9,SP,LR,SR,D0,D0_hi,D1,D1_hi,D2,D2_hi, *
    4147                    ;*                           D3,D3_hi,D4,D4_hi,D5,D5_hi,D6,D6_hi,D7,D7_hi,   *
    4148                    ;*                           FPEXC,FPSCR                                     *
    4149                    ;*   Local Frame Size  : 0 Args + 4 Auto + 4 Save = 8 byte                   *
    4150                    ;*****************************************************************************
    4151 00000658           ESP8266_QuitAccessPoint:
    4152                    ;* --------------------------------------------------------------------------*
    4153                            .dwcfi  cfa_offset, 0
    4154 00000658 B508              PUSH      {A4, LR}              ; [DPU_3_PIPE]  ; [ORIG 16-BIT INS]
    4155                            .dwcfi  cfa_offset, 8
    4156                            .dwcfi  save_reg_to_mem, 14, -4
    4157                            .dwcfi  save_reg_to_mem, 3, -8
    4158                    $C$DW$176       .dwtag  DW_TAG_variable, DW_AT_name("try")
    4159                            .dwattr $C$DW$176, DW_AT_TI_symbol_name("try")
    4160                            .dwattr $C$DW$176, DW_AT_type(*$C$DW$T$10)
    4161                            .dwattr $C$DW$176, DW_AT_location[DW_OP_breg13 0]
    4162                            .dwpsn  file "../esp8266.c",line 486,column 10,is_stmt,isa 1
    4163                    ;----------------------------------------------------------------------
    4164                    ; 486 | int try=MAXTRY;                                                        
    4165                    ;----------------------------------------------------------------------
    4166 0000065a 200A              MOVS      A1, #10               ; [DPU_3_PIPE] |486|  ; [ORIG 16-BIT INS]
    4167 0000065c 9000              STR       A1, [SP, #0]          ; [DPU_3_PIPE] |486|  ; [ORIG 16-BIT INS]
    4168                            .dwpsn  file "../esp8266.c",line 487,column 3,is_stmt,isa 1
    4169                    ;----------------------------------------------------------------------
    4170                    ; 487 | SearchStart("ok");                                                     
    4171                    ;----------------------------------------------------------------------
    4172 0000065e A084              ADR       A1, $C$SL16           ; [DPU_3_PIPE] |487|  ; [ORIG 16-BIT INS]
    4173                    $C$DW$177       .dwtag  DW_TAG_TI_branch
    4174                            .dwattr $C$DW$177, DW_AT_low_pc(0x00)
    4175                            .dwattr $C$DW$177, DW_AT_name("SearchStart")
    4176                            .dwattr $C$DW$177, DW_AT_TI_call
    4177 00000660 FCE4F7FF          BL        SearchStart           ; [DPU_3_PIPE] |487|  ; [KEEP 32-BIT INS]
    4178                            ; CALL OCCURS {SearchStart }     ; [] |487| 
    4179                            .dwpsn  file "../esp8266.c",line 488,column 3,is_stmt,isa 1
    4180                    ;----------------------------------------------------------------------
    4181                    ; 488 | while(try){                                                            
    4182                    ;----------------------------------------------------------------------
    4183 00000664 9800              LDR       A1, [SP, #0]          ; [DPU_3_PIPE] |488|  ; [ORIG 16-BIT INS]
    4184 00000666 B188              CBZ       A1, ||$C$L64||        ; []  ; [ORIG 16-BIT INS]
    4185                            ; BRANCHCC OCCURS {||$C$L64||}   ; [] |488| 
    4186                    ;* --------------------------------------------------------------------------*
    4187                    ;*   BEGIN LOOP ||$C$L62||
    4188                    ;*
    4189                    ;*   Loop source line                : 488
    4190                    ;*   Loop closing brace source line  : 493
    4191                    ;*   Known Minimum Trip Count        : 1
    4192                    ;*   Known Maximum Trip Count        : 4294967295
    4193                    ;*   Known Max Trip Count Factor     : 1
    4194                    ;* --------------------------------------------------------------------------*
    4195 00000668           ||$C$L62||:    
TI ARM Assembler PC v5.2.4 Sat Feb 06 22:51:21 2016

Tools Copyright (c) 1996-2015 Texas Instruments Incorporated
esp8266.asm                                                          PAGE   78

    4196                            .dwpsn  file "../esp8266.c",line 489,column 5,is_stmt,isa 1
    4197                    ;----------------------------------------------------------------------
    4198                    ; 489 | ESP8266SendCommand("AT+CWQAP\r\n");                                    
    4199                    ;----------------------------------------------------------------------
    4200 00000668 A0B0              ADR       A1, $C$SL20           ; [DPU_3_PIPE] |489|  ; [ORIG 16-BIT INS]
    4201                    $C$DW$178       .dwtag  DW_TAG_TI_branch
    4202                            .dwattr $C$DW$178, DW_AT_low_pc(0x00)
    4203                            .dwattr $C$DW$178, DW_AT_name("ESP8266SendCommand")
    4204                            .dwattr $C$DW$178, DW_AT_TI_call
    4205 0000066a FE4BF7FF          BL        ESP8266SendCommand    ; [DPU_3_PIPE] |489|  ; [KEEP 32-BIT INS]
    4206                            ; CALL OCCURS {ESP8266SendCommand }  ; [] |489| 
    4207                            .dwpsn  file "../esp8266.c",line 490,column 5,is_stmt,isa 1
    4208                    ;----------------------------------------------------------------------
    4209                    ; 490 | DelayMsSearching(8000);                                                
    4210                    ;----------------------------------------------------------------------
    4211 0000066e 50FAF44F          MOV       A1, #8000             ; [DPU_3_PIPE] |490|  ; [KEEP 32-BIT INS]
    4212                    $C$DW$179       .dwtag  DW_TAG_TI_branch
    4213                            .dwattr $C$DW$179, DW_AT_low_pc(0x00)
    4214                            .dwattr $C$DW$179, DW_AT_name("DelayMsSearching")
    4215                            .dwattr $C$DW$179, DW_AT_TI_call
    4216 00000672 FE85F7FF          BL        DelayMsSearching      ; [DPU_3_PIPE] |490|  ; [KEEP 32-BIT INS]
    4217                            ; CALL OCCURS {DelayMsSearching }  ; [] |490| 
    4218                            .dwpsn  file "../esp8266.c",line 491,column 5,is_stmt,isa 1
    4219                    ;----------------------------------------------------------------------
    4220                    ; 491 | if(SearchFound) return 1; // success                                   
    4221                    ;----------------------------------------------------------------------
    4222 00000676 488E              LDR       A1, $C$CON46          ; [DPU_3_PIPE] |491|  ; [ORIG 16-BIT INS]
    4223 00000678 7800              LDRB      A1, [A1, #0]          ; [DPU_3_PIPE] |491|  ; [ORIG 16-BIT INS]
    4224 0000067a B108              CBZ       A1, ||$C$L63||        ; []  ; [ORIG 16-BIT INS]
    4225                            ; BRANCHCC OCCURS {||$C$L63||}   ; [] |491| 
    4226                    ;* --------------------------------------------------------------------------*
    4227                            .dwpsn  file "../esp8266.c",line 491,column 21,is_stmt,isa 1
    4228 0000067c 2001              MOVS      A1, #1                ; [DPU_3_PIPE] |491|  ; [ORIG 16-BIT INS]
    4229 0000067e E006              B         ||$C$L65||            ; [DPU_3_PIPE] |491|  ; [ORIG 16-BIT INS]
    4230                            ; BRANCH OCCURS {||$C$L65||}     ; [] |491| 
    4231                    ;* --------------------------------------------------------------------------*
    4232 00000680           ||$C$L63||:    
    4233                            .dwpsn  file "../esp8266.c",line 492,column 5,is_stmt,isa 1
    4234                    ;----------------------------------------------------------------------
    4235                    ; 492 | try--;                                                                 
    4236                    ;----------------------------------------------------------------------
    4237 00000680 9800              LDR       A1, [SP, #0]          ; [DPU_3_PIPE] |492|  ; [ORIG 16-BIT INS]
    4238 00000682 1E40              SUBS      A1, A1, #1            ; [DPU_3_PIPE] |492|  ; [ORIG 16-BIT INS]
    4239 00000684 9000              STR       A1, [SP, #0]          ; [DPU_3_PIPE] |492|  ; [ORIG 16-BIT INS]
    4240                            .dwpsn  file "../esp8266.c",line 488,column 3,is_stmt,isa 1
    4241 00000686 9800              LDR       A1, [SP, #0]          ; [DPU_3_PIPE] |488|  ; [ORIG 16-BIT INS]
    4242 00000688 2800              CMP       A1, #0                ; [DPU_3_PIPE] |488|  ; [ORIG 16-BIT INS]
    4243 0000068a D1ED              BNE       ||$C$L62||            ; [DPU_3_PIPE] |488|  ; [ORIG 16-BIT INS]
    4244                            ; BRANCHCC OCCURS {||$C$L62||}   ; [] |488| 
    4245                    ;* --------------------------------------------------------------------------*
    4246 0000068c           ||$C$L64||:    
    4247                            .dwpsn  file "../esp8266.c",line 494,column 3,is_stmt,isa 1
    4248                    ;----------------------------------------------------------------------
    4249                    ; 494 | return 0; // fail                                                      
    4250                    ;----------------------------------------------------------------------
TI ARM Assembler PC v5.2.4 Sat Feb 06 22:51:21 2016

Tools Copyright (c) 1996-2015 Texas Instruments Incorporated
esp8266.asm                                                          PAGE   79

    4251 0000068c 2000              MOVS      A1, #0                ; [DPU_3_PIPE] |494|  ; [ORIG 16-BIT INS]
    4252                    ;* --------------------------------------------------------------------------*
    4253 0000068e           ||$C$L65||:    
    4254                            .dwpsn  file "../esp8266.c",line 495,column 1,is_stmt,isa 1
    4255                    $C$DW$180       .dwtag  DW_TAG_TI_branch
    4256                            .dwattr $C$DW$180, DW_AT_low_pc(0x00)
    4257                            .dwattr $C$DW$180, DW_AT_TI_return
    4258 0000068e BD08              POP       {A4, PC}              ; [DPU_3_PIPE]  ; [ORIG 16-BIT INS]
    4259                            .dwcfi  cfa_offset, 0
    4260                            ; BRANCH OCCURS                  ; [] 
    4261                            .dwattr $C$DW$175, DW_AT_TI_end_file("../esp8266.c")
    4262                            .dwattr $C$DW$175, DW_AT_TI_end_line(0x1ef)
    4263                            .dwattr $C$DW$175, DW_AT_TI_end_column(0x01)
    4264                            .dwendentry
    4265                            .dwendtag $C$DW$175
    4266                    
    4267                    ;******************************************************************************
    4268                    ;* STRINGS                                                                    *
    4269                    ;******************************************************************************
    4270 00000690                   .sect   ".text"
    4271                            .align  4
    4272 00000690 45        ||$C$SL3||:     .string "ESP8266 Initialization:",10,13,0
         00000691 53       
         00000692 50       
         00000693 38       
         00000694 32       
         00000695 36       
         00000696 36       
         00000697 20       
         00000698 49       
         00000699 6E       
         0000069a 69       
         0000069b 74       
         0000069c 69       
         0000069d 61       
         0000069e 6C       
         0000069f 69       
         000006a0 7A       
         000006a1 61       
         000006a2 74       
         000006a3 69       
         000006a4 6F       
         000006a5 6E       
         000006a6 3A       
         000006a7 0A       
         000006a8 0D       
         000006a9 00       
    4273                            .align  4
    4274 000006ac 52        ||$C$SL4||:     .string "Reset failure, could not reset",10,13,0
         000006ad 65       
         000006ae 73       
         000006af 65       
         000006b0 74       
         000006b1 20       
         000006b2 66       
TI ARM Assembler PC v5.2.4 Sat Feb 06 22:51:21 2016

Tools Copyright (c) 1996-2015 Texas Instruments Incorporated
esp8266.asm                                                          PAGE   80

         000006b3 61       
         000006b4 69       
         000006b5 6C       
         000006b6 75       
         000006b7 72       
         000006b8 65       
         000006b9 2C       
         000006ba 20       
         000006bb 63       
         000006bc 6F       
         000006bd 75       
         000006be 6C       
         000006bf 64       
         000006c0 20       
         000006c1 6E       
         000006c2 6F       
         000006c3 74       
         000006c4 20       
         000006c5 72       
         000006c6 65       
         000006c7 73       
         000006c8 65       
         000006c9 74       
         000006ca 0A       
         000006cb 0D       
         000006cc 00       
    4275                            .align  4
    4276 000006d0 53        ||$C$SL5||:     .string "SetWifiMode, could not set mode",10,13,0
         000006d1 65       
         000006d2 74       
         000006d3 57       
         000006d4 69       
         000006d5 66       
         000006d6 69       
         000006d7 4D       
         000006d8 6F       
         000006d9 64       
         000006da 65       
         000006db 2C       
         000006dc 20       
         000006dd 63       
         000006de 6F       
         000006df 75       
         000006e0 6C       
         000006e1 64       
         000006e2 20       
         000006e3 6E       
         000006e4 6F       
         000006e5 74       
         000006e6 20       
         000006e7 73       
         000006e8 65       
         000006e9 74       
         000006ea 20       
         000006eb 6D       
TI ARM Assembler PC v5.2.4 Sat Feb 06 22:51:21 2016

Tools Copyright (c) 1996-2015 Texas Instruments Incorporated
esp8266.asm                                                          PAGE   81

         000006ec 6F       
         000006ed 64       
         000006ee 65       
         000006ef 0A       
         000006f0 0D       
         000006f1 00       
    4277                            .align  4
    4278 000006f4 56        ||$C$SL6||:     .string "ValvanoAP",0
         000006f5 61       
         000006f6 6C       
         000006f7 76       
         000006f8 61       
         000006f9 6E       
         000006fa 6F       
         000006fb 41       
         000006fc 50       
         000006fd 00       
    4279                            .align  4
    4280 00000700 31        ||$C$SL7||:     .string "12345678",0
         00000701 32       
         00000702 33       
         00000703 34       
         00000704 35       
         00000705 36       
         00000706 37       
         00000707 38       
         00000708 00       
    4281                            .align  4
    4282 0000070c 4A        ||$C$SL8||:     .string "JoinAccessPoint error, could not join AP",10,13,0
         0000070d 6F       
         0000070e 69       
         0000070f 6E       
         00000710 41       
         00000711 63       
         00000712 63       
         00000713 65       
         00000714 73       
         00000715 73       
         00000716 50       
         00000717 6F       
         00000718 69       
         00000719 6E       
         0000071a 74       
         0000071b 20       
         0000071c 65       
         0000071d 72       
         0000071e 72       
         0000071f 6F       
         00000720 72       
         00000721 2C       
         00000722 20       
         00000723 63       
         00000724 6F       
         00000725 75       
         00000726 6C       
TI ARM Assembler PC v5.2.4 Sat Feb 06 22:51:21 2016

Tools Copyright (c) 1996-2015 Texas Instruments Incorporated
esp8266.asm                                                          PAGE   82

         00000727 64       
         00000728 20       
         00000729 6E       
         0000072a 6F       
         0000072b 74       
         0000072c 20       
         0000072d 6A       
         0000072e 6F       
         0000072f 69       
         00000730 6E       
         00000731 20       
         00000732 41       
         00000733 50       
         00000734 0A       
         00000735 0D       
         00000736 00       
    4283                            .align  4
    4284 00000738 47        ||$C$SL9||:     .string "GetIPAddress error, could not get IP address",10,13,0
         00000739 65       
         0000073a 74       
         0000073b 49       
         0000073c 50       
         0000073d 41       
         0000073e 64       
         0000073f 64       
         00000740 72       
         00000741 65       
         00000742 73       
         00000743 73       
         00000744 20       
         00000745 65       
         00000746 72       
         00000747 72       
         00000748 6F       
         00000749 72       
         0000074a 2C       
         0000074b 20       
         0000074c 63       
         0000074d 6F       
         0000074e 75       
         0000074f 6C       
         00000750 64       
         00000751 20       
         00000752 6E       
         00000753 6F       
         00000754 74       
         00000755 20       
         00000756 67       
         00000757 65       
         00000758 74       
         00000759 20       
         0000075a 49       
         0000075b 50       
         0000075c 20       
         0000075d 61       
TI ARM Assembler PC v5.2.4 Sat Feb 06 22:51:21 2016

Tools Copyright (c) 1996-2015 Texas Instruments Incorporated
esp8266.asm                                                          PAGE   83

         0000075e 64       
         0000075f 64       
         00000760 72       
         00000761 65       
         00000762 73       
         00000763 73       
         00000764 0A       
         00000765 0D       
         00000766 00       
    4285                            .align  4
    4286 00000768 4C        ||$C$SL10||:    .string "ListAccessPoints, could not list access points",10,13,0
         00000769 69       
         0000076a 73       
         0000076b 74       
         0000076c 41       
         0000076d 63       
         0000076e 63       
         0000076f 65       
         00000770 73       
         00000771 73       
         00000772 50       
         00000773 6F       
         00000774 69       
         00000775 6E       
         00000776 74       
         00000777 73       
         00000778 2C       
         00000779 20       
         0000077a 63       
         0000077b 6F       
         0000077c 75       
         0000077d 6C       
         0000077e 64       
         0000077f 20       
         00000780 6E       
         00000781 6F       
         00000782 74       
         00000783 20       
         00000784 6C       
         00000785 69       
         00000786 73       
         00000787 74       
         00000788 20       
         00000789 61       
         0000078a 63       
         0000078b 63       
         0000078c 65       
         0000078d 73       
         0000078e 73       
         0000078f 20       
         00000790 70       
         00000791 6F       
         00000792 69       
         00000793 6E       
         00000794 74       
TI ARM Assembler PC v5.2.4 Sat Feb 06 22:51:21 2016

Tools Copyright (c) 1996-2015 Texas Instruments Incorporated
esp8266.asm                                                          PAGE   84

         00000795 73       
         00000796 0A       
         00000797 0D       
         00000798 00       
    4287                            .align  4
    4288 0000079c 53        ||$C$SL11||:    .string "SetDataTransmissionMode, could not make connection",10,13,0
         0000079d 65       
         0000079e 74       
         0000079f 44       
         000007a0 61       
         000007a1 74       
         000007a2 61       
         000007a3 54       
         000007a4 72       
         000007a5 61       
         000007a6 6E       
         000007a7 73       
         000007a8 6D       
         000007a9 69       
         000007aa 73       
         000007ab 73       
         000007ac 69       
         000007ad 6F       
         000007ae 6E       
         000007af 4D       
         000007b0 6F       
         000007b1 64       
         000007b2 65       
         000007b3 2C       
         000007b4 20       
         000007b5 63       
         000007b6 6F       
         000007b7 75       
         000007b8 6C       
         000007b9 64       
         000007ba 20       
         000007bb 6E       
         000007bc 6F       
         000007bd 74       
         000007be 20       
         000007bf 6D       
         000007c0 61       
         000007c1 6B       
         000007c2 65       
         000007c3 20       
         000007c4 63       
         000007c5 6F       
         000007c6 6E       
         000007c7 6E       
         000007c8 65       
         000007c9 63       
         000007ca 74       
         000007cb 69       
         000007cc 6F       
         000007cd 6E       
TI ARM Assembler PC v5.2.4 Sat Feb 06 22:51:21 2016

Tools Copyright (c) 1996-2015 Texas Instruments Incorporated
esp8266.asm                                                          PAGE   85

         000007ce 0A       
         000007cf 0D       
         000007d0 00       
    4289                            .align  4
    4290 000007d4 72        ||$C$SL12||:    .string "ready",0
         000007d5 65       
         000007d6 61       
         000007d7 64       
         000007d8 79       
         000007d9 00       
    4291                            .align  4
    4292 000007dc 41        ||$C$SL13||:    .string "AT+RST",13,10,0
         000007dd 54       
         000007de 2B       
         000007df 52       
         000007e0 53       
         000007e1 54       
         000007e2 0D       
         000007e3 0A       
         000007e4 00       
    4293                            .align  4
    4294 000007e8 6E        ||$C$SL14||:    .string "no change",0
         000007e9 6F       
         000007ea 20       
         000007eb 63       
         000007ec 68       
         000007ed 61       
         000007ee 6E       
         000007ef 67       
         000007f0 65       
         000007f1 00       
    4295                            .align  4
    4296 000007f4 41        ||$C$SL15||:    .string "AT+CWMODE=%d",13,10,0
         000007f5 54       
         000007f6 2B       
         000007f7 43       
         000007f8 57       
         000007f9 4D       
         000007fa 4F       
         000007fb 44       
         000007fc 45       
         000007fd 3D       
         000007fe 25       
         000007ff 64       
         00000800 0D       
         00000801 0A       
         00000802 00       
    4297 00000803                   .sect   ".text"
    4298                            .clink
    4299                            .thumbfunc ESP8266_ConfigureAccessPoint
    4300 00000804                   .thumb
    4301                            .global ESP8266_ConfigureAccessPoint
    4302                    
    4303                    $C$DW$181       .dwtag  DW_TAG_subprogram, DW_AT_name("ESP8266_ConfigureAccessPoint")
    4304                            .dwattr $C$DW$181, DW_AT_low_pc(ESP8266_ConfigureAccessPoint)
TI ARM Assembler PC v5.2.4 Sat Feb 06 22:51:21 2016

Tools Copyright (c) 1996-2015 Texas Instruments Incorporated
esp8266.asm                                                          PAGE   86

    4305                            .dwattr $C$DW$181, DW_AT_high_pc(0x00)
    4306                            .dwattr $C$DW$181, DW_AT_TI_symbol_name("ESP8266_ConfigureAccessPoint")
    4307                            .dwattr $C$DW$181, DW_AT_external
    4308                            .dwattr $C$DW$181, DW_AT_type(*$C$DW$T$10)
    4309                            .dwattr $C$DW$181, DW_AT_TI_begin_file("../esp8266.c")
    4310                            .dwattr $C$DW$181, DW_AT_TI_begin_line(0x1f6)
    4311                            .dwattr $C$DW$181, DW_AT_TI_begin_column(0x05)
    4312                            .dwattr $C$DW$181, DW_AT_decl_file("../esp8266.c")
    4313                            .dwattr $C$DW$181, DW_AT_decl_line(0x1f6)
    4314                            .dwattr $C$DW$181, DW_AT_decl_column(0x05)
    4315                            .dwattr $C$DW$181, DW_AT_TI_max_frame_size(0x20)
    4316                            .dwpsn  file "../esp8266.c",line 502,column 111,is_stmt,address ESP8266_ConfigureAccessPoint,i
    4317                    
    4318                            .dwfde $C$DW$CIE, ESP8266_ConfigureAccessPoint
    4319                    $C$DW$182       .dwtag  DW_TAG_formal_parameter, DW_AT_name("ssid")
    4320                            .dwattr $C$DW$182, DW_AT_TI_symbol_name("ssid")
    4321                            .dwattr $C$DW$182, DW_AT_type(*$C$DW$T$42)
    4322                            .dwattr $C$DW$182, DW_AT_location[DW_OP_reg0]
    4323                    $C$DW$183       .dwtag  DW_TAG_formal_parameter, DW_AT_name("password")
    4324                            .dwattr $C$DW$183, DW_AT_TI_symbol_name("password")
    4325                            .dwattr $C$DW$183, DW_AT_type(*$C$DW$T$42)
    4326                            .dwattr $C$DW$183, DW_AT_location[DW_OP_reg1]
    4327                    $C$DW$184       .dwtag  DW_TAG_formal_parameter, DW_AT_name("channel")
    4328                            .dwattr $C$DW$184, DW_AT_TI_symbol_name("channel")
    4329                            .dwattr $C$DW$184, DW_AT_type(*$C$DW$T$53)
    4330                            .dwattr $C$DW$184, DW_AT_location[DW_OP_reg2]
    4331                    $C$DW$185       .dwtag  DW_TAG_formal_parameter, DW_AT_name("encryptMode")
    4332                            .dwattr $C$DW$185, DW_AT_TI_symbol_name("encryptMode")
    4333                            .dwattr $C$DW$185, DW_AT_type(*$C$DW$T$53)
    4334                            .dwattr $C$DW$185, DW_AT_location[DW_OP_reg3]
    4335                    
    4336                    ;*****************************************************************************
    4337                    ;* FUNCTION NAME: ESP8266_ConfigureAccessPoint                               *
    4338                    ;*                                                                           *
    4339                    ;*   Regs Modified     : A1,A2,A3,A4,V9,SP,LR,SR,D0,D0_hi,D1,D1_hi,D2,D2_hi, *
    4340                    ;*                           D3,D3_hi,D4,D4_hi,D5,D5_hi,D6,D6_hi,D7,D7_hi,   *
    4341                    ;*                           FPEXC,FPSCR                                     *
    4342                    ;*   Regs Used         : A1,A2,A3,A4,V9,SP,LR,SR,D0,D0_hi,D1,D1_hi,D2,D2_hi, *
    4343                    ;*                           D3,D3_hi,D4,D4_hi,D5,D5_hi,D6,D6_hi,D7,D7_hi,   *
    4344                    ;*                           FPEXC,FPSCR                                     *
    4345                    ;*   Local Frame Size  : 8 Args + 16 Auto + 4 Save = 28 byte                 *
    4346                    ;*****************************************************************************
    4347 00000804           ESP8266_ConfigureAccessPoint:
    4348                    ;* --------------------------------------------------------------------------*
    4349                            .dwcfi  cfa_offset, 0
    4350 00000804 B500              PUSH      {LR}                  ; [DPU_3_PIPE]  ; [ORIG 16-BIT INS]
    4351                            .dwcfi  cfa_offset, 4
    4352                            .dwcfi  save_reg_to_mem, 14, -4
    4353 00000806 0D1CF1AD          SUB       SP, SP, #28           ; [DPU_3_PIPE]  ; [KEEP 32-BIT INS]
    4354                            .dwcfi  cfa_offset, 32
    4355                    $C$DW$186       .dwtag  DW_TAG_variable, DW_AT_name("ssid")
    4356                            .dwattr $C$DW$186, DW_AT_TI_symbol_name("ssid")
    4357                            .dwattr $C$DW$186, DW_AT_type(*$C$DW$T$42)
    4358                            .dwattr $C$DW$186, DW_AT_location[DW_OP_breg13 8]
    4359                    $C$DW$187       .dwtag  DW_TAG_variable, DW_AT_name("password")
TI ARM Assembler PC v5.2.4 Sat Feb 06 22:51:21 2016

Tools Copyright (c) 1996-2015 Texas Instruments Incorporated
esp8266.asm                                                          PAGE   87

    4360                            .dwattr $C$DW$187, DW_AT_TI_symbol_name("password")
    4361                            .dwattr $C$DW$187, DW_AT_type(*$C$DW$T$42)
    4362                            .dwattr $C$DW$187, DW_AT_location[DW_OP_breg13 12]
    4363                    $C$DW$188       .dwtag  DW_TAG_variable, DW_AT_name("channel")
    4364                            .dwattr $C$DW$188, DW_AT_TI_symbol_name("channel")
    4365                            .dwattr $C$DW$188, DW_AT_type(*$C$DW$T$53)
    4366                            .dwattr $C$DW$188, DW_AT_location[DW_OP_breg13 16]
    4367                    $C$DW$189       .dwtag  DW_TAG_variable, DW_AT_name("encryptMode")
    4368                            .dwattr $C$DW$189, DW_AT_TI_symbol_name("encryptMode")
    4369                            .dwattr $C$DW$189, DW_AT_type(*$C$DW$T$53)
    4370                            .dwattr $C$DW$189, DW_AT_location[DW_OP_breg13 17]
    4371                    $C$DW$190       .dwtag  DW_TAG_variable, DW_AT_name("try")
    4372                            .dwattr $C$DW$190, DW_AT_TI_symbol_name("try")
    4373                            .dwattr $C$DW$190, DW_AT_type(*$C$DW$T$10)
    4374                            .dwattr $C$DW$190, DW_AT_location[DW_OP_breg13 20]
    4375                    ;----------------------------------------------------------------------
    4376                    ; 502 | int ESP8266_ConfigureAccessPoint(const char* ssid, const char* password
    4377                    ;     | , uint8_t channel, uint8_t encryptMode){                               
    4378                    ;----------------------------------------------------------------------
    4379 0000080a 3011F88D          STRB      A4, [SP, #17]         ; [DPU_3_PIPE] |502|  ; [KEEP 32-BIT INS]
    4380 0000080e 2010F88D          STRB      A3, [SP, #16]         ; [DPU_3_PIPE] |502|  ; [KEEP 32-BIT INS]
    4381 00000812 9103              STR       A2, [SP, #12]         ; [DPU_3_PIPE] |502|  ; [ORIG 16-BIT INS]
    4382 00000814 9002              STR       A1, [SP, #8]          ; [DPU_3_PIPE] |502|  ; [ORIG 16-BIT INS]
    4383                            .dwpsn  file "../esp8266.c",line 503,column 10,is_stmt,isa 1
    4384                    ;----------------------------------------------------------------------
    4385                    ; 503 | int try=MAXTRY;                                                        
    4386                    ;----------------------------------------------------------------------
    4387 00000816 200A              MOVS      A1, #10               ; [DPU_3_PIPE] |503|  ; [ORIG 16-BIT INS]
    4388 00000818 9005              STR       A1, [SP, #20]         ; [DPU_3_PIPE] |503|  ; [ORIG 16-BIT INS]
    4389                            .dwpsn  file "../esp8266.c",line 504,column 3,is_stmt,isa 1
    4390                    ;----------------------------------------------------------------------
    4391                    ; 504 | SearchStart("ok");                                                     
    4392                    ;----------------------------------------------------------------------
    4393 0000081a A015              ADR       A1, $C$SL16           ; [DPU_3_PIPE] |504|  ; [ORIG 16-BIT INS]
    4394                    $C$DW$191       .dwtag  DW_TAG_TI_branch
    4395                            .dwattr $C$DW$191, DW_AT_low_pc(0x00)
    4396                            .dwattr $C$DW$191, DW_AT_name("SearchStart")
    4397                            .dwattr $C$DW$191, DW_AT_TI_call
    4398 0000081c FC06F7FF          BL        SearchStart           ; [DPU_3_PIPE] |504|  ; [KEEP 32-BIT INS]
    4399                            ; CALL OCCURS {SearchStart }     ; [] |504| 
    4400                            .dwpsn  file "../esp8266.c",line 505,column 3,is_stmt,isa 1
    4401                    ;----------------------------------------------------------------------
    4402                    ; 505 | while(try){                                                            
    4403                    ;----------------------------------------------------------------------
    4404 00000820 9805              LDR       A1, [SP, #20]         ; [DPU_3_PIPE] |505|  ; [ORIG 16-BIT INS]
    4405 00000822 B308              CBZ       A1, ||$C$L69||        ; []  ; [ORIG 16-BIT INS]
    4406                            ; BRANCHCC OCCURS {||$C$L69||}   ; [] |505| 
    4407                    ;* --------------------------------------------------------------------------*
    4408                    ;*   BEGIN LOOP ||$C$L66||
    4409                    ;*
    4410                    ;*   Loop source line                : 505
    4411                    ;*   Loop closing brace source line  : 511
    4412                    ;*   Known Minimum Trip Count        : 1
    4413                    ;*   Known Maximum Trip Count        : 4294967295
    4414                    ;*   Known Max Trip Count Factor     : 1
TI ARM Assembler PC v5.2.4 Sat Feb 06 22:51:21 2016

Tools Copyright (c) 1996-2015 Texas Instruments Incorporated
esp8266.asm                                                          PAGE   88

    4415                    ;* --------------------------------------------------------------------------*
    4416 00000824           ||$C$L66||:    
    4417                            .dwpsn  file "../esp8266.c",line 506,column 5,is_stmt,isa 1
    4418                    ;----------------------------------------------------------------------
    4419                    ; 506 | sprintf((char*)TXBuffer, "AT+CWSAP=\"%s\",\"%s\",%d,%d\r\n", ssid, pass
    4420                    ;     | word, channel, encryptMode);                                           
    4421                    ;----------------------------------------------------------------------
    4422 00000824 0010F89D          LDRB      A1, [SP, #16]         ; [] |506|  ; [KEEP 32-BIT INS]
    4423 00000828 9000              STR       A1, [SP, #0]          ; [] |506|  ; [ORIG 16-BIT INS]
    4424 0000082a 0011F89D          LDRB      A1, [SP, #17]         ; [] |506|  ; [KEEP 32-BIT INS]
    4425 0000082e 9001              STR       A1, [SP, #4]          ; [] |506|  ; [ORIG 16-BIT INS]
    4426 00000830 4803              LDR       A1, $C$CON45          ; [] |506|  ; [ORIG 16-BIT INS]
    4427 00000832 9A02              LDR       A3, [SP, #8]          ; [] |506|  ; [ORIG 16-BIT INS]
    4428 00000834 9B03              LDR       A4, [SP, #12]         ; [] |506|  ; [ORIG 16-BIT INS]
    4429 00000836 A1A1              ADR       A2, $C$SL21           ; [] |506|  ; [ORIG 16-BIT INS]
    4430                    $C$DW$192       .dwtag  DW_TAG_TI_branch
    4431                            .dwattr $C$DW$192, DW_AT_low_pc(0x00)
    4432                            .dwattr $C$DW$192, DW_AT_name("sprintf")
    4433                            .dwattr $C$DW$192, DW_AT_TI_call
    4434 00000838 FFFEF7FF!         BL        sprintf               ; [] |506|  ; [KEEP 32-BIT INS]
    4435                            ; CALL OCCURS {sprintf }         ; [] |506| 
    4436 0000083c E002              B         ||$C$L67||            ; []  ; [ORIG 16-BIT INS]
    4437                            ; BRANCH OCCURS {||$C$L67||}     ; [] 
    4438                            .dwpsn  file "../esp8266.c",line 507,column 5,is_stmt,isa 1
    4439                    ;----------------------------------------------------------------------
    4440                    ; 507 | ESP8266SendCommand((const char*)TXBuffer);                             
    4441                    ;----------------------------------------------------------------------
    4442                    ;******************************************************************************
    4443                    ;* CONSTANT TABLE                                                             *
    4444                    ;******************************************************************************
    4445 0000083e                   .sect   ".text"
    4446                            .align  4
    4447 0000083e 000046C0! ||$C$CON45||:   .bits   TXBuffer,32
         00000842 00000000 
    4448                    ;* --------------------------------------------------------------------------*
    4449 00000844           ||$C$L67||:    
    4450 00000844 4884              LDR       A1, $C$CON47          ; [] |507|  ; [ORIG 16-BIT INS]
    4451                    $C$DW$193       .dwtag  DW_TAG_TI_branch
    4452                            .dwattr $C$DW$193, DW_AT_low_pc(0x00)
    4453                            .dwattr $C$DW$193, DW_AT_name("ESP8266SendCommand")
    4454                            .dwattr $C$DW$193, DW_AT_TI_call
    4455 00000846 FD5DF7FF          BL        ESP8266SendCommand    ; [] |507|  ; [KEEP 32-BIT INS]
    4456                            ; CALL OCCURS {ESP8266SendCommand }  ; [] |507| 
    4457                            .dwpsn  file "../esp8266.c",line 508,column 5,is_stmt,isa 1
    4458                    ;----------------------------------------------------------------------
    4459                    ; 508 | DelayMsSearching(4000);                                                
    4460                    ;----------------------------------------------------------------------
    4461 0000084a 607AF44F          MOV       A1, #4000             ; [] |508|  ; [KEEP 32-BIT INS]
    4462                    $C$DW$194       .dwtag  DW_TAG_TI_branch
    4463                            .dwattr $C$DW$194, DW_AT_low_pc(0x00)
    4464                            .dwattr $C$DW$194, DW_AT_name("DelayMsSearching")
    4465                            .dwattr $C$DW$194, DW_AT_TI_call
    4466 0000084e FD97F7FF          BL        DelayMsSearching      ; [] |508|  ; [KEEP 32-BIT INS]
    4467                            ; CALL OCCURS {DelayMsSearching }  ; [] |508| 
    4468                            .dwpsn  file "../esp8266.c",line 509,column 5,is_stmt,isa 1
TI ARM Assembler PC v5.2.4 Sat Feb 06 22:51:21 2016

Tools Copyright (c) 1996-2015 Texas Instruments Incorporated
esp8266.asm                                                          PAGE   89

    4469                    ;----------------------------------------------------------------------
    4470                    ; 509 | if(SearchFound) return 1; // success                                   
    4471                    ;----------------------------------------------------------------------
    4472 00000852 4817              LDR       A1, $C$CON46          ; [] |509|  ; [ORIG 16-BIT INS]
    4473 00000854 7800              LDRB      A1, [A1, #0]          ; [] |509|  ; [ORIG 16-BIT INS]
    4474 00000856 B108              CBZ       A1, ||$C$L68||        ; []  ; [ORIG 16-BIT INS]
    4475                            ; BRANCHCC OCCURS {||$C$L68||}   ; [] |509| 
    4476                    ;* --------------------------------------------------------------------------*
    4477                            .dwpsn  file "../esp8266.c",line 509,column 21,is_stmt,isa 1
    4478 00000858 2001              MOVS      A1, #1                ; [DPU_3_PIPE] |509|  ; [ORIG 16-BIT INS]
    4479 0000085a E006              B         ||$C$L70||            ; [DPU_3_PIPE] |509|  ; [ORIG 16-BIT INS]
    4480                            ; BRANCH OCCURS {||$C$L70||}     ; [] |509| 
    4481                    ;* --------------------------------------------------------------------------*
    4482 0000085c           ||$C$L68||:    
    4483                            .dwpsn  file "../esp8266.c",line 510,column 5,is_stmt,isa 1
    4484                    ;----------------------------------------------------------------------
    4485                    ; 510 | try--;                                                                 
    4486                    ;----------------------------------------------------------------------
    4487 0000085c 9805              LDR       A1, [SP, #20]         ; [DPU_3_PIPE] |510|  ; [ORIG 16-BIT INS]
    4488 0000085e 1E40              SUBS      A1, A1, #1            ; [DPU_3_PIPE] |510|  ; [ORIG 16-BIT INS]
    4489 00000860 9005              STR       A1, [SP, #20]         ; [DPU_3_PIPE] |510|  ; [ORIG 16-BIT INS]
    4490                            .dwpsn  file "../esp8266.c",line 505,column 3,is_stmt,isa 1
    4491 00000862 9805              LDR       A1, [SP, #20]         ; [DPU_3_PIPE] |505|  ; [ORIG 16-BIT INS]
    4492 00000864 2800              CMP       A1, #0                ; [DPU_3_PIPE] |505|  ; [ORIG 16-BIT INS]
    4493 00000866 D1DD              BNE       ||$C$L66||            ; [DPU_3_PIPE] |505|  ; [ORIG 16-BIT INS]
    4494                            ; BRANCHCC OCCURS {||$C$L66||}   ; [] |505| 
    4495                    ;* --------------------------------------------------------------------------*
    4496 00000868           ||$C$L69||:    
    4497                            .dwpsn  file "../esp8266.c",line 512,column 3,is_stmt,isa 1
    4498                    ;----------------------------------------------------------------------
    4499                    ; 512 | return 0; // fail                                                      
    4500                    ;----------------------------------------------------------------------
    4501 00000868 2000              MOVS      A1, #0                ; [DPU_3_PIPE] |512|  ; [ORIG 16-BIT INS]
    4502                    ;* --------------------------------------------------------------------------*
    4503 0000086a           ||$C$L70||:    
    4504                            .dwpsn  file "../esp8266.c",line 513,column 1,is_stmt,isa 1
    4505 0000086a B007              ADD       SP, SP, #28           ; [DPU_3_PIPE]  ; [ORIG 16-BIT INS]
    4506                            .dwcfi  cfa_offset, 4
    4507                    $C$DW$195       .dwtag  DW_TAG_TI_branch
    4508                            .dwattr $C$DW$195, DW_AT_low_pc(0x00)
    4509                            .dwattr $C$DW$195, DW_AT_TI_return
    4510 0000086c BD00              POP       {PC}                  ; [DPU_3_PIPE]  ; [ORIG 16-BIT INS]
    4511                            .dwcfi  cfa_offset, 0
    4512                            ; BRANCH OCCURS                  ; [] 
    4513                            .dwattr $C$DW$181, DW_AT_TI_end_file("../esp8266.c")
    4514                            .dwattr $C$DW$181, DW_AT_TI_end_line(0x201)
    4515                            .dwattr $C$DW$181, DW_AT_TI_end_column(0x01)
    4516                            .dwendentry
    4517                            .dwendtag $C$DW$181
    4518                    
    4519                    ;******************************************************************************
    4520                    ;* STRINGS                                                                    *
    4521                    ;******************************************************************************
    4522 0000086e                   .sect   ".text"
    4523                            .align  4
TI ARM Assembler PC v5.2.4 Sat Feb 06 22:51:21 2016

Tools Copyright (c) 1996-2015 Texas Instruments Incorporated
esp8266.asm                                                          PAGE   90

    4524 00000870 6F        ||$C$SL16||:    .string "ok",0
         00000871 6B       
         00000872 00       
    4525                            .align  4
    4526 00000874 41        ||$C$SL17||:    .string "AT+CIPMUX=%d",13,10,0
         00000875 54       
         00000876 2B       
         00000877 43       
         00000878 49       
         00000879 50       
         0000087a 4D       
         0000087b 55       
         0000087c 58       
         0000087d 3D       
         0000087e 25       
         0000087f 64       
         00000880 0D       
         00000881 0A       
         00000882 00       
    4527 00000883                   .sect   ".text"
    4528                            .clink
    4529                            .thumbfunc ESP8266_GetIPAddress
    4530 00000884                   .thumb
    4531                            .global ESP8266_GetIPAddress
    4532                    
    4533                    $C$DW$196       .dwtag  DW_TAG_subprogram, DW_AT_name("ESP8266_GetIPAddress")
    4534                            .dwattr $C$DW$196, DW_AT_low_pc(ESP8266_GetIPAddress)
    4535                            .dwattr $C$DW$196, DW_AT_high_pc(0x00)
    4536                            .dwattr $C$DW$196, DW_AT_TI_symbol_name("ESP8266_GetIPAddress")
    4537                            .dwattr $C$DW$196, DW_AT_external
    4538                            .dwattr $C$DW$196, DW_AT_type(*$C$DW$T$10)
    4539                            .dwattr $C$DW$196, DW_AT_TI_begin_file("../esp8266.c")
    4540                            .dwattr $C$DW$196, DW_AT_TI_begin_line(0x207)
    4541                            .dwattr $C$DW$196, DW_AT_TI_begin_column(0x05)
    4542                            .dwattr $C$DW$196, DW_AT_decl_file("../esp8266.c")
    4543                            .dwattr $C$DW$196, DW_AT_decl_line(0x207)
    4544                            .dwattr $C$DW$196, DW_AT_decl_column(0x05)
    4545                            .dwattr $C$DW$196, DW_AT_TI_max_frame_size(0x08)
    4546                            .dwpsn  file "../esp8266.c",line 519,column 31,is_stmt,address ESP8266_GetIPAddress,isa 1
    4547                    
    4548                            .dwfde $C$DW$CIE, ESP8266_GetIPAddress
    4549                    ;----------------------------------------------------------------------
    4550                    ; 519 | int ESP8266_GetIPAddress(void){                                        
    4551                    ;----------------------------------------------------------------------
    4552                    
    4553                    ;*****************************************************************************
    4554                    ;* FUNCTION NAME: ESP8266_GetIPAddress                                       *
    4555                    ;*                                                                           *
    4556                    ;*   Regs Modified     : A1,A2,A3,A4,V9,SP,LR,SR,D0,D0_hi,D1,D1_hi,D2,D2_hi, *
    4557                    ;*                           D3,D3_hi,D4,D4_hi,D5,D5_hi,D6,D6_hi,D7,D7_hi,   *
    4558                    ;*                           FPEXC,FPSCR                                     *
    4559                    ;*   Regs Used         : A1,A2,A3,A4,V9,SP,LR,SR,D0,D0_hi,D1,D1_hi,D2,D2_hi, *
    4560                    ;*                           D3,D3_hi,D4,D4_hi,D5,D5_hi,D6,D6_hi,D7,D7_hi,   *
    4561                    ;*                           FPEXC,FPSCR                                     *
    4562                    ;*   Local Frame Size  : 0 Args + 4 Auto + 4 Save = 8 byte                   *
TI ARM Assembler PC v5.2.4 Sat Feb 06 22:51:21 2016

Tools Copyright (c) 1996-2015 Texas Instruments Incorporated
esp8266.asm                                                          PAGE   91

    4563                    ;*****************************************************************************
    4564 00000884           ESP8266_GetIPAddress:
    4565                    ;* --------------------------------------------------------------------------*
    4566                            .dwcfi  cfa_offset, 0
    4567 00000884 B508              PUSH      {A4, LR}              ; [DPU_3_PIPE]  ; [ORIG 16-BIT INS]
    4568                            .dwcfi  cfa_offset, 8
    4569                            .dwcfi  save_reg_to_mem, 14, -4
    4570                            .dwcfi  save_reg_to_mem, 3, -8
    4571                    $C$DW$197       .dwtag  DW_TAG_variable, DW_AT_name("try")
    4572                            .dwattr $C$DW$197, DW_AT_TI_symbol_name("try")
    4573                            .dwattr $C$DW$197, DW_AT_type(*$C$DW$T$10)
    4574                            .dwattr $C$DW$197, DW_AT_location[DW_OP_breg13 0]
    4575                            .dwpsn  file "../esp8266.c",line 520,column 10,is_stmt,isa 1
    4576                    ;----------------------------------------------------------------------
    4577                    ; 520 | int try=MAXTRY;                                                        
    4578                    ;----------------------------------------------------------------------
    4579 00000886 200A              MOVS      A1, #10               ; [DPU_3_PIPE] |520|  ; [ORIG 16-BIT INS]
    4580 00000888 9000              STR       A1, [SP, #0]          ; [DPU_3_PIPE] |520|  ; [ORIG 16-BIT INS]
    4581                            .dwpsn  file "../esp8266.c",line 521,column 3,is_stmt,isa 1
    4582                    ;----------------------------------------------------------------------
    4583                    ; 521 | SearchStart("ok");                                                     
    4584                    ;----------------------------------------------------------------------
    4585 0000088a 4882              LDR       A1, $C$CON48          ; [] |521|  ; [ORIG 16-BIT INS]
    4586                    $C$DW$198       .dwtag  DW_TAG_TI_branch
    4587                            .dwattr $C$DW$198, DW_AT_low_pc(0x00)
    4588                            .dwattr $C$DW$198, DW_AT_name("SearchStart")
    4589                            .dwattr $C$DW$198, DW_AT_TI_call
    4590 0000088c FBCEF7FF          BL        SearchStart           ; [DPU_3_PIPE] |521|  ; [KEEP 32-BIT INS]
    4591                            ; CALL OCCURS {SearchStart }     ; [] |521| 
    4592                            .dwpsn  file "../esp8266.c",line 522,column 3,is_stmt,isa 1
    4593                    ;----------------------------------------------------------------------
    4594                    ; 522 | while(try){                                                            
    4595                    ;----------------------------------------------------------------------
    4596 00000890 9800              LDR       A1, [SP, #0]          ; [DPU_3_PIPE] |522|  ; [ORIG 16-BIT INS]
    4597 00000892 B1A8              CBZ       A1, ||$C$L73||        ; []  ; [ORIG 16-BIT INS]
    4598                            ; BRANCHCC OCCURS {||$C$L73||}   ; [] |522| 
    4599                    ;* --------------------------------------------------------------------------*
    4600 00000894 E7FF              B         ||$C$L71||            ; []  ; [ORIG 16-BIT INS]
    4601                            ; BRANCH OCCURS {||$C$L71||}     ; [] 
    4602                    ;* --------------------------------------------------------------------------*
    4603                    ;*   BEGIN LOOP ||$C$L71||
    4604                    ;*
    4605                    ;*   Loop source line                : 522
    4606                    ;*   Loop closing brace source line  : 527
    4607                    ;*   Known Minimum Trip Count        : 1
    4608                    ;*   Known Maximum Trip Count        : 4294967295
    4609                    ;*   Known Max Trip Count Factor     : 1
    4610                    ;* --------------------------------------------------------------------------*
    4611 00000896           ||$C$L71||:    
    4612                            .dwpsn  file "../esp8266.c",line 523,column 5,is_stmt,isa 1
    4613                    ;----------------------------------------------------------------------
    4614                    ; 523 | ESP8266SendCommand("AT+CIFSR\r\n");                                    
    4615                    ;----------------------------------------------------------------------
    4616 00000896 A09A              ADR       A1, $C$SL22           ; [DPU_3_PIPE] |523|  ; [ORIG 16-BIT INS]
    4617                    $C$DW$199       .dwtag  DW_TAG_TI_branch
TI ARM Assembler PC v5.2.4 Sat Feb 06 22:51:21 2016

Tools Copyright (c) 1996-2015 Texas Instruments Incorporated
esp8266.asm                                                          PAGE   92

    4618                            .dwattr $C$DW$199, DW_AT_low_pc(0x00)
    4619                            .dwattr $C$DW$199, DW_AT_name("ESP8266SendCommand")
    4620                            .dwattr $C$DW$199, DW_AT_TI_call
    4621 00000898 FD34F7FF          BL        ESP8266SendCommand    ; [DPU_3_PIPE] |523|  ; [KEEP 32-BIT INS]
    4622                            ; CALL OCCURS {ESP8266SendCommand }  ; [] |523| 
    4623                            .dwpsn  file "../esp8266.c",line 524,column 5,is_stmt,isa 1
    4624                    ;----------------------------------------------------------------------
    4625                    ; 524 | DelayMsSearching(5000);                                                
    4626                    ;----------------------------------------------------------------------
    4627 0000089c 3088F241          MOV       A1, #5000             ; [DPU_3_PIPE] |524|  ; [KEEP 32-BIT INS]
    4628                    $C$DW$200       .dwtag  DW_TAG_TI_branch
    4629                            .dwattr $C$DW$200, DW_AT_low_pc(0x00)
    4630                            .dwattr $C$DW$200, DW_AT_name("DelayMsSearching")
    4631                            .dwattr $C$DW$200, DW_AT_TI_call
    4632 000008a0 FD6EF7FF          BL        DelayMsSearching      ; [DPU_3_PIPE] |524|  ; [KEEP 32-BIT INS]
    4633                            ; CALL OCCURS {DelayMsSearching }  ; [] |524| 
    4634                            .dwpsn  file "../esp8266.c",line 525,column 5,is_stmt,isa 1
    4635                    ;----------------------------------------------------------------------
    4636                    ; 525 | if(SearchFound) return 1; // success                                   
    4637                    ;----------------------------------------------------------------------
    4638 000008a4 488C              LDR       A1, $C$CON49          ; [DPU_3_PIPE] |525|  ; [ORIG 16-BIT INS]
    4639 000008a6 7800              LDRB      A1, [A1, #0]          ; [DPU_3_PIPE] |525|  ; [ORIG 16-BIT INS]
    4640 000008a8 B120              CBZ       A1, ||$C$L72||        ; []  ; [ORIG 16-BIT INS]
    4641                            ; BRANCHCC OCCURS {||$C$L72||}   ; [] |525| 
    4642                    ;* --------------------------------------------------------------------------*
    4643                            .dwpsn  file "../esp8266.c",line 525,column 21,is_stmt,isa 1
    4644 000008aa 2001              MOVS      A1, #1                ; [DPU_3_PIPE] |525|  ; [ORIG 16-BIT INS]
    4645 000008ac E009              B         ||$C$L74||            ; [DPU_3_PIPE] |525|  ; [ORIG 16-BIT INS]
    4646                            ; BRANCH OCCURS {||$C$L74||}     ; [] |525| 
    4647                    ;******************************************************************************
    4648                    ;* CONSTANT TABLE                                                             *
    4649                    ;******************************************************************************
    4650 000008ae                   .sect   ".text"
    4651                            .align  4
    4652 000008ae 000046C0! ||$C$CON46||:   .bits   SearchFound,32
         000008b2 00000000 
    4653                    ;* --------------------------------------------------------------------------*
    4654 000008b4           ||$C$L72||:    
    4655                            .dwpsn  file "../esp8266.c",line 526,column 5,is_stmt,isa 1
    4656                    ;----------------------------------------------------------------------
    4657                    ; 526 | try--;                                                                 
    4658                    ;----------------------------------------------------------------------
    4659 000008b4 9800              LDR       A1, [SP, #0]          ; [DPU_3_PIPE] |526|  ; [ORIG 16-BIT INS]
    4660 000008b6 1E40              SUBS      A1, A1, #1            ; [DPU_3_PIPE] |526|  ; [ORIG 16-BIT INS]
    4661 000008b8 9000              STR       A1, [SP, #0]          ; [DPU_3_PIPE] |526|  ; [ORIG 16-BIT INS]
    4662                            .dwpsn  file "../esp8266.c",line 522,column 3,is_stmt,isa 1
    4663 000008ba 9800              LDR       A1, [SP, #0]          ; [DPU_3_PIPE] |522|  ; [ORIG 16-BIT INS]
    4664 000008bc 2800              CMP       A1, #0                ; [DPU_3_PIPE] |522|  ; [ORIG 16-BIT INS]
    4665 000008be D1EA              BNE       ||$C$L71||            ; [DPU_3_PIPE] |522|  ; [ORIG 16-BIT INS]
    4666                            ; BRANCHCC OCCURS {||$C$L71||}   ; [] |522| 
    4667                    ;* --------------------------------------------------------------------------*
    4668 000008c0           ||$C$L73||:    
    4669                            .dwpsn  file "../esp8266.c",line 528,column 3,is_stmt,isa 1
    4670                    ;----------------------------------------------------------------------
    4671                    ; 528 | return 0; // fail                                                      
TI ARM Assembler PC v5.2.4 Sat Feb 06 22:51:21 2016

Tools Copyright (c) 1996-2015 Texas Instruments Incorporated
esp8266.asm                                                          PAGE   93

    4672                    ;----------------------------------------------------------------------
    4673 000008c0 2000              MOVS      A1, #0                ; [DPU_3_PIPE] |528|  ; [ORIG 16-BIT INS]
    4674                    ;* --------------------------------------------------------------------------*
    4675 000008c2           ||$C$L74||:    
    4676                            .dwpsn  file "../esp8266.c",line 529,column 1,is_stmt,isa 1
    4677                    $C$DW$201       .dwtag  DW_TAG_TI_branch
    4678                            .dwattr $C$DW$201, DW_AT_low_pc(0x00)
    4679                            .dwattr $C$DW$201, DW_AT_TI_return
    4680 000008c2 BD08              POP       {A4, PC}              ; [DPU_3_PIPE]  ; [ORIG 16-BIT INS]
    4681                            .dwcfi  cfa_offset, 0
    4682                            ; BRANCH OCCURS                  ; [] 
    4683                            .dwattr $C$DW$196, DW_AT_TI_end_file("../esp8266.c")
    4684                            .dwattr $C$DW$196, DW_AT_TI_end_line(0x211)
    4685                            .dwattr $C$DW$196, DW_AT_TI_end_column(0x01)
    4686                            .dwendentry
    4687                            .dwendtag $C$DW$196
    4688                    
    4689                    ;******************************************************************************
    4690                    ;* STRINGS                                                                    *
    4691                    ;******************************************************************************
    4692 000008c4                   .sect   ".text"
    4693                            .align  4
    4694 000008c4 41        ||$C$SL18||:    .string "AT+CWJAP=",34,"%s",34,",",34,"%s",34,13,10,0
         000008c5 54       
         000008c6 2B       
         000008c7 43       
         000008c8 57       
         000008c9 4A       
         000008ca 41       
         000008cb 50       
         000008cc 3D       
         000008cd 22       
         000008ce 25       
         000008cf 73       
         000008d0 22       
         000008d1 2C       
         000008d2 22       
         000008d3 25       
         000008d4 73       
         000008d5 22       
         000008d6 0D       
         000008d7 0A       
         000008d8 00       
    4695 000008d9                   .sect   ".text"
    4696                            .clink
    4697                            .thumbfunc ESP8266_MakeTCPConnection
    4698 000008da                   .thumb
    4699                            .global ESP8266_MakeTCPConnection
    4700                    
    4701                    $C$DW$202       .dwtag  DW_TAG_subprogram, DW_AT_name("ESP8266_MakeTCPConnection")
    4702                            .dwattr $C$DW$202, DW_AT_low_pc(ESP8266_MakeTCPConnection)
    4703                            .dwattr $C$DW$202, DW_AT_high_pc(0x00)
    4704                            .dwattr $C$DW$202, DW_AT_TI_symbol_name("ESP8266_MakeTCPConnection")
    4705                            .dwattr $C$DW$202, DW_AT_external
    4706                            .dwattr $C$DW$202, DW_AT_type(*$C$DW$T$10)
TI ARM Assembler PC v5.2.4 Sat Feb 06 22:51:21 2016

Tools Copyright (c) 1996-2015 Texas Instruments Incorporated
esp8266.asm                                                          PAGE   94

    4707                            .dwattr $C$DW$202, DW_AT_TI_begin_file("../esp8266.c")
    4708                            .dwattr $C$DW$202, DW_AT_TI_begin_line(0x217)
    4709                            .dwattr $C$DW$202, DW_AT_TI_begin_column(0x05)
    4710                            .dwattr $C$DW$202, DW_AT_decl_file("../esp8266.c")
    4711                            .dwattr $C$DW$202, DW_AT_decl_line(0x217)
    4712                            .dwattr $C$DW$202, DW_AT_decl_column(0x05)
    4713                            .dwattr $C$DW$202, DW_AT_TI_max_frame_size(0x10)
    4714                            .dwpsn  file "../esp8266.c",line 535,column 47,is_stmt,address ESP8266_MakeTCPConnection,isa 1
    4715                    
    4716                            .dwfde $C$DW$CIE, ESP8266_MakeTCPConnection
    4717                    $C$DW$203       .dwtag  DW_TAG_formal_parameter, DW_AT_name("IPaddress")
    4718                            .dwattr $C$DW$203, DW_AT_TI_symbol_name("IPaddress")
    4719                            .dwattr $C$DW$203, DW_AT_type(*$C$DW$T$35)
    4720                            .dwattr $C$DW$203, DW_AT_location[DW_OP_reg0]
    4721                    
    4722                    ;*****************************************************************************
    4723                    ;* FUNCTION NAME: ESP8266_MakeTCPConnection                                  *
    4724                    ;*                                                                           *
    4725                    ;*   Regs Modified     : A1,A2,A3,A4,V9,SP,LR,SR,D0,D0_hi,D1,D1_hi,D2,D2_hi, *
    4726                    ;*                           D3,D3_hi,D4,D4_hi,D5,D5_hi,D6,D6_hi,D7,D7_hi,   *
    4727                    ;*                           FPEXC,FPSCR                                     *
    4728                    ;*   Regs Used         : A1,A2,A3,A4,V9,SP,LR,SR,D0,D0_hi,D1,D1_hi,D2,D2_hi, *
    4729                    ;*                           D3,D3_hi,D4,D4_hi,D5,D5_hi,D6,D6_hi,D7,D7_hi,   *
    4730                    ;*                           FPEXC,FPSCR                                     *
    4731                    ;*   Local Frame Size  : 0 Args + 8 Auto + 4 Save = 12 byte                  *
    4732                    ;*****************************************************************************
    4733 000008da           ESP8266_MakeTCPConnection:
    4734                    ;* --------------------------------------------------------------------------*
    4735                            .dwcfi  cfa_offset, 0
    4736 000008da B50E              PUSH      {A2, A3, A4, LR}      ; [DPU_3_PIPE]  ; [ORIG 16-BIT INS]
    4737                            .dwcfi  cfa_offset, 16
    4738                            .dwcfi  save_reg_to_mem, 14, -4
    4739                            .dwcfi  save_reg_to_mem, 3, -8
    4740                            .dwcfi  save_reg_to_mem, 2, -12
    4741                            .dwcfi  save_reg_to_mem, 1, -16
    4742                    $C$DW$204       .dwtag  DW_TAG_variable, DW_AT_name("IPaddress")
    4743                            .dwattr $C$DW$204, DW_AT_TI_symbol_name("IPaddress")
    4744                            .dwattr $C$DW$204, DW_AT_type(*$C$DW$T$35)
    4745                            .dwattr $C$DW$204, DW_AT_location[DW_OP_breg13 0]
    4746                    $C$DW$205       .dwtag  DW_TAG_variable, DW_AT_name("try")
    4747                            .dwattr $C$DW$205, DW_AT_TI_symbol_name("try")
    4748                            .dwattr $C$DW$205, DW_AT_type(*$C$DW$T$10)
    4749                            .dwattr $C$DW$205, DW_AT_location[DW_OP_breg13 4]
    4750                    ;----------------------------------------------------------------------
    4751                    ; 535 | int ESP8266_MakeTCPConnection(char *IPaddress){                        
    4752                    ;----------------------------------------------------------------------
    4753 000008dc 9000              STR       A1, [SP, #0]          ; [DPU_3_PIPE] |535|  ; [ORIG 16-BIT INS]
    4754                            .dwpsn  file "../esp8266.c",line 536,column 10,is_stmt,isa 1
    4755                    ;----------------------------------------------------------------------
    4756                    ; 536 | int try=MAXTRY;                                                        
    4757                    ;----------------------------------------------------------------------
    4758 000008de 200A              MOVS      A1, #10               ; [DPU_3_PIPE] |536|  ; [ORIG 16-BIT INS]
    4759 000008e0 9001              STR       A1, [SP, #4]          ; [DPU_3_PIPE] |536|  ; [ORIG 16-BIT INS]
    4760                            .dwpsn  file "../esp8266.c",line 537,column 3,is_stmt,isa 1
    4761                    ;----------------------------------------------------------------------
TI ARM Assembler PC v5.2.4 Sat Feb 06 22:51:21 2016

Tools Copyright (c) 1996-2015 Texas Instruments Incorporated
esp8266.asm                                                          PAGE   95

    4762                    ; 537 | SearchStart("ok");                                                     
    4763                    ;----------------------------------------------------------------------
    4764 000008e2 486C              LDR       A1, $C$CON48          ; [] |537|  ; [ORIG 16-BIT INS]
    4765                    $C$DW$206       .dwtag  DW_TAG_TI_branch
    4766                            .dwattr $C$DW$206, DW_AT_low_pc(0x00)
    4767                            .dwattr $C$DW$206, DW_AT_name("SearchStart")
    4768                            .dwattr $C$DW$206, DW_AT_TI_call
    4769 000008e4 FBA2F7FF          BL        SearchStart           ; [DPU_3_PIPE] |537|  ; [KEEP 32-BIT INS]
    4770                            ; CALL OCCURS {SearchStart }     ; [] |537| 
    4771                            .dwpsn  file "../esp8266.c",line 538,column 3,is_stmt,isa 1
    4772                    ;----------------------------------------------------------------------
    4773                    ; 538 | while(try){                                                            
    4774                    ;----------------------------------------------------------------------
    4775 000008e8 9801              LDR       A1, [SP, #4]          ; [DPU_3_PIPE] |538|  ; [ORIG 16-BIT INS]
    4776 000008ea B1B0              CBZ       A1, ||$C$L77||        ; []  ; [ORIG 16-BIT INS]
    4777                            ; BRANCHCC OCCURS {||$C$L77||}   ; [] |538| 
    4778                    ;* --------------------------------------------------------------------------*
    4779                    ;*   BEGIN LOOP ||$C$L75||
    4780                    ;*
    4781                    ;*   Loop source line                : 538
    4782                    ;*   Loop closing brace source line  : 544
    4783                    ;*   Known Minimum Trip Count        : 1
    4784                    ;*   Known Maximum Trip Count        : 4294967295
    4785                    ;*   Known Max Trip Count Factor     : 1
    4786                    ;* --------------------------------------------------------------------------*
    4787 000008ec           ||$C$L75||:    
    4788                            .dwpsn  file "../esp8266.c",line 539,column 5,is_stmt,isa 1
    4789                    ;----------------------------------------------------------------------
    4790                    ; 539 | sprintf((char*)TXBuffer, "AT+CIPSTART=\"TCP\",\"%s\",80\r\n", IPaddress
    4791                    ;     | );                                                                     
    4792                    ;----------------------------------------------------------------------
    4793 000008ec 485A              LDR       A1, $C$CON47          ; [DPU_3_PIPE] |539|  ; [ORIG 16-BIT INS]
    4794 000008ee 9A00              LDR       A3, [SP, #0]          ; [DPU_3_PIPE] |539|  ; [ORIG 16-BIT INS]
    4795 000008f0 A197              ADR       A2, $C$SL23           ; [DPU_3_PIPE] |539|  ; [ORIG 16-BIT INS]
    4796                    $C$DW$207       .dwtag  DW_TAG_TI_branch
    4797                            .dwattr $C$DW$207, DW_AT_low_pc(0x00)
    4798                            .dwattr $C$DW$207, DW_AT_name("sprintf")
    4799                            .dwattr $C$DW$207, DW_AT_TI_call
    4800 000008f2 FFFEF7FF!         BL        sprintf               ; [DPU_3_PIPE] |539|  ; [KEEP 32-BIT INS]
    4801                            ; CALL OCCURS {sprintf }         ; [] |539| 
    4802                            .dwpsn  file "../esp8266.c",line 540,column 5,is_stmt,isa 1
    4803                    ;----------------------------------------------------------------------
    4804                    ; 540 | ESP8266SendCommand(TXBuffer);   // open and connect to a socket        
    4805                    ;----------------------------------------------------------------------
    4806 000008f6 4858              LDR       A1, $C$CON47          ; [DPU_3_PIPE] |540|  ; [ORIG 16-BIT INS]
    4807                    $C$DW$208       .dwtag  DW_TAG_TI_branch
    4808                            .dwattr $C$DW$208, DW_AT_low_pc(0x00)
    4809                            .dwattr $C$DW$208, DW_AT_name("ESP8266SendCommand")
    4810                            .dwattr $C$DW$208, DW_AT_TI_call
    4811 000008f8 FD04F7FF          BL        ESP8266SendCommand    ; [DPU_3_PIPE] |540|  ; [KEEP 32-BIT INS]
    4812                            ; CALL OCCURS {ESP8266SendCommand }  ; [] |540| 
    4813                            .dwpsn  file "../esp8266.c",line 541,column 5,is_stmt,isa 1
    4814                    ;----------------------------------------------------------------------
    4815                    ; 541 | DelayMsSearching(8000);                                                
    4816                    ;----------------------------------------------------------------------
TI ARM Assembler PC v5.2.4 Sat Feb 06 22:51:21 2016

Tools Copyright (c) 1996-2015 Texas Instruments Incorporated
esp8266.asm                                                          PAGE   96

    4817 000008fc 50FAF44F          MOV       A1, #8000             ; [DPU_3_PIPE] |541|  ; [KEEP 32-BIT INS]
    4818                    $C$DW$209       .dwtag  DW_TAG_TI_branch
    4819                            .dwattr $C$DW$209, DW_AT_low_pc(0x00)
    4820                            .dwattr $C$DW$209, DW_AT_name("DelayMsSearching")
    4821                            .dwattr $C$DW$209, DW_AT_TI_call
    4822 00000900 FD3EF7FF          BL        DelayMsSearching      ; [DPU_3_PIPE] |541|  ; [KEEP 32-BIT INS]
    4823                            ; CALL OCCURS {DelayMsSearching }  ; [] |541| 
    4824                            .dwpsn  file "../esp8266.c",line 542,column 5,is_stmt,isa 1
    4825                    ;----------------------------------------------------------------------
    4826                    ; 542 | if(SearchFound) return 1; // success                                   
    4827                    ;----------------------------------------------------------------------
    4828 00000904 4874              LDR       A1, $C$CON49          ; [DPU_3_PIPE] |542|  ; [ORIG 16-BIT INS]
    4829 00000906 7800              LDRB      A1, [A1, #0]          ; [DPU_3_PIPE] |542|  ; [ORIG 16-BIT INS]
    4830 00000908 B108              CBZ       A1, ||$C$L76||        ; []  ; [ORIG 16-BIT INS]
    4831                            ; BRANCHCC OCCURS {||$C$L76||}   ; [] |542| 
    4832                    ;* --------------------------------------------------------------------------*
    4833                            .dwpsn  file "../esp8266.c",line 542,column 21,is_stmt,isa 1
    4834 0000090a 2001              MOVS      A1, #1                ; [DPU_3_PIPE] |542|  ; [ORIG 16-BIT INS]
    4835 0000090c E006              B         ||$C$L78||            ; [DPU_3_PIPE] |542|  ; [ORIG 16-BIT INS]
    4836                            ; BRANCH OCCURS {||$C$L78||}     ; [] |542| 
    4837                    ;* --------------------------------------------------------------------------*
    4838 0000090e           ||$C$L76||:    
    4839                            .dwpsn  file "../esp8266.c",line 543,column 5,is_stmt,isa 1
    4840                    ;----------------------------------------------------------------------
    4841                    ; 543 | try--;                                                                 
    4842                    ;----------------------------------------------------------------------
    4843 0000090e 9801              LDR       A1, [SP, #4]          ; [DPU_3_PIPE] |543|  ; [ORIG 16-BIT INS]
    4844 00000910 1E40              SUBS      A1, A1, #1            ; [DPU_3_PIPE] |543|  ; [ORIG 16-BIT INS]
    4845 00000912 9001              STR       A1, [SP, #4]          ; [DPU_3_PIPE] |543|  ; [ORIG 16-BIT INS]
    4846                            .dwpsn  file "../esp8266.c",line 538,column 3,is_stmt,isa 1
    4847 00000914 9801              LDR       A1, [SP, #4]          ; [DPU_3_PIPE] |538|  ; [ORIG 16-BIT INS]
    4848 00000916 2800              CMP       A1, #0                ; [DPU_3_PIPE] |538|  ; [ORIG 16-BIT INS]
    4849 00000918 D1E8              BNE       ||$C$L75||            ; [DPU_3_PIPE] |538|  ; [ORIG 16-BIT INS]
    4850                            ; BRANCHCC OCCURS {||$C$L75||}   ; [] |538| 
    4851                    ;* --------------------------------------------------------------------------*
    4852 0000091a           ||$C$L77||:    
    4853                            .dwpsn  file "../esp8266.c",line 545,column 3,is_stmt,isa 1
    4854                    ;----------------------------------------------------------------------
    4855                    ; 545 | return 0; // fail                                                      
    4856                    ;----------------------------------------------------------------------
    4857 0000091a 2000              MOVS      A1, #0                ; [DPU_3_PIPE] |545|  ; [ORIG 16-BIT INS]
    4858                    ;* --------------------------------------------------------------------------*
    4859 0000091c           ||$C$L78||:    
    4860                            .dwpsn  file "../esp8266.c",line 546,column 1,is_stmt,isa 1
    4861                    $C$DW$210       .dwtag  DW_TAG_TI_branch
    4862                            .dwattr $C$DW$210, DW_AT_low_pc(0x00)
    4863                            .dwattr $C$DW$210, DW_AT_TI_return
    4864 0000091c BD0E              POP       {A2, A3, A4, PC}      ; [DPU_3_PIPE]  ; [ORIG 16-BIT INS]
    4865                            .dwcfi  cfa_offset, 0
    4866                            ; BRANCH OCCURS                  ; [] 
    4867                            .dwattr $C$DW$202, DW_AT_TI_end_file("../esp8266.c")
    4868                            .dwattr $C$DW$202, DW_AT_TI_end_line(0x222)
    4869                            .dwattr $C$DW$202, DW_AT_TI_end_column(0x01)
    4870                            .dwendentry
    4871                            .dwendtag $C$DW$202
TI ARM Assembler PC v5.2.4 Sat Feb 06 22:51:21 2016

Tools Copyright (c) 1996-2015 Texas Instruments Incorporated
esp8266.asm                                                          PAGE   97

    4872                    
    4873                    ;******************************************************************************
    4874                    ;* STRINGS                                                                    *
    4875                    ;******************************************************************************
    4876 0000091e                   .sect   ".text"
    4877                            .align  4
    4878 00000920 41        ||$C$SL19||:    .string "AT+CWLAP",13,10,0
         00000921 54       
         00000922 2B       
         00000923 43       
         00000924 57       
         00000925 4C       
         00000926 41       
         00000927 50       
         00000928 0D       
         00000929 0A       
         0000092a 00       
    4879                            .align  4
    4880 0000092c 41        ||$C$SL20||:    .string "AT+CWQAP",13,10,0
         0000092d 54       
         0000092e 2B       
         0000092f 43       
         00000930 57       
         00000931 51       
         00000932 41       
         00000933 50       
         00000934 0D       
         00000935 0A       
         00000936 00       
    4881 00000937                   .sect   ".text"
    4882                            .clink
    4883                            .thumbfunc ESP8266_SendTCP
    4884 00000938                   .thumb
    4885                            .global ESP8266_SendTCP
    4886                    
    4887                    $C$DW$211       .dwtag  DW_TAG_subprogram, DW_AT_name("ESP8266_SendTCP")
    4888                            .dwattr $C$DW$211, DW_AT_low_pc(ESP8266_SendTCP)
    4889                            .dwattr $C$DW$211, DW_AT_high_pc(0x00)
    4890                            .dwattr $C$DW$211, DW_AT_TI_symbol_name("ESP8266_SendTCP")
    4891                            .dwattr $C$DW$211, DW_AT_external
    4892                            .dwattr $C$DW$211, DW_AT_type(*$C$DW$T$10)
    4893                            .dwattr $C$DW$211, DW_AT_TI_begin_file("../esp8266.c")
    4894                            .dwattr $C$DW$211, DW_AT_TI_begin_line(0x228)
    4895                            .dwattr $C$DW$211, DW_AT_TI_begin_column(0x05)
    4896                            .dwattr $C$DW$211, DW_AT_decl_file("../esp8266.c")
    4897                            .dwattr $C$DW$211, DW_AT_decl_line(0x228)
    4898                            .dwattr $C$DW$211, DW_AT_decl_column(0x05)
    4899                            .dwattr $C$DW$211, DW_AT_TI_max_frame_size(0x10)
    4900                            .dwpsn  file "../esp8266.c",line 552,column 33,is_stmt,address ESP8266_SendTCP,isa 1
    4901                    
    4902                            .dwfde $C$DW$CIE, ESP8266_SendTCP
    4903                    $C$DW$212       .dwtag  DW_TAG_formal_parameter, DW_AT_name("fetch")
    4904                            .dwattr $C$DW$212, DW_AT_TI_symbol_name("fetch")
    4905                            .dwattr $C$DW$212, DW_AT_type(*$C$DW$T$35)
    4906                            .dwattr $C$DW$212, DW_AT_location[DW_OP_reg0]
TI ARM Assembler PC v5.2.4 Sat Feb 06 22:51:21 2016

Tools Copyright (c) 1996-2015 Texas Instruments Incorporated
esp8266.asm                                                          PAGE   98

    4907                    
    4908                    ;*****************************************************************************
    4909                    ;* FUNCTION NAME: ESP8266_SendTCP                                            *
    4910                    ;*                                                                           *
    4911                    ;*   Regs Modified     : A1,A2,A3,A4,V9,SP,LR,SR,D0,D0_hi,D1,D1_hi,D2,D2_hi, *
    4912                    ;*                           D3,D3_hi,D4,D4_hi,D5,D5_hi,D6,D6_hi,D7,D7_hi,   *
    4913                    ;*                           FPEXC,FPSCR                                     *
    4914                    ;*   Regs Used         : A1,A2,A3,A4,V9,SP,LR,SR,D0,D0_hi,D1,D1_hi,D2,D2_hi, *
    4915                    ;*                           D3,D3_hi,D4,D4_hi,D5,D5_hi,D6,D6_hi,D7,D7_hi,   *
    4916                    ;*                           FPEXC,FPSCR                                     *
    4917                    ;*   Local Frame Size  : 0 Args + 12 Auto + 4 Save = 16 byte                 *
    4918                    ;*****************************************************************************
    4919 00000938           ESP8266_SendTCP:
    4920                    ;* --------------------------------------------------------------------------*
    4921                            .dwcfi  cfa_offset, 0
    4922 00000938 B50E              PUSH      {A2, A3, A4, LR}      ; [DPU_3_PIPE]  ; [ORIG 16-BIT INS]
    4923                            .dwcfi  cfa_offset, 16
    4924                            .dwcfi  save_reg_to_mem, 14, -4
    4925                            .dwcfi  save_reg_to_mem, 3, -8
    4926                            .dwcfi  save_reg_to_mem, 2, -12
    4927                            .dwcfi  save_reg_to_mem, 1, -16
    4928                    $C$DW$213       .dwtag  DW_TAG_variable, DW_AT_name("fetch")
    4929                            .dwattr $C$DW$213, DW_AT_TI_symbol_name("fetch")
    4930                            .dwattr $C$DW$213, DW_AT_type(*$C$DW$T$35)
    4931                            .dwattr $C$DW$213, DW_AT_location[DW_OP_breg13 0]
    4932                    $C$DW$214       .dwtag  DW_TAG_variable, DW_AT_name("time")
    4933                            .dwattr $C$DW$214, DW_AT_TI_symbol_name("time")
    4934                            .dwattr $C$DW$214, DW_AT_type(*$C$DW$T$88)
    4935                            .dwattr $C$DW$214, DW_AT_location[DW_OP_breg13 4]
    4936                    $C$DW$215       .dwtag  DW_TAG_variable, DW_AT_name("n")
    4937                            .dwattr $C$DW$215, DW_AT_TI_symbol_name("n")
    4938                            .dwattr $C$DW$215, DW_AT_type(*$C$DW$T$88)
    4939                            .dwattr $C$DW$215, DW_AT_location[DW_OP_breg13 8]
    4940                    ;----------------------------------------------------------------------
    4941                    ; 552 | int ESP8266_SendTCP(char* fetch){                                      
    4942                    ; 553 | volatile uint32_t time,n;                                              
    4943                    ;----------------------------------------------------------------------
    4944 0000093a 9000              STR       A1, [SP, #0]          ; [DPU_3_PIPE] |552|  ; [ORIG 16-BIT INS]
    4945                            .dwpsn  file "../esp8266.c",line 554,column 3,is_stmt,isa 1
    4946                    ;----------------------------------------------------------------------
    4947                    ; 554 | sprintf((char*)TXBuffer, "AT+CIPSEND=%d\r\n", strlen(fetch));          
    4948                    ;----------------------------------------------------------------------
    4949 0000093c 9800              LDR       A1, [SP, #0]          ; [DPU_3_PIPE] |554|  ; [ORIG 16-BIT INS]
    4950                    $C$DW$216       .dwtag  DW_TAG_TI_branch
    4951                            .dwattr $C$DW$216, DW_AT_low_pc(0x00)
    4952                            .dwattr $C$DW$216, DW_AT_name("strlen")
    4953                            .dwattr $C$DW$216, DW_AT_TI_call
    4954 0000093e FFFEF7FF!         BL        strlen                ; [DPU_3_PIPE] |554|  ; [KEEP 32-BIT INS]
    4955                            ; CALL OCCURS {strlen }          ; [] |554| 
    4956 00000942 4602              MOV       A3, A1                ; [DPU_3_PIPE] |554|  ; [ORIG 16-BIT INS]
    4957 00000944 4844              LDR       A1, $C$CON47          ; [DPU_3_PIPE] |554|  ; [ORIG 16-BIT INS]
    4958 00000946 A189              ADR       A2, $C$SL24           ; [DPU_3_PIPE] |554|  ; [ORIG 16-BIT INS]
    4959                    $C$DW$217       .dwtag  DW_TAG_TI_branch
    4960                            .dwattr $C$DW$217, DW_AT_low_pc(0x00)
    4961                            .dwattr $C$DW$217, DW_AT_name("sprintf")
TI ARM Assembler PC v5.2.4 Sat Feb 06 22:51:21 2016

Tools Copyright (c) 1996-2015 Texas Instruments Incorporated
esp8266.asm                                                          PAGE   99

    4962                            .dwattr $C$DW$217, DW_AT_TI_call
    4963 00000948 FFFEF7FF!         BL        sprintf               ; [DPU_3_PIPE] |554|  ; [KEEP 32-BIT INS]
    4964                            ; CALL OCCURS {sprintf }         ; [] |554| 
    4965                            .dwpsn  file "../esp8266.c",line 555,column 3,is_stmt,isa 1
    4966                    ;----------------------------------------------------------------------
    4967                    ; 555 | ESP8266SendCommand(TXBuffer);                                          
    4968                    ;----------------------------------------------------------------------
    4969 0000094c 4842              LDR       A1, $C$CON47          ; [DPU_3_PIPE] |555|  ; [ORIG 16-BIT INS]
    4970                    $C$DW$218       .dwtag  DW_TAG_TI_branch
    4971                            .dwattr $C$DW$218, DW_AT_low_pc(0x00)
    4972                            .dwattr $C$DW$218, DW_AT_name("ESP8266SendCommand")
    4973                            .dwattr $C$DW$218, DW_AT_TI_call
    4974 0000094e FCD9F7FF          BL        ESP8266SendCommand    ; [DPU_3_PIPE] |555|  ; [KEEP 32-BIT INS]
    4975                            ; CALL OCCURS {ESP8266SendCommand }  ; [] |555| 
    4976                            .dwpsn  file "../esp8266.c",line 556,column 3,is_stmt,isa 1
    4977                    ;----------------------------------------------------------------------
    4978                    ; 556 | DelayMs(50);                                                           
    4979                    ;----------------------------------------------------------------------
    4980 00000952 2032              MOVS      A1, #50               ; [DPU_3_PIPE] |556|  ; [ORIG 16-BIT INS]
    4981                    $C$DW$219       .dwtag  DW_TAG_TI_branch
    4982                            .dwattr $C$DW$219, DW_AT_low_pc(0x00)
    4983                            .dwattr $C$DW$219, DW_AT_name("DelayMs")
    4984                            .dwattr $C$DW$219, DW_AT_TI_call
    4985 00000954 FCEEF7FF          BL        DelayMs               ; [DPU_3_PIPE] |556|  ; [KEEP 32-BIT INS]
    4986                            ; CALL OCCURS {DelayMs }         ; [] |556| 
    4987                            .dwpsn  file "../esp8266.c",line 557,column 3,is_stmt,isa 1
    4988                    ;----------------------------------------------------------------------
    4989                    ; 557 | ESP8266SendCommand(fetch);                                             
    4990                    ;----------------------------------------------------------------------
    4991 00000958 9800              LDR       A1, [SP, #0]          ; [DPU_3_PIPE] |557|  ; [ORIG 16-BIT INS]
    4992                    $C$DW$220       .dwtag  DW_TAG_TI_branch
    4993                            .dwattr $C$DW$220, DW_AT_low_pc(0x00)
    4994                            .dwattr $C$DW$220, DW_AT_name("ESP8266SendCommand")
    4995                            .dwattr $C$DW$220, DW_AT_TI_call
    4996 0000095a FCD3F7FF          BL        ESP8266SendCommand    ; [DPU_3_PIPE] |557|  ; [KEEP 32-BIT INS]
    4997                            ; CALL OCCURS {ESP8266SendCommand }  ; [] |557| 
    4998                            .dwpsn  file "../esp8266.c",line 558,column 3,is_stmt,isa 1
    4999                    ;----------------------------------------------------------------------
    5000                    ; 558 | ServerResponseSearchStart();                                           
    5001                    ;----------------------------------------------------------------------
    5002                    $C$DW$221       .dwtag  DW_TAG_TI_branch
    5003                            .dwattr $C$DW$221, DW_AT_low_pc(0x00)
    5004                            .dwattr $C$DW$221, DW_AT_name("ServerResponseSearchStart")
    5005                            .dwattr $C$DW$221, DW_AT_TI_call
    5006 0000095e FB99F7FF          BL        ServerResponseSearchStart ; [DPU_3_PIPE] |558|  ; [KEEP 32-BIT INS]
    5007                            ; CALL OCCURS {ServerResponseSearchStart }  ; [] |558| 
    5008                            .dwpsn  file "../esp8266.c",line 559,column 3,is_stmt,isa 1
    5009                    ;----------------------------------------------------------------------
    5010                    ; 559 | n = 8000;                                                              
    5011                    ;----------------------------------------------------------------------
    5012 00000962 50FAF44F          MOV       A1, #8000             ; [DPU_3_PIPE] |559|  ; [KEEP 32-BIT INS]
    5013 00000966 9002              STR       A1, [SP, #8]          ; [DPU_3_PIPE] |559|  ; [ORIG 16-BIT INS]
    5014                            .dwpsn  file "../esp8266.c",line 560,column 3,is_stmt,isa 1
    5015                    ;----------------------------------------------------------------------
    5016                    ; 560 | while(n&&(ServerResponseSearchFinished==0)){                           
TI ARM Assembler PC v5.2.4 Sat Feb 06 22:51:21 2016

Tools Copyright (c) 1996-2015 Texas Instruments Incorporated
esp8266.asm                                                          PAGE  100

    5017                    ;----------------------------------------------------------------------
    5018 00000968 E00D              B         ||$C$L82||            ; [DPU_3_PIPE] |560|  ; [ORIG 16-BIT INS]
    5019                            ; BRANCH OCCURS {||$C$L82||}     ; [] |560| 
    5020                    ;* --------------------------------------------------------------------------*
    5021 0000096a           ||$C$L79||:    
    5022                            .dwpsn  file "../esp8266.c",line 561,column 5,is_stmt,isa 1
    5023                    ;----------------------------------------------------------------------
    5024                    ; 561 | time = (75825*8)/91;  // 1msec, tuned at 80 MHz                        
    5025                    ;----------------------------------------------------------------------
    5026 0000096a 2009F641          MOV       A1, #6665             ; [DPU_3_PIPE] |561|  ; [KEEP 32-BIT INS]
    5027 0000096e 9001              STR       A1, [SP, #4]          ; [DPU_3_PIPE] |561|  ; [ORIG 16-BIT INS]
    5028                            .dwpsn  file "../esp8266.c",line 562,column 5,is_stmt,isa 1
    5029                    ;----------------------------------------------------------------------
    5030                    ; 562 | while(time){                                                           
    5031                    ;----------------------------------------------------------------------
    5032 00000970 9801              LDR       A1, [SP, #4]          ; [DPU_3_PIPE] |562|  ; [ORIG 16-BIT INS]
    5033 00000972 B128              CBZ       A1, ||$C$L81||        ; []  ; [ORIG 16-BIT INS]
    5034                            ; BRANCHCC OCCURS {||$C$L81||}   ; [] |562| 
    5035                    ;* --------------------------------------------------------------------------*
    5036                    ;*   BEGIN LOOP ||$C$L80||
    5037                    ;*
    5038                    ;*   Loop source line                : 562
    5039                    ;*   Loop closing brace source line  : 564
    5040                    ;*   Known Minimum Trip Count        : 1
    5041                    ;*   Known Maximum Trip Count        : 4294967295
    5042                    ;*   Known Max Trip Count Factor     : 1
    5043                    ;* --------------------------------------------------------------------------*
    5044 00000974           ||$C$L80||:    
    5045                            .dwpsn  file "../esp8266.c",line 563,column 7,is_stmt,isa 1
    5046                    ;----------------------------------------------------------------------
    5047                    ; 563 | time--;                                                                
    5048                    ;----------------------------------------------------------------------
    5049 00000974 9801              LDR       A1, [SP, #4]          ; [DPU_3_PIPE] |563|  ; [ORIG 16-BIT INS]
    5050 00000976 1E40              SUBS      A1, A1, #1            ; [DPU_3_PIPE] |563|  ; [ORIG 16-BIT INS]
    5051 00000978 9001              STR       A1, [SP, #4]          ; [DPU_3_PIPE] |563|  ; [ORIG 16-BIT INS]
    5052                            .dwpsn  file "../esp8266.c",line 562,column 5,is_stmt,isa 1
    5053 0000097a 9801              LDR       A1, [SP, #4]          ; [DPU_3_PIPE] |562|  ; [ORIG 16-BIT INS]
    5054 0000097c 2800              CMP       A1, #0                ; [DPU_3_PIPE] |562|  ; [ORIG 16-BIT INS]
    5055 0000097e D1F9              BNE       ||$C$L80||            ; [DPU_3_PIPE] |562|  ; [ORIG 16-BIT INS]
    5056                            ; BRANCHCC OCCURS {||$C$L80||}   ; [] |562| 
    5057                    ;* --------------------------------------------------------------------------*
    5058 00000980           ||$C$L81||:    
    5059                            .dwpsn  file "../esp8266.c",line 565,column 5,is_stmt,isa 1
    5060                    ;----------------------------------------------------------------------
    5061                    ; 565 | n--;                                                                   
    5062                    ;----------------------------------------------------------------------
    5063 00000980 9802              LDR       A1, [SP, #8]          ; [DPU_3_PIPE] |565|  ; [ORIG 16-BIT INS]
    5064 00000982 1E40              SUBS      A1, A1, #1            ; [DPU_3_PIPE] |565|  ; [ORIG 16-BIT INS]
    5065 00000984 9002              STR       A1, [SP, #8]          ; [DPU_3_PIPE] |565|  ; [ORIG 16-BIT INS]
    5066                    ;* --------------------------------------------------------------------------*
    5067                    ;*   BEGIN LOOP ||$C$L82||
    5068                    ;* --------------------------------------------------------------------------*
    5069 00000986           ||$C$L82||:    
    5070                            .dwpsn  file "../esp8266.c",line 560,column 9,is_stmt,isa 1
    5071 00000986 9802              LDR       A1, [SP, #8]          ; [DPU_3_PIPE] |560|  ; [ORIG 16-BIT INS]
TI ARM Assembler PC v5.2.4 Sat Feb 06 22:51:21 2016

Tools Copyright (c) 1996-2015 Texas Instruments Incorporated
esp8266.asm                                                          PAGE  101

    5072 00000988 B118              CBZ       A1, ||$C$L83||        ; []  ; [ORIG 16-BIT INS]
    5073                            ; BRANCHCC OCCURS {||$C$L83||}   ; [] |560| 
    5074                    ;* --------------------------------------------------------------------------*
    5075 0000098a 487C              LDR       A1, $C$CON50          ; [DPU_3_PIPE] |560|  ; [ORIG 16-BIT INS]
    5076 0000098c 6800              LDR       A1, [A1, #0]          ; [DPU_3_PIPE] |560|  ; [ORIG 16-BIT INS]
    5077 0000098e 2800              CMP       A1, #0                ; [DPU_3_PIPE] |560|  ; [ORIG 16-BIT INS]
    5078 00000990 D0EB              BEQ       ||$C$L79||            ; [DPU_3_PIPE] |560|  ; [ORIG 16-BIT INS]
    5079                            ; BRANCHCC OCCURS {||$C$L79||}   ; [] |560| 
    5080                    ;* --------------------------------------------------------------------------*
    5081 00000992           ||$C$L83||:    
    5082                            .dwpsn  file "../esp8266.c",line 567,column 3,is_stmt,isa 1
    5083                    ;----------------------------------------------------------------------
    5084                    ; 567 | if(ServerResponseSearchFinished==0) return 0; // no response           
    5085                    ;----------------------------------------------------------------------
    5086 00000992 487A              LDR       A1, $C$CON50          ; [DPU_3_PIPE] |567|  ; [ORIG 16-BIT INS]
    5087 00000994 6800              LDR       A1, [A1, #0]          ; [DPU_3_PIPE] |567|  ; [ORIG 16-BIT INS]
    5088 00000996 B908              CBNZ      A1, ||$C$L84||        ; []  ; [ORIG 16-BIT INS]
    5089                            ; BRANCHCC OCCURS {||$C$L84||}   ; [] |567| 
    5090                    ;* --------------------------------------------------------------------------*
    5091                            .dwpsn  file "../esp8266.c",line 567,column 39,is_stmt,isa 1
    5092 00000998 2000              MOVS      A1, #0                ; [DPU_3_PIPE] |567|  ; [ORIG 16-BIT INS]
    5093 0000099a E000              B         ||$C$L85||            ; [DPU_3_PIPE] |567|  ; [ORIG 16-BIT INS]
    5094                            ; BRANCH OCCURS {||$C$L85||}     ; [] |567| 
    5095                    ;* --------------------------------------------------------------------------*
    5096 0000099c           ||$C$L84||:    
    5097                            .dwpsn  file "../esp8266.c",line 568,column 3,is_stmt,isa 1
    5098                    ;----------------------------------------------------------------------
    5099                    ; 568 | return 1; // success                                                   
    5100                    ;----------------------------------------------------------------------
    5101 0000099c 2001              MOVS      A1, #1                ; [DPU_3_PIPE] |568|  ; [ORIG 16-BIT INS]
    5102                    ;* --------------------------------------------------------------------------*
    5103 0000099e           ||$C$L85||:    
    5104                            .dwpsn  file "../esp8266.c",line 569,column 1,is_stmt,isa 1
    5105                    $C$DW$222       .dwtag  DW_TAG_TI_branch
    5106                            .dwattr $C$DW$222, DW_AT_low_pc(0x00)
    5107                            .dwattr $C$DW$222, DW_AT_TI_return
    5108 0000099e BD0E              POP       {A2, A3, A4, PC}      ; [DPU_3_PIPE]  ; [ORIG 16-BIT INS]
    5109                            .dwcfi  cfa_offset, 0
    5110                            ; BRANCH OCCURS                  ; [] 
    5111                            .dwattr $C$DW$211, DW_AT_TI_end_file("../esp8266.c")
    5112                            .dwattr $C$DW$211, DW_AT_TI_end_line(0x239)
    5113                            .dwattr $C$DW$211, DW_AT_TI_end_column(0x01)
    5114                            .dwendentry
    5115                            .dwendtag $C$DW$211
    5116                    
    5117 000009a0                   .sect   ".text"
    5118                            .clink
    5119                            .thumbfunc ESP8266_CloseTCPConnection
    5120 000009a0                   .thumb
    5121                            .global ESP8266_CloseTCPConnection
    5122                    
    5123                    $C$DW$223       .dwtag  DW_TAG_subprogram, DW_AT_name("ESP8266_CloseTCPConnection")
    5124                            .dwattr $C$DW$223, DW_AT_low_pc(ESP8266_CloseTCPConnection)
    5125                            .dwattr $C$DW$223, DW_AT_high_pc(0x00)
    5126                            .dwattr $C$DW$223, DW_AT_TI_symbol_name("ESP8266_CloseTCPConnection")
TI ARM Assembler PC v5.2.4 Sat Feb 06 22:51:21 2016

Tools Copyright (c) 1996-2015 Texas Instruments Incorporated
esp8266.asm                                                          PAGE  102

    5127                            .dwattr $C$DW$223, DW_AT_external
    5128                            .dwattr $C$DW$223, DW_AT_type(*$C$DW$T$10)
    5129                            .dwattr $C$DW$223, DW_AT_TI_begin_file("../esp8266.c")
    5130                            .dwattr $C$DW$223, DW_AT_TI_begin_line(0x23f)
    5131                            .dwattr $C$DW$223, DW_AT_TI_begin_column(0x05)
    5132                            .dwattr $C$DW$223, DW_AT_decl_file("../esp8266.c")
    5133                            .dwattr $C$DW$223, DW_AT_decl_line(0x23f)
    5134                            .dwattr $C$DW$223, DW_AT_decl_column(0x05)
    5135                            .dwattr $C$DW$223, DW_AT_TI_max_frame_size(0x08)
    5136                            .dwpsn  file "../esp8266.c",line 575,column 37,is_stmt,address ESP8266_CloseTCPConnection,isa 
    5137                    
    5138                            .dwfde $C$DW$CIE, ESP8266_CloseTCPConnection
    5139                    ;----------------------------------------------------------------------
    5140                    ; 575 | int ESP8266_CloseTCPConnection(void){                                  
    5141                    ;----------------------------------------------------------------------
    5142                    
    5143                    ;*****************************************************************************
    5144                    ;* FUNCTION NAME: ESP8266_CloseTCPConnection                                 *
    5145                    ;*                                                                           *
    5146                    ;*   Regs Modified     : A1,A2,A3,A4,V9,SP,LR,SR,D0,D0_hi,D1,D1_hi,D2,D2_hi, *
    5147                    ;*                           D3,D3_hi,D4,D4_hi,D5,D5_hi,D6,D6_hi,D7,D7_hi,   *
    5148                    ;*                           FPEXC,FPSCR                                     *
    5149                    ;*   Regs Used         : A1,A2,A3,A4,V9,SP,LR,SR,D0,D0_hi,D1,D1_hi,D2,D2_hi, *
    5150                    ;*                           D3,D3_hi,D4,D4_hi,D5,D5_hi,D6,D6_hi,D7,D7_hi,   *
    5151                    ;*                           FPEXC,FPSCR                                     *
    5152                    ;*   Local Frame Size  : 0 Args + 4 Auto + 4 Save = 8 byte                   *
    5153                    ;*****************************************************************************
    5154 000009a0           ESP8266_CloseTCPConnection:
    5155                    ;* --------------------------------------------------------------------------*
    5156                            .dwcfi  cfa_offset, 0
    5157 000009a0 B508              PUSH      {A4, LR}              ; [DPU_3_PIPE]  ; [ORIG 16-BIT INS]
    5158                            .dwcfi  cfa_offset, 8
    5159                            .dwcfi  save_reg_to_mem, 14, -4
    5160                            .dwcfi  save_reg_to_mem, 3, -8
    5161                    $C$DW$224       .dwtag  DW_TAG_variable, DW_AT_name("try")
    5162                            .dwattr $C$DW$224, DW_AT_TI_symbol_name("try")
    5163                            .dwattr $C$DW$224, DW_AT_type(*$C$DW$T$10)
    5164                            .dwattr $C$DW$224, DW_AT_location[DW_OP_breg13 0]
    5165                            .dwpsn  file "../esp8266.c",line 576,column 10,is_stmt,isa 1
    5166                    ;----------------------------------------------------------------------
    5167                    ; 576 | int try=1;                                                             
    5168                    ;----------------------------------------------------------------------
    5169 000009a2 2001              MOVS      A1, #1                ; [DPU_3_PIPE] |576|  ; [ORIG 16-BIT INS]
    5170 000009a4 9000              STR       A1, [SP, #0]          ; [DPU_3_PIPE] |576|  ; [ORIG 16-BIT INS]
    5171                            .dwpsn  file "../esp8266.c",line 577,column 3,is_stmt,isa 1
    5172                    ;----------------------------------------------------------------------
    5173                    ; 577 | SearchStart("ok");                                                     
    5174                    ;----------------------------------------------------------------------
    5175 000009a6 483B              LDR       A1, $C$CON48          ; [] |577|  ; [ORIG 16-BIT INS]
    5176                    $C$DW$225       .dwtag  DW_TAG_TI_branch
    5177                            .dwattr $C$DW$225, DW_AT_low_pc(0x00)
    5178                            .dwattr $C$DW$225, DW_AT_name("SearchStart")
    5179                            .dwattr $C$DW$225, DW_AT_TI_call
    5180 000009a8 FB40F7FF          BL        SearchStart           ; [DPU_3_PIPE] |577|  ; [KEEP 32-BIT INS]
    5181                            ; CALL OCCURS {SearchStart }     ; [] |577| 
TI ARM Assembler PC v5.2.4 Sat Feb 06 22:51:21 2016

Tools Copyright (c) 1996-2015 Texas Instruments Incorporated
esp8266.asm                                                          PAGE  103

    5182                            .dwpsn  file "../esp8266.c",line 578,column 3,is_stmt,isa 1
    5183                    ;----------------------------------------------------------------------
    5184                    ; 578 | while(try){                                                            
    5185                    ;----------------------------------------------------------------------
    5186 000009ac 9800              LDR       A1, [SP, #0]          ; [DPU_3_PIPE] |578|  ; [ORIG 16-BIT INS]
    5187 000009ae B188              CBZ       A1, ||$C$L88||        ; []  ; [ORIG 16-BIT INS]
    5188                            ; BRANCHCC OCCURS {||$C$L88||}   ; [] |578| 
    5189                    ;* --------------------------------------------------------------------------*
    5190                    ;*   BEGIN LOOP ||$C$L86||
    5191                    ;*
    5192                    ;*   Loop source line                : 578
    5193                    ;*   Loop closing brace source line  : 583
    5194                    ;*   Known Minimum Trip Count        : 1
    5195                    ;*   Known Maximum Trip Count        : 4294967295
    5196                    ;*   Known Max Trip Count Factor     : 1
    5197                    ;* --------------------------------------------------------------------------*
    5198 000009b0           ||$C$L86||:    
    5199                            .dwpsn  file "../esp8266.c",line 579,column 5,is_stmt,isa 1
    5200                    ;----------------------------------------------------------------------
    5201                    ; 579 | ESP8266SendCommand("AT+CIPCLOSE\r\n");                                 
    5202                    ;----------------------------------------------------------------------
    5203 000009b0 A095              ADR       A1, $C$SL25           ; [DPU_3_PIPE] |579|  ; [ORIG 16-BIT INS]
    5204                    $C$DW$226       .dwtag  DW_TAG_TI_branch
    5205                            .dwattr $C$DW$226, DW_AT_low_pc(0x00)
    5206                            .dwattr $C$DW$226, DW_AT_name("ESP8266SendCommand")
    5207                            .dwattr $C$DW$226, DW_AT_TI_call
    5208 000009b2 FCA7F7FF          BL        ESP8266SendCommand    ; [DPU_3_PIPE] |579|  ; [KEEP 32-BIT INS]
    5209                            ; CALL OCCURS {ESP8266SendCommand }  ; [] |579| 
    5210                            .dwpsn  file "../esp8266.c",line 580,column 5,is_stmt,isa 1
    5211                    ;----------------------------------------------------------------------
    5212                    ; 580 | DelayMsSearching(4000);                                                
    5213                    ;----------------------------------------------------------------------
    5214 000009b6 607AF44F          MOV       A1, #4000             ; [DPU_3_PIPE] |580|  ; [KEEP 32-BIT INS]
    5215                    $C$DW$227       .dwtag  DW_TAG_TI_branch
    5216                            .dwattr $C$DW$227, DW_AT_low_pc(0x00)
    5217                            .dwattr $C$DW$227, DW_AT_name("DelayMsSearching")
    5218                            .dwattr $C$DW$227, DW_AT_TI_call
    5219 000009ba FCE1F7FF          BL        DelayMsSearching      ; [DPU_3_PIPE] |580|  ; [KEEP 32-BIT INS]
    5220                            ; CALL OCCURS {DelayMsSearching }  ; [] |580| 
    5221                            .dwpsn  file "../esp8266.c",line 581,column 5,is_stmt,isa 1
    5222                    ;----------------------------------------------------------------------
    5223                    ; 581 | if(SearchFound) return 1; // success                                   
    5224                    ;----------------------------------------------------------------------
    5225 000009be 4846              LDR       A1, $C$CON49          ; [DPU_3_PIPE] |581|  ; [ORIG 16-BIT INS]
    5226 000009c0 7800              LDRB      A1, [A1, #0]          ; [DPU_3_PIPE] |581|  ; [ORIG 16-BIT INS]
    5227 000009c2 B108              CBZ       A1, ||$C$L87||        ; []  ; [ORIG 16-BIT INS]
    5228                            ; BRANCHCC OCCURS {||$C$L87||}   ; [] |581| 
    5229                    ;* --------------------------------------------------------------------------*
    5230                            .dwpsn  file "../esp8266.c",line 581,column 21,is_stmt,isa 1
    5231 000009c4 2001              MOVS      A1, #1                ; [DPU_3_PIPE] |581|  ; [ORIG 16-BIT INS]
    5232 000009c6 E006              B         ||$C$L89||            ; [DPU_3_PIPE] |581|  ; [ORIG 16-BIT INS]
    5233                            ; BRANCH OCCURS {||$C$L89||}     ; [] |581| 
    5234                    ;* --------------------------------------------------------------------------*
    5235 000009c8           ||$C$L87||:    
    5236                            .dwpsn  file "../esp8266.c",line 582,column 5,is_stmt,isa 1
TI ARM Assembler PC v5.2.4 Sat Feb 06 22:51:21 2016

Tools Copyright (c) 1996-2015 Texas Instruments Incorporated
esp8266.asm                                                          PAGE  104

    5237                    ;----------------------------------------------------------------------
    5238                    ; 582 | try--;                                                                 
    5239                    ;----------------------------------------------------------------------
    5240 000009c8 9800              LDR       A1, [SP, #0]          ; [DPU_3_PIPE] |582|  ; [ORIG 16-BIT INS]
    5241 000009ca 1E40              SUBS      A1, A1, #1            ; [DPU_3_PIPE] |582|  ; [ORIG 16-BIT INS]
    5242 000009cc 9000              STR       A1, [SP, #0]          ; [DPU_3_PIPE] |582|  ; [ORIG 16-BIT INS]
    5243                            .dwpsn  file "../esp8266.c",line 578,column 3,is_stmt,isa 1
    5244 000009ce 9800              LDR       A1, [SP, #0]          ; [DPU_3_PIPE] |578|  ; [ORIG 16-BIT INS]
    5245 000009d0 2800              CMP       A1, #0                ; [DPU_3_PIPE] |578|  ; [ORIG 16-BIT INS]
    5246 000009d2 D1ED              BNE       ||$C$L86||            ; [DPU_3_PIPE] |578|  ; [ORIG 16-BIT INS]
    5247                            ; BRANCHCC OCCURS {||$C$L86||}   ; [] |578| 
    5248                    ;* --------------------------------------------------------------------------*
    5249 000009d4           ||$C$L88||:    
    5250                            .dwpsn  file "../esp8266.c",line 584,column 3,is_stmt,isa 1
    5251                    ;----------------------------------------------------------------------
    5252                    ; 584 | return 0; // fail                                                      
    5253                    ;----------------------------------------------------------------------
    5254 000009d4 2000              MOVS      A1, #0                ; [DPU_3_PIPE] |584|  ; [ORIG 16-BIT INS]
    5255                    ;* --------------------------------------------------------------------------*
    5256 000009d6           ||$C$L89||:    
    5257                            .dwpsn  file "../esp8266.c",line 585,column 1,is_stmt,isa 1
    5258                    $C$DW$228       .dwtag  DW_TAG_TI_branch
    5259                            .dwattr $C$DW$228, DW_AT_low_pc(0x00)
    5260                            .dwattr $C$DW$228, DW_AT_TI_return
    5261 000009d6 BD08              POP       {A4, PC}              ; [DPU_3_PIPE]  ; [ORIG 16-BIT INS]
    5262                            .dwcfi  cfa_offset, 0
    5263                            ; BRANCH OCCURS                  ; [] 
    5264                            .dwattr $C$DW$223, DW_AT_TI_end_file("../esp8266.c")
    5265                            .dwattr $C$DW$223, DW_AT_TI_end_line(0x249)
    5266                            .dwattr $C$DW$223, DW_AT_TI_end_column(0x01)
    5267                            .dwendentry
    5268                            .dwendtag $C$DW$223
    5269                    
    5270 000009d8                   .sect   ".text"
    5271                            .clink
    5272                            .thumbfunc ESP8266_SetDataTransmissionMode
    5273 000009d8                   .thumb
    5274                            .global ESP8266_SetDataTransmissionMode
    5275                    
    5276                    $C$DW$229       .dwtag  DW_TAG_subprogram, DW_AT_name("ESP8266_SetDataTransmissionMode")
    5277                            .dwattr $C$DW$229, DW_AT_low_pc(ESP8266_SetDataTransmissionMode)
    5278                            .dwattr $C$DW$229, DW_AT_high_pc(0x00)
    5279                            .dwattr $C$DW$229, DW_AT_TI_symbol_name("ESP8266_SetDataTransmissionMode")
    5280                            .dwattr $C$DW$229, DW_AT_external
    5281                            .dwattr $C$DW$229, DW_AT_type(*$C$DW$T$10)
    5282                            .dwattr $C$DW$229, DW_AT_TI_begin_file("../esp8266.c")
    5283                            .dwattr $C$DW$229, DW_AT_TI_begin_line(0x24e)
    5284                            .dwattr $C$DW$229, DW_AT_TI_begin_column(0x05)
    5285                            .dwattr $C$DW$229, DW_AT_decl_file("../esp8266.c")
    5286                            .dwattr $C$DW$229, DW_AT_decl_line(0x24e)
    5287                            .dwattr $C$DW$229, DW_AT_decl_column(0x05)
    5288                            .dwattr $C$DW$229, DW_AT_TI_max_frame_size(0x10)
    5289                            .dwpsn  file "../esp8266.c",line 590,column 50,is_stmt,address ESP8266_SetDataTransmissionMode
    5290                    
    5291                            .dwfde $C$DW$CIE, ESP8266_SetDataTransmissionMode
TI ARM Assembler PC v5.2.4 Sat Feb 06 22:51:21 2016

Tools Copyright (c) 1996-2015 Texas Instruments Incorporated
esp8266.asm                                                          PAGE  105

    5292                    $C$DW$230       .dwtag  DW_TAG_formal_parameter, DW_AT_name("mode")
    5293                            .dwattr $C$DW$230, DW_AT_TI_symbol_name("mode")
    5294                            .dwattr $C$DW$230, DW_AT_type(*$C$DW$T$53)
    5295                            .dwattr $C$DW$230, DW_AT_location[DW_OP_reg0]
    5296                    
    5297                    ;*****************************************************************************
    5298                    ;* FUNCTION NAME: ESP8266_SetDataTransmissionMode                            *
    5299                    ;*                                                                           *
    5300                    ;*   Regs Modified     : A1,A2,A3,A4,V9,SP,LR,SR,D0,D0_hi,D1,D1_hi,D2,D2_hi, *
    5301                    ;*                           D3,D3_hi,D4,D4_hi,D5,D5_hi,D6,D6_hi,D7,D7_hi,   *
    5302                    ;*                           FPEXC,FPSCR                                     *
    5303                    ;*   Regs Used         : A1,A2,A3,A4,V9,SP,LR,SR,D0,D0_hi,D1,D1_hi,D2,D2_hi, *
    5304                    ;*                           D3,D3_hi,D4,D4_hi,D5,D5_hi,D6,D6_hi,D7,D7_hi,   *
    5305                    ;*                           FPEXC,FPSCR                                     *
    5306                    ;*   Local Frame Size  : 0 Args + 8 Auto + 4 Save = 12 byte                  *
    5307                    ;*****************************************************************************
    5308 000009d8           ESP8266_SetDataTransmissionMode:
    5309                    ;* --------------------------------------------------------------------------*
    5310                            .dwcfi  cfa_offset, 0
    5311 000009d8 B50E              PUSH      {A2, A3, A4, LR}      ; [DPU_3_PIPE]  ; [ORIG 16-BIT INS]
    5312                            .dwcfi  cfa_offset, 16
    5313                            .dwcfi  save_reg_to_mem, 14, -4
    5314                            .dwcfi  save_reg_to_mem, 3, -8
    5315                            .dwcfi  save_reg_to_mem, 2, -12
    5316                            .dwcfi  save_reg_to_mem, 1, -16
    5317                    $C$DW$231       .dwtag  DW_TAG_variable, DW_AT_name("mode")
    5318                            .dwattr $C$DW$231, DW_AT_TI_symbol_name("mode")
    5319                            .dwattr $C$DW$231, DW_AT_type(*$C$DW$T$53)
    5320                            .dwattr $C$DW$231, DW_AT_location[DW_OP_breg13 0]
    5321                    $C$DW$232       .dwtag  DW_TAG_variable, DW_AT_name("try")
    5322                            .dwattr $C$DW$232, DW_AT_TI_symbol_name("try")
    5323                            .dwattr $C$DW$232, DW_AT_type(*$C$DW$T$10)
    5324                            .dwattr $C$DW$232, DW_AT_location[DW_OP_breg13 4]
    5325                    ;----------------------------------------------------------------------
    5326                    ; 590 | int ESP8266_SetDataTransmissionMode(uint8_t mode){                     
    5327                    ;----------------------------------------------------------------------
    5328 000009da 0000F88D          STRB      A1, [SP, #0]          ; [DPU_3_PIPE] |590|  ; [KEEP 32-BIT INS]
    5329                            .dwpsn  file "../esp8266.c",line 591,column 10,is_stmt,isa 1
    5330                    ;----------------------------------------------------------------------
    5331                    ; 591 | int try=MAXTRY;                                                        
    5332                    ;----------------------------------------------------------------------
    5333 000009de 200A              MOVS      A1, #10               ; [DPU_3_PIPE] |591|  ; [ORIG 16-BIT INS]
    5334 000009e0 9001              STR       A1, [SP, #4]          ; [DPU_3_PIPE] |591|  ; [ORIG 16-BIT INS]
    5335                            .dwpsn  file "../esp8266.c",line 592,column 3,is_stmt,isa 1
    5336                    ;----------------------------------------------------------------------
    5337                    ; 592 | SearchStart("ok");                                                     
    5338                    ;----------------------------------------------------------------------
    5339 000009e2 482C              LDR       A1, $C$CON48          ; [] |592|  ; [ORIG 16-BIT INS]
    5340                    $C$DW$233       .dwtag  DW_TAG_TI_branch
    5341                            .dwattr $C$DW$233, DW_AT_low_pc(0x00)
    5342                            .dwattr $C$DW$233, DW_AT_name("SearchStart")
    5343                            .dwattr $C$DW$233, DW_AT_TI_call
    5344 000009e4 FB22F7FF          BL        SearchStart           ; [DPU_3_PIPE] |592|  ; [KEEP 32-BIT INS]
    5345                            ; CALL OCCURS {SearchStart }     ; [] |592| 
    5346                            .dwpsn  file "../esp8266.c",line 593,column 3,is_stmt,isa 1
TI ARM Assembler PC v5.2.4 Sat Feb 06 22:51:21 2016

Tools Copyright (c) 1996-2015 Texas Instruments Incorporated
esp8266.asm                                                          PAGE  106

    5347                    ;----------------------------------------------------------------------
    5348                    ; 593 | while(try){                                                            
    5349                    ;----------------------------------------------------------------------
    5350 000009e8 9801              LDR       A1, [SP, #4]          ; [DPU_3_PIPE] |593|  ; [ORIG 16-BIT INS]
    5351 000009ea B1B8              CBZ       A1, ||$C$L92||        ; []  ; [ORIG 16-BIT INS]
    5352                            ; BRANCHCC OCCURS {||$C$L92||}   ; [] |593| 
    5353                    ;* --------------------------------------------------------------------------*
    5354                    ;*   BEGIN LOOP ||$C$L90||
    5355                    ;*
    5356                    ;*   Loop source line                : 593
    5357                    ;*   Loop closing brace source line  : 599
    5358                    ;*   Known Minimum Trip Count        : 1
    5359                    ;*   Known Maximum Trip Count        : 4294967295
    5360                    ;*   Known Max Trip Count Factor     : 1
    5361                    ;* --------------------------------------------------------------------------*
    5362 000009ec           ||$C$L90||:    
    5363                            .dwpsn  file "../esp8266.c",line 594,column 5,is_stmt,isa 1
    5364                    ;----------------------------------------------------------------------
    5365                    ; 594 | sprintf((char*)TXBuffer, "AT+CIPMODE=%d\r\n", mode);                   
    5366                    ;----------------------------------------------------------------------
    5367 000009ec 2000F89D          LDRB      A3, [SP, #0]          ; [DPU_3_PIPE] |594|  ; [KEEP 32-BIT INS]
    5368 000009f0 4819              LDR       A1, $C$CON47          ; [DPU_3_PIPE] |594|  ; [ORIG 16-BIT INS]
    5369 000009f2 A1A3              ADR       A2, $C$SL26           ; [DPU_3_PIPE] |594|  ; [ORIG 16-BIT INS]
    5370                    $C$DW$234       .dwtag  DW_TAG_TI_branch
    5371                            .dwattr $C$DW$234, DW_AT_low_pc(0x00)
    5372                            .dwattr $C$DW$234, DW_AT_name("sprintf")
    5373                            .dwattr $C$DW$234, DW_AT_TI_call
    5374 000009f4 FFFEF7FF!         BL        sprintf               ; [DPU_3_PIPE] |594|  ; [KEEP 32-BIT INS]
    5375                            ; CALL OCCURS {sprintf }         ; [] |594| 
    5376                            .dwpsn  file "../esp8266.c",line 595,column 5,is_stmt,isa 1
    5377                    ;----------------------------------------------------------------------
    5378                    ; 595 | ESP8266SendCommand((const char*)TXBuffer);                             
    5379                    ;----------------------------------------------------------------------
    5380 000009f8 4817              LDR       A1, $C$CON47          ; [DPU_3_PIPE] |595|  ; [ORIG 16-BIT INS]
    5381                    $C$DW$235       .dwtag  DW_TAG_TI_branch
    5382                            .dwattr $C$DW$235, DW_AT_low_pc(0x00)
    5383                            .dwattr $C$DW$235, DW_AT_name("ESP8266SendCommand")
    5384                            .dwattr $C$DW$235, DW_AT_TI_call
    5385 000009fa FC83F7FF          BL        ESP8266SendCommand    ; [DPU_3_PIPE] |595|  ; [KEEP 32-BIT INS]
    5386                            ; CALL OCCURS {ESP8266SendCommand }  ; [] |595| 
    5387                            .dwpsn  file "../esp8266.c",line 596,column 5,is_stmt,isa 1
    5388                    ;----------------------------------------------------------------------
    5389                    ; 596 | DelayMsSearching(5000);                                                
    5390                    ;----------------------------------------------------------------------
    5391 000009fe 3088F241          MOV       A1, #5000             ; [DPU_3_PIPE] |596|  ; [KEEP 32-BIT INS]
    5392                    $C$DW$236       .dwtag  DW_TAG_TI_branch
    5393                            .dwattr $C$DW$236, DW_AT_low_pc(0x00)
    5394                            .dwattr $C$DW$236, DW_AT_name("DelayMsSearching")
    5395                            .dwattr $C$DW$236, DW_AT_TI_call
    5396 00000a02 FCBDF7FF          BL        DelayMsSearching      ; [DPU_3_PIPE] |596|  ; [KEEP 32-BIT INS]
    5397                            ; CALL OCCURS {DelayMsSearching }  ; [] |596| 
    5398                            .dwpsn  file "../esp8266.c",line 597,column 5,is_stmt,isa 1
    5399                    ;----------------------------------------------------------------------
    5400                    ; 597 | if(SearchFound) return 1; // success                                   
    5401                    ;----------------------------------------------------------------------
TI ARM Assembler PC v5.2.4 Sat Feb 06 22:51:21 2016

Tools Copyright (c) 1996-2015 Texas Instruments Incorporated
esp8266.asm                                                          PAGE  107

    5402 00000a06 4834              LDR       A1, $C$CON49          ; [DPU_3_PIPE] |597|  ; [ORIG 16-BIT INS]
    5403 00000a08 7800              LDRB      A1, [A1, #0]          ; [DPU_3_PIPE] |597|  ; [ORIG 16-BIT INS]
    5404 00000a0a B108              CBZ       A1, ||$C$L91||        ; []  ; [ORIG 16-BIT INS]
    5405                            ; BRANCHCC OCCURS {||$C$L91||}   ; [] |597| 
    5406                    ;* --------------------------------------------------------------------------*
    5407                            .dwpsn  file "../esp8266.c",line 597,column 21,is_stmt,isa 1
    5408 00000a0c 2001              MOVS      A1, #1                ; [DPU_3_PIPE] |597|  ; [ORIG 16-BIT INS]
    5409 00000a0e E006              B         ||$C$L93||            ; [DPU_3_PIPE] |597|  ; [ORIG 16-BIT INS]
    5410                            ; BRANCH OCCURS {||$C$L93||}     ; [] |597| 
    5411                    ;* --------------------------------------------------------------------------*
    5412 00000a10           ||$C$L91||:    
    5413                            .dwpsn  file "../esp8266.c",line 598,column 5,is_stmt,isa 1
    5414                    ;----------------------------------------------------------------------
    5415                    ; 598 | try--;                                                                 
    5416                    ;----------------------------------------------------------------------
    5417 00000a10 9801              LDR       A1, [SP, #4]          ; [DPU_3_PIPE] |598|  ; [ORIG 16-BIT INS]
    5418 00000a12 1E40              SUBS      A1, A1, #1            ; [DPU_3_PIPE] |598|  ; [ORIG 16-BIT INS]
    5419 00000a14 9001              STR       A1, [SP, #4]          ; [DPU_3_PIPE] |598|  ; [ORIG 16-BIT INS]
    5420                            .dwpsn  file "../esp8266.c",line 593,column 3,is_stmt,isa 1
    5421 00000a16 9801              LDR       A1, [SP, #4]          ; [DPU_3_PIPE] |593|  ; [ORIG 16-BIT INS]
    5422 00000a18 2800              CMP       A1, #0                ; [DPU_3_PIPE] |593|  ; [ORIG 16-BIT INS]
    5423 00000a1a D1E7              BNE       ||$C$L90||            ; [DPU_3_PIPE] |593|  ; [ORIG 16-BIT INS]
    5424                            ; BRANCHCC OCCURS {||$C$L90||}   ; [] |593| 
    5425                    ;* --------------------------------------------------------------------------*
    5426 00000a1c           ||$C$L92||:    
    5427                            .dwpsn  file "../esp8266.c",line 600,column 3,is_stmt,isa 1
    5428                    ;----------------------------------------------------------------------
    5429                    ; 600 | return 0; // fail                                                      
    5430                    ;----------------------------------------------------------------------
    5431 00000a1c 2000              MOVS      A1, #0                ; [DPU_3_PIPE] |600|  ; [ORIG 16-BIT INS]
    5432                    ;* --------------------------------------------------------------------------*
    5433 00000a1e           ||$C$L93||:    
    5434                            .dwpsn  file "../esp8266.c",line 601,column 1,is_stmt,isa 1
    5435                    $C$DW$237       .dwtag  DW_TAG_TI_branch
    5436                            .dwattr $C$DW$237, DW_AT_low_pc(0x00)
    5437                            .dwattr $C$DW$237, DW_AT_TI_return
    5438 00000a1e BD0E              POP       {A2, A3, A4, PC}      ; [DPU_3_PIPE]  ; [ORIG 16-BIT INS]
    5439                            .dwcfi  cfa_offset, 0
    5440                            ; BRANCH OCCURS                  ; [] 
    5441                            .dwattr $C$DW$229, DW_AT_TI_end_file("../esp8266.c")
    5442                            .dwattr $C$DW$229, DW_AT_TI_end_line(0x259)
    5443                            .dwattr $C$DW$229, DW_AT_TI_end_column(0x01)
    5444                            .dwendentry
    5445                            .dwendtag $C$DW$229
    5446                    
    5447 00000a20                   .sect   ".text"
    5448                            .clink
    5449                            .thumbfunc ESP8266_GetStatus
    5450 00000a20                   .thumb
    5451                            .global ESP8266_GetStatus
    5452                    
    5453                    $C$DW$238       .dwtag  DW_TAG_subprogram, DW_AT_name("ESP8266_GetStatus")
    5454                            .dwattr $C$DW$238, DW_AT_low_pc(ESP8266_GetStatus)
    5455                            .dwattr $C$DW$238, DW_AT_high_pc(0x00)
    5456                            .dwattr $C$DW$238, DW_AT_TI_symbol_name("ESP8266_GetStatus")
TI ARM Assembler PC v5.2.4 Sat Feb 06 22:51:21 2016

Tools Copyright (c) 1996-2015 Texas Instruments Incorporated
esp8266.asm                                                          PAGE  108

    5457                            .dwattr $C$DW$238, DW_AT_external
    5458                            .dwattr $C$DW$238, DW_AT_type(*$C$DW$T$10)
    5459                            .dwattr $C$DW$238, DW_AT_TI_begin_file("../esp8266.c")
    5460                            .dwattr $C$DW$238, DW_AT_TI_begin_line(0x25f)
    5461                            .dwattr $C$DW$238, DW_AT_TI_begin_column(0x05)
    5462                            .dwattr $C$DW$238, DW_AT_decl_file("../esp8266.c")
    5463                            .dwattr $C$DW$238, DW_AT_decl_line(0x25f)
    5464                            .dwattr $C$DW$238, DW_AT_decl_column(0x05)
    5465                            .dwattr $C$DW$238, DW_AT_TI_max_frame_size(0x08)
    5466                            .dwpsn  file "../esp8266.c",line 607,column 28,is_stmt,address ESP8266_GetStatus,isa 1
    5467                    
    5468                            .dwfde $C$DW$CIE, ESP8266_GetStatus
    5469                    ;----------------------------------------------------------------------
    5470                    ; 607 | int ESP8266_GetStatus(void){                                           
    5471                    ;----------------------------------------------------------------------
    5472                    
    5473                    ;*****************************************************************************
    5474                    ;* FUNCTION NAME: ESP8266_GetStatus                                          *
    5475                    ;*                                                                           *
    5476                    ;*   Regs Modified     : A1,A2,A3,A4,V9,SP,LR,SR,D0,D0_hi,D1,D1_hi,D2,D2_hi, *
    5477                    ;*                           D3,D3_hi,D4,D4_hi,D5,D5_hi,D6,D6_hi,D7,D7_hi,   *
    5478                    ;*                           FPEXC,FPSCR                                     *
    5479                    ;*   Regs Used         : A1,A2,A3,A4,V9,SP,LR,SR,D0,D0_hi,D1,D1_hi,D2,D2_hi, *
    5480                    ;*                           D3,D3_hi,D4,D4_hi,D5,D5_hi,D6,D6_hi,D7,D7_hi,   *
    5481                    ;*                           FPEXC,FPSCR                                     *
    5482                    ;*   Local Frame Size  : 0 Args + 4 Auto + 4 Save = 8 byte                   *
    5483                    ;*****************************************************************************
    5484 00000a20           ESP8266_GetStatus:
    5485                    ;* --------------------------------------------------------------------------*
    5486                            .dwcfi  cfa_offset, 0
    5487 00000a20 B508              PUSH      {A4, LR}              ; [DPU_3_PIPE]  ; [ORIG 16-BIT INS]
    5488                            .dwcfi  cfa_offset, 8
    5489                            .dwcfi  save_reg_to_mem, 14, -4
    5490                            .dwcfi  save_reg_to_mem, 3, -8
    5491                    $C$DW$239       .dwtag  DW_TAG_variable, DW_AT_name("try")
    5492                            .dwattr $C$DW$239, DW_AT_TI_symbol_name("try")
    5493                            .dwattr $C$DW$239, DW_AT_type(*$C$DW$T$10)
    5494                            .dwattr $C$DW$239, DW_AT_location[DW_OP_breg13 0]
    5495                            .dwpsn  file "../esp8266.c",line 608,column 10,is_stmt,isa 1
    5496                    ;----------------------------------------------------------------------
    5497                    ; 608 | int try=MAXTRY;                                                        
    5498                    ;----------------------------------------------------------------------
    5499 00000a22 200A              MOVS      A1, #10               ; [DPU_3_PIPE] |608|  ; [ORIG 16-BIT INS]
    5500 00000a24 9000              STR       A1, [SP, #0]          ; [DPU_3_PIPE] |608|  ; [ORIG 16-BIT INS]
    5501                            .dwpsn  file "../esp8266.c",line 609,column 3,is_stmt,isa 1
    5502                    ;----------------------------------------------------------------------
    5503                    ; 609 | SearchStart("ok");                                                     
    5504                    ;----------------------------------------------------------------------
    5505 00000a26 481B              LDR       A1, $C$CON48          ; [] |609|  ; [ORIG 16-BIT INS]
    5506                    $C$DW$240       .dwtag  DW_TAG_TI_branch
    5507                            .dwattr $C$DW$240, DW_AT_low_pc(0x00)
    5508                            .dwattr $C$DW$240, DW_AT_name("SearchStart")
    5509                            .dwattr $C$DW$240, DW_AT_TI_call
    5510 00000a28 FB00F7FF          BL        SearchStart           ; [DPU_3_PIPE] |609|  ; [KEEP 32-BIT INS]
    5511                            ; CALL OCCURS {SearchStart }     ; [] |609| 
TI ARM Assembler PC v5.2.4 Sat Feb 06 22:51:21 2016

Tools Copyright (c) 1996-2015 Texas Instruments Incorporated
esp8266.asm                                                          PAGE  109

    5512                            .dwpsn  file "../esp8266.c",line 610,column 3,is_stmt,isa 1
    5513                    ;----------------------------------------------------------------------
    5514                    ; 610 | while(try){                                                            
    5515                    ;----------------------------------------------------------------------
    5516 00000a2c 9800              LDR       A1, [SP, #0]          ; [DPU_3_PIPE] |610|  ; [ORIG 16-BIT INS]
    5517 00000a2e B188              CBZ       A1, ||$C$L96||        ; []  ; [ORIG 16-BIT INS]
    5518                            ; BRANCHCC OCCURS {||$C$L96||}   ; [] |610| 
    5519                    ;* --------------------------------------------------------------------------*
    5520                    ;*   BEGIN LOOP ||$C$L94||
    5521                    ;*
    5522                    ;*   Loop source line                : 610
    5523                    ;*   Loop closing brace source line  : 615
    5524                    ;*   Known Minimum Trip Count        : 1
    5525                    ;*   Known Maximum Trip Count        : 4294967295
    5526                    ;*   Known Max Trip Count Factor     : 1
    5527                    ;* --------------------------------------------------------------------------*
    5528 00000a30           ||$C$L94||:    
    5529                            .dwpsn  file "../esp8266.c",line 611,column 5,is_stmt,isa 1
    5530                    ;----------------------------------------------------------------------
    5531                    ; 611 | ESP8266SendCommand("AT+CIPSTATUS\r\n");                                
    5532                    ;----------------------------------------------------------------------
    5533 00000a30 A097              ADR       A1, $C$SL27           ; [DPU_3_PIPE] |611|  ; [ORIG 16-BIT INS]
    5534                    $C$DW$241       .dwtag  DW_TAG_TI_branch
    5535                            .dwattr $C$DW$241, DW_AT_low_pc(0x00)
    5536                            .dwattr $C$DW$241, DW_AT_name("ESP8266SendCommand")
    5537                            .dwattr $C$DW$241, DW_AT_TI_call
    5538 00000a32 FC67F7FF          BL        ESP8266SendCommand    ; [DPU_3_PIPE] |611|  ; [KEEP 32-BIT INS]
    5539                            ; CALL OCCURS {ESP8266SendCommand }  ; [] |611| 
    5540                            .dwpsn  file "../esp8266.c",line 612,column 5,is_stmt,isa 1
    5541                    ;----------------------------------------------------------------------
    5542                    ; 612 | DelayMsSearching(5000);                                                
    5543                    ;----------------------------------------------------------------------
    5544 00000a36 3088F241          MOV       A1, #5000             ; [DPU_3_PIPE] |612|  ; [KEEP 32-BIT INS]
    5545                    $C$DW$242       .dwtag  DW_TAG_TI_branch
    5546                            .dwattr $C$DW$242, DW_AT_low_pc(0x00)
    5547                            .dwattr $C$DW$242, DW_AT_name("DelayMsSearching")
    5548                            .dwattr $C$DW$242, DW_AT_TI_call
    5549 00000a3a FCA1F7FF          BL        DelayMsSearching      ; [DPU_3_PIPE] |612|  ; [KEEP 32-BIT INS]
    5550                            ; CALL OCCURS {DelayMsSearching }  ; [] |612| 
    5551                            .dwpsn  file "../esp8266.c",line 613,column 5,is_stmt,isa 1
    5552                    ;----------------------------------------------------------------------
    5553                    ; 613 | if(SearchFound) return 1; // success                                   
    5554                    ;----------------------------------------------------------------------
    5555 00000a3e 4826              LDR       A1, $C$CON49          ; [DPU_3_PIPE] |613|  ; [ORIG 16-BIT INS]
    5556 00000a40 7800              LDRB      A1, [A1, #0]          ; [DPU_3_PIPE] |613|  ; [ORIG 16-BIT INS]
    5557 00000a42 B108              CBZ       A1, ||$C$L95||        ; []  ; [ORIG 16-BIT INS]
    5558                            ; BRANCHCC OCCURS {||$C$L95||}   ; [] |613| 
    5559                    ;* --------------------------------------------------------------------------*
    5560                            .dwpsn  file "../esp8266.c",line 613,column 21,is_stmt,isa 1
    5561 00000a44 2001              MOVS      A1, #1                ; [DPU_3_PIPE] |613|  ; [ORIG 16-BIT INS]
    5562 00000a46 E006              B         ||$C$L97||            ; [DPU_3_PIPE] |613|  ; [ORIG 16-BIT INS]
    5563                            ; BRANCH OCCURS {||$C$L97||}     ; [] |613| 
    5564                    ;* --------------------------------------------------------------------------*
    5565 00000a48           ||$C$L95||:    
    5566                            .dwpsn  file "../esp8266.c",line 614,column 5,is_stmt,isa 1
TI ARM Assembler PC v5.2.4 Sat Feb 06 22:51:21 2016

Tools Copyright (c) 1996-2015 Texas Instruments Incorporated
esp8266.asm                                                          PAGE  110

    5567                    ;----------------------------------------------------------------------
    5568                    ; 614 | try--;                                                                 
    5569                    ;----------------------------------------------------------------------
    5570 00000a48 9800              LDR       A1, [SP, #0]          ; [DPU_3_PIPE] |614|  ; [ORIG 16-BIT INS]
    5571 00000a4a 1E40              SUBS      A1, A1, #1            ; [DPU_3_PIPE] |614|  ; [ORIG 16-BIT INS]
    5572 00000a4c 9000              STR       A1, [SP, #0]          ; [DPU_3_PIPE] |614|  ; [ORIG 16-BIT INS]
    5573                            .dwpsn  file "../esp8266.c",line 610,column 3,is_stmt,isa 1
    5574 00000a4e 9800              LDR       A1, [SP, #0]          ; [DPU_3_PIPE] |610|  ; [ORIG 16-BIT INS]
    5575 00000a50 2800              CMP       A1, #0                ; [DPU_3_PIPE] |610|  ; [ORIG 16-BIT INS]
    5576 00000a52 D1ED              BNE       ||$C$L94||            ; [DPU_3_PIPE] |610|  ; [ORIG 16-BIT INS]
    5577                            ; BRANCHCC OCCURS {||$C$L94||}   ; [] |610| 
    5578                    ;* --------------------------------------------------------------------------*
    5579 00000a54           ||$C$L96||:    
    5580                            .dwpsn  file "../esp8266.c",line 616,column 3,is_stmt,isa 1
    5581                    ;----------------------------------------------------------------------
    5582                    ; 616 | return 0; // fail                                                      
    5583                    ;----------------------------------------------------------------------
    5584 00000a54 2000              MOVS      A1, #0                ; [DPU_3_PIPE] |616|  ; [ORIG 16-BIT INS]
    5585                    ;* --------------------------------------------------------------------------*
    5586 00000a56           ||$C$L97||:    
    5587                            .dwpsn  file "../esp8266.c",line 617,column 1,is_stmt,isa 1
    5588                    $C$DW$243       .dwtag  DW_TAG_TI_branch
    5589                            .dwattr $C$DW$243, DW_AT_low_pc(0x00)
    5590                            .dwattr $C$DW$243, DW_AT_TI_return
    5591 00000a56 BD08              POP       {A4, PC}              ; [DPU_3_PIPE]  ; [ORIG 16-BIT INS]
    5592                            .dwcfi  cfa_offset, 0
    5593                            ; BRANCH OCCURS                  ; [] 
    5594                            .dwattr $C$DW$238, DW_AT_TI_end_file("../esp8266.c")
    5595                            .dwattr $C$DW$238, DW_AT_TI_end_line(0x269)
    5596                            .dwattr $C$DW$238, DW_AT_TI_end_column(0x01)
    5597                            .dwendentry
    5598                            .dwendtag $C$DW$238
    5599                    
    5600                    ;******************************************************************************
    5601                    ;* CONSTANT TABLE                                                             *
    5602                    ;******************************************************************************
    5603 00000a58                   .sect   ".text"
    5604                            .align  4
    5605 00000a58 00000000! ||$C$CON47||:   .bits   TXBuffer,32
    5606 00000a5c                   .sect   ".text"
    5607                            .clink
    5608                            .thumbfunc ESP8266_GetVersionNumber
    5609 00000a5c                   .thumb
    5610                            .global ESP8266_GetVersionNumber
    5611                    
    5612                    $C$DW$244       .dwtag  DW_TAG_subprogram, DW_AT_name("ESP8266_GetVersionNumber")
    5613                            .dwattr $C$DW$244, DW_AT_low_pc(ESP8266_GetVersionNumber)
    5614                            .dwattr $C$DW$244, DW_AT_high_pc(0x00)
    5615                            .dwattr $C$DW$244, DW_AT_TI_symbol_name("ESP8266_GetVersionNumber")
    5616                            .dwattr $C$DW$244, DW_AT_external
    5617                            .dwattr $C$DW$244, DW_AT_type(*$C$DW$T$10)
    5618                            .dwattr $C$DW$244, DW_AT_TI_begin_file("../esp8266.c")
    5619                            .dwattr $C$DW$244, DW_AT_TI_begin_line(0x26f)
    5620                            .dwattr $C$DW$244, DW_AT_TI_begin_column(0x05)
    5621                            .dwattr $C$DW$244, DW_AT_decl_file("../esp8266.c")
TI ARM Assembler PC v5.2.4 Sat Feb 06 22:51:21 2016

Tools Copyright (c) 1996-2015 Texas Instruments Incorporated
esp8266.asm                                                          PAGE  111

    5622                            .dwattr $C$DW$244, DW_AT_decl_line(0x26f)
    5623                            .dwattr $C$DW$244, DW_AT_decl_column(0x05)
    5624                            .dwattr $C$DW$244, DW_AT_TI_max_frame_size(0x08)
    5625                            .dwpsn  file "../esp8266.c",line 623,column 35,is_stmt,address ESP8266_GetVersionNumber,isa 1
    5626                    
    5627                            .dwfde $C$DW$CIE, ESP8266_GetVersionNumber
    5628                    ;----------------------------------------------------------------------
    5629                    ; 623 | int ESP8266_GetVersionNumber(void){                                    
    5630                    ;----------------------------------------------------------------------
    5631                    
    5632                    ;*****************************************************************************
    5633                    ;* FUNCTION NAME: ESP8266_GetVersionNumber                                   *
    5634                    ;*                                                                           *
    5635                    ;*   Regs Modified     : A1,A2,A3,A4,V9,SP,LR,SR,D0,D0_hi,D1,D1_hi,D2,D2_hi, *
    5636                    ;*                           D3,D3_hi,D4,D4_hi,D5,D5_hi,D6,D6_hi,D7,D7_hi,   *
    5637                    ;*                           FPEXC,FPSCR                                     *
    5638                    ;*   Regs Used         : A1,A2,A3,A4,V9,SP,LR,SR,D0,D0_hi,D1,D1_hi,D2,D2_hi, *
    5639                    ;*                           D3,D3_hi,D4,D4_hi,D5,D5_hi,D6,D6_hi,D7,D7_hi,   *
    5640                    ;*                           FPEXC,FPSCR                                     *
    5641                    ;*   Local Frame Size  : 0 Args + 4 Auto + 4 Save = 8 byte                   *
    5642                    ;*****************************************************************************
    5643 00000a5c           ESP8266_GetVersionNumber:
    5644                    ;* --------------------------------------------------------------------------*
    5645                            .dwcfi  cfa_offset, 0
    5646 00000a5c B508              PUSH      {A4, LR}              ; [DPU_3_PIPE]  ; [ORIG 16-BIT INS]
    5647                            .dwcfi  cfa_offset, 8
    5648                            .dwcfi  save_reg_to_mem, 14, -4
    5649                            .dwcfi  save_reg_to_mem, 3, -8
    5650                    $C$DW$245       .dwtag  DW_TAG_variable, DW_AT_name("try")
    5651                            .dwattr $C$DW$245, DW_AT_TI_symbol_name("try")
    5652                            .dwattr $C$DW$245, DW_AT_type(*$C$DW$T$10)
    5653                            .dwattr $C$DW$245, DW_AT_location[DW_OP_breg13 0]
    5654                            .dwpsn  file "../esp8266.c",line 624,column 10,is_stmt,isa 1
    5655                    ;----------------------------------------------------------------------
    5656                    ; 624 | int try=MAXTRY;                                                        
    5657                    ;----------------------------------------------------------------------
    5658 00000a5e 200A              MOVS      A1, #10               ; [DPU_3_PIPE] |624|  ; [ORIG 16-BIT INS]
    5659 00000a60 9000              STR       A1, [SP, #0]          ; [DPU_3_PIPE] |624|  ; [ORIG 16-BIT INS]
    5660                            .dwpsn  file "../esp8266.c",line 625,column 3,is_stmt,isa 1
    5661                    ;----------------------------------------------------------------------
    5662                    ; 625 | SearchStart("ok");                                                     
    5663                    ;----------------------------------------------------------------------
    5664 00000a62 480C              LDR       A1, $C$CON48          ; [] |625|  ; [ORIG 16-BIT INS]
    5665                    $C$DW$246       .dwtag  DW_TAG_TI_branch
    5666                            .dwattr $C$DW$246, DW_AT_low_pc(0x00)
    5667                            .dwattr $C$DW$246, DW_AT_name("SearchStart")
    5668                            .dwattr $C$DW$246, DW_AT_TI_call
    5669 00000a64 FAE2F7FF          BL        SearchStart           ; [DPU_3_PIPE] |625|  ; [KEEP 32-BIT INS]
    5670                            ; CALL OCCURS {SearchStart }     ; [] |625| 
    5671                            .dwpsn  file "../esp8266.c",line 626,column 3,is_stmt,isa 1
    5672                    ;----------------------------------------------------------------------
    5673                    ; 626 | while(try){                                                            
    5674                    ;----------------------------------------------------------------------
    5675 00000a68 9800              LDR       A1, [SP, #0]          ; [DPU_3_PIPE] |626|  ; [ORIG 16-BIT INS]
    5676 00000a6a B188              CBZ       A1, ||$C$L100||       ; []  ; [ORIG 16-BIT INS]
TI ARM Assembler PC v5.2.4 Sat Feb 06 22:51:21 2016

Tools Copyright (c) 1996-2015 Texas Instruments Incorporated
esp8266.asm                                                          PAGE  112

    5677                            ; BRANCHCC OCCURS {||$C$L100||}  ; [] |626| 
    5678                    ;* --------------------------------------------------------------------------*
    5679                    ;*   BEGIN LOOP ||$C$L98||
    5680                    ;*
    5681                    ;*   Loop source line                : 626
    5682                    ;*   Loop closing brace source line  : 631
    5683                    ;*   Known Minimum Trip Count        : 1
    5684                    ;*   Known Maximum Trip Count        : 4294967295
    5685                    ;*   Known Max Trip Count Factor     : 1
    5686                    ;* --------------------------------------------------------------------------*
    5687 00000a6c           ||$C$L98||:    
    5688                            .dwpsn  file "../esp8266.c",line 627,column 5,is_stmt,isa 1
    5689                    ;----------------------------------------------------------------------
    5690                    ; 627 | ESP8266SendCommand("AT+GMR\r\n");                                      
    5691                    ;----------------------------------------------------------------------
    5692 00000a6c A08C              ADR       A1, $C$SL28           ; [DPU_3_PIPE] |627|  ; [ORIG 16-BIT INS]
    5693                    $C$DW$247       .dwtag  DW_TAG_TI_branch
    5694                            .dwattr $C$DW$247, DW_AT_low_pc(0x00)
    5695                            .dwattr $C$DW$247, DW_AT_name("ESP8266SendCommand")
    5696                            .dwattr $C$DW$247, DW_AT_TI_call
    5697 00000a6e FC49F7FF          BL        ESP8266SendCommand    ; [DPU_3_PIPE] |627|  ; [KEEP 32-BIT INS]
    5698                            ; CALL OCCURS {ESP8266SendCommand }  ; [] |627| 
    5699                            .dwpsn  file "../esp8266.c",line 628,column 5,is_stmt,isa 1
    5700                    ;----------------------------------------------------------------------
    5701                    ; 628 | DelayMsSearching(500);                                                 
    5702                    ;----------------------------------------------------------------------
    5703 00000a72 70FAF44F          MOV       A1, #500              ; [DPU_3_PIPE] |628|  ; [KEEP 32-BIT INS]
    5704                    $C$DW$248       .dwtag  DW_TAG_TI_branch
    5705                            .dwattr $C$DW$248, DW_AT_low_pc(0x00)
    5706                            .dwattr $C$DW$248, DW_AT_name("DelayMsSearching")
    5707                            .dwattr $C$DW$248, DW_AT_TI_call
    5708 00000a76 FC83F7FF          BL        DelayMsSearching      ; [DPU_3_PIPE] |628|  ; [KEEP 32-BIT INS]
    5709                            ; CALL OCCURS {DelayMsSearching }  ; [] |628| 
    5710                            .dwpsn  file "../esp8266.c",line 629,column 5,is_stmt,isa 1
    5711                    ;----------------------------------------------------------------------
    5712                    ; 629 | if(SearchFound) return 1; // success                                   
    5713                    ;----------------------------------------------------------------------
    5714 00000a7a 4817              LDR       A1, $C$CON49          ; [DPU_3_PIPE] |629|  ; [ORIG 16-BIT INS]
    5715 00000a7c 7800              LDRB      A1, [A1, #0]          ; [DPU_3_PIPE] |629|  ; [ORIG 16-BIT INS]
    5716 00000a7e B108              CBZ       A1, ||$C$L99||        ; []  ; [ORIG 16-BIT INS]
    5717                            ; BRANCHCC OCCURS {||$C$L99||}   ; [] |629| 
    5718                    ;* --------------------------------------------------------------------------*
    5719                            .dwpsn  file "../esp8266.c",line 629,column 21,is_stmt,isa 1
    5720 00000a80 2001              MOVS      A1, #1                ; [DPU_3_PIPE] |629|  ; [ORIG 16-BIT INS]
    5721 00000a82 E006              B         ||$C$L101||           ; [DPU_3_PIPE] |629|  ; [ORIG 16-BIT INS]
    5722                            ; BRANCH OCCURS {||$C$L101||}    ; [] |629| 
    5723                    ;* --------------------------------------------------------------------------*
    5724 00000a84           ||$C$L99||:    
    5725                            .dwpsn  file "../esp8266.c",line 630,column 5,is_stmt,isa 1
    5726                    ;----------------------------------------------------------------------
    5727                    ; 630 | try--;                                                                 
    5728                    ;----------------------------------------------------------------------
    5729 00000a84 9800              LDR       A1, [SP, #0]          ; [DPU_3_PIPE] |630|  ; [ORIG 16-BIT INS]
    5730 00000a86 1E40              SUBS      A1, A1, #1            ; [DPU_3_PIPE] |630|  ; [ORIG 16-BIT INS]
    5731 00000a88 9000              STR       A1, [SP, #0]          ; [DPU_3_PIPE] |630|  ; [ORIG 16-BIT INS]
TI ARM Assembler PC v5.2.4 Sat Feb 06 22:51:21 2016

Tools Copyright (c) 1996-2015 Texas Instruments Incorporated
esp8266.asm                                                          PAGE  113

    5732                            .dwpsn  file "../esp8266.c",line 626,column 3,is_stmt,isa 1
    5733 00000a8a 9800              LDR       A1, [SP, #0]          ; [DPU_3_PIPE] |626|  ; [ORIG 16-BIT INS]
    5734 00000a8c 2800              CMP       A1, #0                ; [DPU_3_PIPE] |626|  ; [ORIG 16-BIT INS]
    5735 00000a8e D1ED              BNE       ||$C$L98||            ; [DPU_3_PIPE] |626|  ; [ORIG 16-BIT INS]
    5736                            ; BRANCHCC OCCURS {||$C$L98||}   ; [] |626| 
    5737                    ;* --------------------------------------------------------------------------*
    5738 00000a90           ||$C$L100||:    
    5739                            .dwpsn  file "../esp8266.c",line 632,column 3,is_stmt,isa 1
    5740                    ;----------------------------------------------------------------------
    5741                    ; 632 | return 0; // fail                                                      
    5742                    ;----------------------------------------------------------------------
    5743 00000a90 2000              MOVS      A1, #0                ; [DPU_3_PIPE] |632|  ; [ORIG 16-BIT INS]
    5744                    ;* --------------------------------------------------------------------------*
    5745 00000a92           ||$C$L101||:    
    5746                            .dwpsn  file "../esp8266.c",line 633,column 1,is_stmt,isa 1
    5747                    $C$DW$249       .dwtag  DW_TAG_TI_branch
    5748                            .dwattr $C$DW$249, DW_AT_low_pc(0x00)
    5749                            .dwattr $C$DW$249, DW_AT_TI_return
    5750 00000a92 BD08              POP       {A4, PC}              ; [DPU_3_PIPE]  ; [ORIG 16-BIT INS]
    5751                            .dwcfi  cfa_offset, 0
    5752                            ; BRANCH OCCURS                  ; [] 
    5753                            .dwattr $C$DW$244, DW_AT_TI_end_file("../esp8266.c")
    5754                            .dwattr $C$DW$244, DW_AT_TI_end_line(0x279)
    5755                            .dwattr $C$DW$244, DW_AT_TI_end_column(0x01)
    5756                            .dwendentry
    5757                            .dwendtag $C$DW$244
    5758                    
    5759                    ;******************************************************************************
    5760                    ;* CONSTANT TABLE                                                             *
    5761                    ;******************************************************************************
    5762 00000a94                   .sect   ".text"
    5763                            .align  4
    5764 00000a94 00000000! ||$C$CON48||:   .bits   $C$SL16,32
    5765 00000a98                   .sect   ".text"
    5766                            .clink
    5767                            .thumbfunc ESP8266_SetServerTimeout
    5768 00000a98                   .thumb
    5769                            .global ESP8266_SetServerTimeout
    5770                    
    5771                    $C$DW$250       .dwtag  DW_TAG_subprogram, DW_AT_name("ESP8266_SetServerTimeout")
    5772                            .dwattr $C$DW$250, DW_AT_low_pc(ESP8266_SetServerTimeout)
    5773                            .dwattr $C$DW$250, DW_AT_high_pc(0x00)
    5774                            .dwattr $C$DW$250, DW_AT_TI_symbol_name("ESP8266_SetServerTimeout")
    5775                            .dwattr $C$DW$250, DW_AT_external
    5776                            .dwattr $C$DW$250, DW_AT_TI_begin_file("../esp8266.c")
    5777                            .dwattr $C$DW$250, DW_AT_TI_begin_line(0x29b)
    5778                            .dwattr $C$DW$250, DW_AT_TI_begin_column(0x06)
    5779                            .dwattr $C$DW$250, DW_AT_decl_file("../esp8266.c")
    5780                            .dwattr $C$DW$250, DW_AT_decl_line(0x29b)
    5781                            .dwattr $C$DW$250, DW_AT_decl_column(0x06)
    5782                            .dwattr $C$DW$250, DW_AT_TI_max_frame_size(0x08)
    5783                            .dwpsn  file "../esp8266.c",line 667,column 48,is_stmt,address ESP8266_SetServerTimeout,isa 1
    5784                    
    5785                            .dwfde $C$DW$CIE, ESP8266_SetServerTimeout
    5786                    $C$DW$251       .dwtag  DW_TAG_formal_parameter, DW_AT_name("timeout")
TI ARM Assembler PC v5.2.4 Sat Feb 06 22:51:21 2016

Tools Copyright (c) 1996-2015 Texas Instruments Incorporated
esp8266.asm                                                          PAGE  114

    5787                            .dwattr $C$DW$251, DW_AT_TI_symbol_name("timeout")
    5788                            .dwattr $C$DW$251, DW_AT_type(*$C$DW$T$47)
    5789                            .dwattr $C$DW$251, DW_AT_location[DW_OP_reg0]
    5790                    
    5791                    ;*****************************************************************************
    5792                    ;* FUNCTION NAME: ESP8266_SetServerTimeout                                   *
    5793                    ;*                                                                           *
    5794                    ;*   Regs Modified     : A1,A2,A3,A4,V9,SP,LR,SR,D0,D0_hi,D1,D1_hi,D2,D2_hi, *
    5795                    ;*                           D3,D3_hi,D4,D4_hi,D5,D5_hi,D6,D6_hi,D7,D7_hi,   *
    5796                    ;*                           FPEXC,FPSCR                                     *
    5797                    ;*   Regs Used         : A1,A2,A3,A4,V9,SP,LR,SR,D0,D0_hi,D1,D1_hi,D2,D2_hi, *
    5798                    ;*                           D3,D3_hi,D4,D4_hi,D5,D5_hi,D6,D6_hi,D7,D7_hi,   *
    5799                    ;*                           FPEXC,FPSCR                                     *
    5800                    ;*   Local Frame Size  : 0 Args + 4 Auto + 4 Save = 8 byte                   *
    5801                    ;*****************************************************************************
    5802 00000a98           ESP8266_SetServerTimeout:
    5803                    ;* --------------------------------------------------------------------------*
    5804                            .dwcfi  cfa_offset, 0
    5805 00000a98 B508              PUSH      {A4, LR}              ; [DPU_3_PIPE]  ; [ORIG 16-BIT INS]
    5806                            .dwcfi  cfa_offset, 8
    5807                            .dwcfi  save_reg_to_mem, 14, -4
    5808                            .dwcfi  save_reg_to_mem, 3, -8
    5809                    $C$DW$252       .dwtag  DW_TAG_variable, DW_AT_name("timeout")
    5810                            .dwattr $C$DW$252, DW_AT_TI_symbol_name("timeout")
    5811                            .dwattr $C$DW$252, DW_AT_type(*$C$DW$T$47)
    5812                            .dwattr $C$DW$252, DW_AT_location[DW_OP_breg13 0]
    5813                    ;----------------------------------------------------------------------
    5814                    ; 667 | void ESP8266_SetServerTimeout(uint16_t timeout){                       
    5815                    ;----------------------------------------------------------------------
    5816 00000a9a 0000F8AD          STRH      A1, [SP, #0]          ; [DPU_3_PIPE] |667|  ; [KEEP 32-BIT INS]
    5817                            .dwpsn  file "../esp8266.c",line 668,column 3,is_stmt,isa 1
    5818                    ;----------------------------------------------------------------------
    5819                    ; 668 | ESP8266_ServerTimeout = timeout;                                       
    5820                    ;----------------------------------------------------------------------
    5821 00000a9e 49A2              LDR       A2, $C$CON51          ; [DPU_3_PIPE] |668|  ; [ORIG 16-BIT INS]
    5822 00000aa0 0000F8BD          LDRH      A1, [SP, #0]          ; [DPU_3_PIPE] |668|  ; [KEEP 32-BIT INS]
    5823 00000aa4 8008              STRH      A1, [A2, #0]          ; [DPU_3_PIPE] |668|  ; [ORIG 16-BIT INS]
    5824                            .dwpsn  file "../esp8266.c",line 669,column 3,is_stmt,isa 1
    5825                    ;----------------------------------------------------------------------
    5826                    ; 669 | sprintf((char*)TXBuffer, "AT+CIPSTO=%d\r\n", ESP8266_ServerTimeout);   
    5827                    ;----------------------------------------------------------------------
    5828 00000aa6 48A0              LDR       A1, $C$CON51          ; [DPU_3_PIPE] |669|  ; [ORIG 16-BIT INS]
    5829 00000aa8 8802              LDRH      A3, [A1, #0]          ; [DPU_3_PIPE] |669|  ; [ORIG 16-BIT INS]
    5830 00000aaa 48A0              LDR       A1, $C$CON52          ; [DPU_3_PIPE] |669|  ; [ORIG 16-BIT INS]
    5831 00000aac A17F              ADR       A2, $C$SL29           ; [DPU_3_PIPE] |669|  ; [ORIG 16-BIT INS]
    5832                    $C$DW$253       .dwtag  DW_TAG_TI_branch
    5833                            .dwattr $C$DW$253, DW_AT_low_pc(0x00)
    5834                            .dwattr $C$DW$253, DW_AT_name("sprintf")
    5835                            .dwattr $C$DW$253, DW_AT_TI_call
    5836 00000aae FFFEF7FF!         BL        sprintf               ; [DPU_3_PIPE] |669|  ; [KEEP 32-BIT INS]
    5837                            ; CALL OCCURS {sprintf }         ; [] |669| 
    5838                            .dwpsn  file "../esp8266.c",line 670,column 3,is_stmt,isa 1
    5839                    ;----------------------------------------------------------------------
    5840                    ; 670 | ESP8266SendCommand((const char*)TXBuffer);                             
    5841                    ;----------------------------------------------------------------------
TI ARM Assembler PC v5.2.4 Sat Feb 06 22:51:21 2016

Tools Copyright (c) 1996-2015 Texas Instruments Incorporated
esp8266.asm                                                          PAGE  115

    5842 00000ab2 489E              LDR       A1, $C$CON52          ; [DPU_3_PIPE] |670|  ; [ORIG 16-BIT INS]
    5843                    $C$DW$254       .dwtag  DW_TAG_TI_branch
    5844                            .dwattr $C$DW$254, DW_AT_low_pc(0x00)
    5845                            .dwattr $C$DW$254, DW_AT_name("ESP8266SendCommand")
    5846                            .dwattr $C$DW$254, DW_AT_TI_call
    5847 00000ab4 FC26F7FF          BL        ESP8266SendCommand    ; [DPU_3_PIPE] |670|  ; [KEEP 32-BIT INS]
    5848                            ; CALL OCCURS {ESP8266SendCommand }  ; [] |670| 
    5849                            .dwpsn  file "../esp8266.c",line 671,column 1,is_stmt,isa 1
    5850                    $C$DW$255       .dwtag  DW_TAG_TI_branch
    5851                            .dwattr $C$DW$255, DW_AT_low_pc(0x00)
    5852                            .dwattr $C$DW$255, DW_AT_TI_return
    5853 00000ab8 BD08              POP       {A4, PC}              ; [DPU_3_PIPE]  ; [ORIG 16-BIT INS]
    5854                            .dwcfi  cfa_offset, 0
    5855                            ; BRANCH OCCURS                  ; [] 
    5856                            .dwattr $C$DW$250, DW_AT_TI_end_file("../esp8266.c")
    5857                            .dwattr $C$DW$250, DW_AT_TI_end_line(0x29f)
    5858                            .dwattr $C$DW$250, DW_AT_TI_end_column(0x01)
    5859                            .dwendentry
    5860                            .dwendtag $C$DW$250
    5861                    
    5862                    ;******************************************************************************
    5863                    ;* STRINGS                                                                    *
    5864                    ;******************************************************************************
    5865 00000aba                   .sect   ".text"
    5866                            .align  4
    5867 00000abc 41        ||$C$SL21||:    .string "AT+CWSAP=",34,"%s",34,",",34,"%s",34,",%d,%d",13,10,0
         00000abd 54       
         00000abe 2B       
         00000abf 43       
         00000ac0 57       
         00000ac1 53       
         00000ac2 41       
         00000ac3 50       
         00000ac4 3D       
         00000ac5 22       
         00000ac6 25       
         00000ac7 73       
         00000ac8 22       
         00000ac9 2C       
         00000aca 22       
         00000acb 25       
         00000acc 73       
         00000acd 22       
         00000ace 2C       
         00000acf 25       
         00000ad0 64       
         00000ad1 2C       
         00000ad2 25       
         00000ad3 64       
         00000ad4 0D       
         00000ad5 0A       
         00000ad6 00       
    5868                    ;******************************************************************************
    5869                    ;* CONSTANT TABLE                                                             *
    5870                    ;******************************************************************************
TI ARM Assembler PC v5.2.4 Sat Feb 06 22:51:21 2016

Tools Copyright (c) 1996-2015 Texas Instruments Incorporated
esp8266.asm                                                          PAGE  116

    5871 00000ad7                   .sect   ".text"
    5872                            .align  4
    5873 00000ad6 0000C000! ||$C$CON49||:   .bits   SearchFound,32
         00000ada 00000000 
    5874 00000adc                   .sect   ".text"
    5875                            .clink
    5876                            .thumbfunc ESP8266_EnableServer
    5877 00000adc                   .thumb
    5878                            .global ESP8266_EnableServer
    5879                    
    5880                    $C$DW$256       .dwtag  DW_TAG_subprogram, DW_AT_name("ESP8266_EnableServer")
    5881                            .dwattr $C$DW$256, DW_AT_low_pc(ESP8266_EnableServer)
    5882                            .dwattr $C$DW$256, DW_AT_high_pc(0x00)
    5883                            .dwattr $C$DW$256, DW_AT_TI_symbol_name("ESP8266_EnableServer")
    5884                            .dwattr $C$DW$256, DW_AT_external
    5885                            .dwattr $C$DW$256, DW_AT_TI_begin_file("../esp8266.c")
    5886                            .dwattr $C$DW$256, DW_AT_TI_begin_line(0x2a6)
    5887                            .dwattr $C$DW$256, DW_AT_TI_begin_column(0x06)
    5888                            .dwattr $C$DW$256, DW_AT_decl_file("../esp8266.c")
    5889                            .dwattr $C$DW$256, DW_AT_decl_line(0x2a6)
    5890                            .dwattr $C$DW$256, DW_AT_decl_column(0x06)
    5891                            .dwattr $C$DW$256, DW_AT_TI_max_frame_size(0x08)
    5892                            .dwpsn  file "../esp8266.c",line 678,column 41,is_stmt,address ESP8266_EnableServer,isa 1
    5893                    
    5894                            .dwfde $C$DW$CIE, ESP8266_EnableServer
    5895                    $C$DW$257       .dwtag  DW_TAG_formal_parameter, DW_AT_name("port")
    5896                            .dwattr $C$DW$257, DW_AT_TI_symbol_name("port")
    5897                            .dwattr $C$DW$257, DW_AT_type(*$C$DW$T$47)
    5898                            .dwattr $C$DW$257, DW_AT_location[DW_OP_reg0]
    5899                    
    5900                    ;*****************************************************************************
    5901                    ;* FUNCTION NAME: ESP8266_EnableServer                                       *
    5902                    ;*                                                                           *
    5903                    ;*   Regs Modified     : A1,A2,A3,A4,V9,SP,LR,SR,D0,D0_hi,D1,D1_hi,D2,D2_hi, *
    5904                    ;*                           D3,D3_hi,D4,D4_hi,D5,D5_hi,D6,D6_hi,D7,D7_hi,   *
    5905                    ;*                           FPEXC,FPSCR                                     *
    5906                    ;*   Regs Used         : A1,A2,A3,A4,V9,SP,LR,SR,D0,D0_hi,D1,D1_hi,D2,D2_hi, *
    5907                    ;*                           D3,D3_hi,D4,D4_hi,D5,D5_hi,D6,D6_hi,D7,D7_hi,   *
    5908                    ;*                           FPEXC,FPSCR                                     *
    5909                    ;*   Local Frame Size  : 0 Args + 4 Auto + 4 Save = 8 byte                   *
    5910                    ;*****************************************************************************
    5911 00000adc           ESP8266_EnableServer:
    5912                    ;* --------------------------------------------------------------------------*
    5913                            .dwcfi  cfa_offset, 0
    5914 00000adc B508              PUSH      {A4, LR}              ; [DPU_3_PIPE]  ; [ORIG 16-BIT INS]
    5915                            .dwcfi  cfa_offset, 8
    5916                            .dwcfi  save_reg_to_mem, 14, -4
    5917                            .dwcfi  save_reg_to_mem, 3, -8
    5918                    $C$DW$258       .dwtag  DW_TAG_variable, DW_AT_name("port")
    5919                            .dwattr $C$DW$258, DW_AT_TI_symbol_name("port")
    5920                            .dwattr $C$DW$258, DW_AT_type(*$C$DW$T$47)
    5921                            .dwattr $C$DW$258, DW_AT_location[DW_OP_breg13 0]
    5922                    ;----------------------------------------------------------------------
    5923                    ; 678 | void ESP8266_EnableServer(uint16_t port){                              
    5924                    ;----------------------------------------------------------------------
TI ARM Assembler PC v5.2.4 Sat Feb 06 22:51:21 2016

Tools Copyright (c) 1996-2015 Texas Instruments Incorporated
esp8266.asm                                                          PAGE  117

    5925 00000ade 0000F8AD          STRH      A1, [SP, #0]          ; [DPU_3_PIPE] |678|  ; [KEEP 32-BIT INS]
    5926                            .dwpsn  file "../esp8266.c",line 679,column 3,is_stmt,isa 1
    5927                    ;----------------------------------------------------------------------
    5928                    ; 679 | ESP8266_ServerPort = port;                                             
    5929                    ;----------------------------------------------------------------------
    5930 00000ae2 4993              LDR       A2, $C$CON53          ; [DPU_3_PIPE] |679|  ; [ORIG 16-BIT INS]
    5931 00000ae4 0000F8BD          LDRH      A1, [SP, #0]          ; [DPU_3_PIPE] |679|  ; [KEEP 32-BIT INS]
    5932 00000ae8 8008              STRH      A1, [A2, #0]          ; [DPU_3_PIPE] |679|  ; [ORIG 16-BIT INS]
    5933                            .dwpsn  file "../esp8266.c",line 680,column 3,is_stmt,isa 1
    5934                    ;----------------------------------------------------------------------
    5935                    ; 680 | sprintf((char*)TXBuffer, "AT+CIPSERVER=1,%d\r\n", ESP8266_ServerPort); 
    5936                    ;----------------------------------------------------------------------
    5937 00000aea 4891              LDR       A1, $C$CON53          ; [DPU_3_PIPE] |680|  ; [ORIG 16-BIT INS]
    5938 00000aec 8802              LDRH      A3, [A1, #0]          ; [DPU_3_PIPE] |680|  ; [ORIG 16-BIT INS]
    5939 00000aee 488F              LDR       A1, $C$CON52          ; [DPU_3_PIPE] |680|  ; [ORIG 16-BIT INS]
    5940 00000af0 A172              ADR       A2, $C$SL30           ; [DPU_3_PIPE] |680|  ; [ORIG 16-BIT INS]
    5941                    $C$DW$259       .dwtag  DW_TAG_TI_branch
    5942                            .dwattr $C$DW$259, DW_AT_low_pc(0x00)
    5943                            .dwattr $C$DW$259, DW_AT_name("sprintf")
    5944                            .dwattr $C$DW$259, DW_AT_TI_call
    5945 00000af2 FFFEF7FF!         BL        sprintf               ; [DPU_3_PIPE] |680|  ; [KEEP 32-BIT INS]
    5946                            ; CALL OCCURS {sprintf }         ; [] |680| 
    5947                            .dwpsn  file "../esp8266.c",line 681,column 3,is_stmt,isa 1
    5948                    ;----------------------------------------------------------------------
    5949                    ; 681 | ESP8266SendCommand((const char*)TXBuffer);                             
    5950                    ;----------------------------------------------------------------------
    5951 00000af6 488D              LDR       A1, $C$CON52          ; [DPU_3_PIPE] |681|  ; [ORIG 16-BIT INS]
    5952                    $C$DW$260       .dwtag  DW_TAG_TI_branch
    5953                            .dwattr $C$DW$260, DW_AT_low_pc(0x00)
    5954                            .dwattr $C$DW$260, DW_AT_name("ESP8266SendCommand")
    5955                            .dwattr $C$DW$260, DW_AT_TI_call
    5956 00000af8 FC04F7FF          BL        ESP8266SendCommand    ; [DPU_3_PIPE] |681|  ; [KEEP 32-BIT INS]
    5957                            ; CALL OCCURS {ESP8266SendCommand }  ; [] |681| 
    5958                            .dwpsn  file "../esp8266.c",line 682,column 1,is_stmt,isa 1
    5959                    $C$DW$261       .dwtag  DW_TAG_TI_branch
    5960                            .dwattr $C$DW$261, DW_AT_low_pc(0x00)
    5961                            .dwattr $C$DW$261, DW_AT_TI_return
    5962 00000afc BD08              POP       {A4, PC}              ; [DPU_3_PIPE]  ; [ORIG 16-BIT INS]
    5963                            .dwcfi  cfa_offset, 0
    5964                            ; BRANCH OCCURS                  ; [] 
    5965                            .dwattr $C$DW$256, DW_AT_TI_end_file("../esp8266.c")
    5966                            .dwattr $C$DW$256, DW_AT_TI_end_line(0x2aa)
    5967                            .dwattr $C$DW$256, DW_AT_TI_end_column(0x01)
    5968                            .dwendentry
    5969                            .dwendtag $C$DW$256
    5970                    
    5971                    ;******************************************************************************
    5972                    ;* STRINGS                                                                    *
    5973                    ;******************************************************************************
    5974 00000afe                   .sect   ".text"
    5975                            .align  4
    5976 00000b00 41        ||$C$SL22||:    .string "AT+CIFSR",13,10,0
         00000b01 54       
         00000b02 2B       
         00000b03 43       
TI ARM Assembler PC v5.2.4 Sat Feb 06 22:51:21 2016

Tools Copyright (c) 1996-2015 Texas Instruments Incorporated
esp8266.asm                                                          PAGE  118

         00000b04 49       
         00000b05 46       
         00000b06 53       
         00000b07 52       
         00000b08 0D       
         00000b09 0A       
         00000b0a 00       
    5977 00000b0b                   .sect   ".text"
    5978                            .clink
    5979                            .thumbfunc ESP8266_DisableServer
    5980 00000b0c                   .thumb
    5981                            .global ESP8266_DisableServer
    5982                    
    5983                    $C$DW$262       .dwtag  DW_TAG_subprogram, DW_AT_name("ESP8266_DisableServer")
    5984                            .dwattr $C$DW$262, DW_AT_low_pc(ESP8266_DisableServer)
    5985                            .dwattr $C$DW$262, DW_AT_high_pc(0x00)
    5986                            .dwattr $C$DW$262, DW_AT_TI_symbol_name("ESP8266_DisableServer")
    5987                            .dwattr $C$DW$262, DW_AT_external
    5988                            .dwattr $C$DW$262, DW_AT_type(*$C$DW$T$10)
    5989                            .dwattr $C$DW$262, DW_AT_TI_begin_file("../esp8266.c")
    5990                            .dwattr $C$DW$262, DW_AT_TI_begin_line(0x2b2)
    5991                            .dwattr $C$DW$262, DW_AT_TI_begin_column(0x05)
    5992                            .dwattr $C$DW$262, DW_AT_decl_file("../esp8266.c")
    5993                            .dwattr $C$DW$262, DW_AT_decl_line(0x2b2)
    5994                            .dwattr $C$DW$262, DW_AT_decl_column(0x05)
    5995                            .dwattr $C$DW$262, DW_AT_TI_max_frame_size(0x08)
    5996                            .dwpsn  file "../esp8266.c",line 690,column 32,is_stmt,address ESP8266_DisableServer,isa 1
    5997                    
    5998                            .dwfde $C$DW$CIE, ESP8266_DisableServer
    5999                    ;----------------------------------------------------------------------
    6000                    ; 690 | int ESP8266_DisableServer(void){                                       
    6001                    ;----------------------------------------------------------------------
    6002                    
    6003                    ;*****************************************************************************
    6004                    ;* FUNCTION NAME: ESP8266_DisableServer                                      *
    6005                    ;*                                                                           *
    6006                    ;*   Regs Modified     : A1,A2,A3,A4,V9,SP,LR,SR,D0,D0_hi,D1,D1_hi,D2,D2_hi, *
    6007                    ;*                           D3,D3_hi,D4,D4_hi,D5,D5_hi,D6,D6_hi,D7,D7_hi,   *
    6008                    ;*                           FPEXC,FPSCR                                     *
    6009                    ;*   Regs Used         : A1,A2,A3,A4,V9,SP,LR,SR,D0,D0_hi,D1,D1_hi,D2,D2_hi, *
    6010                    ;*                           D3,D3_hi,D4,D4_hi,D5,D5_hi,D6,D6_hi,D7,D7_hi,   *
    6011                    ;*                           FPEXC,FPSCR                                     *
    6012                    ;*   Local Frame Size  : 0 Args + 4 Auto + 4 Save = 8 byte                   *
    6013                    ;*****************************************************************************
    6014 00000b0c           ESP8266_DisableServer:
    6015                    ;* --------------------------------------------------------------------------*
    6016                            .dwcfi  cfa_offset, 0
    6017 00000b0c B508              PUSH      {A4, LR}              ; [DPU_3_PIPE]  ; [ORIG 16-BIT INS]
    6018                            .dwcfi  cfa_offset, 8
    6019                            .dwcfi  save_reg_to_mem, 14, -4
    6020                            .dwcfi  save_reg_to_mem, 3, -8
    6021                    $C$DW$263       .dwtag  DW_TAG_variable, DW_AT_name("try")
    6022                            .dwattr $C$DW$263, DW_AT_TI_symbol_name("try")
    6023                            .dwattr $C$DW$263, DW_AT_type(*$C$DW$T$10)
    6024                            .dwattr $C$DW$263, DW_AT_location[DW_OP_breg13 0]
TI ARM Assembler PC v5.2.4 Sat Feb 06 22:51:21 2016

Tools Copyright (c) 1996-2015 Texas Instruments Incorporated
esp8266.asm                                                          PAGE  119

    6025                            .dwpsn  file "../esp8266.c",line 691,column 10,is_stmt,isa 1
    6026                    ;----------------------------------------------------------------------
    6027                    ; 691 | int try=MAXTRY;                                                        
    6028                    ;----------------------------------------------------------------------
    6029 00000b0e 200A              MOVS      A1, #10               ; [DPU_3_PIPE] |691|  ; [ORIG 16-BIT INS]
    6030 00000b10 9000              STR       A1, [SP, #0]          ; [DPU_3_PIPE] |691|  ; [ORIG 16-BIT INS]
    6031                            .dwpsn  file "../esp8266.c",line 692,column 3,is_stmt,isa 1
    6032                    ;----------------------------------------------------------------------
    6033                    ; 692 | SearchStart("ok");                                                     
    6034                    ;----------------------------------------------------------------------
    6035 00000b12 4888              LDR       A1, $C$CON54          ; [] |692|  ; [ORIG 16-BIT INS]
    6036                    $C$DW$264       .dwtag  DW_TAG_TI_branch
    6037                            .dwattr $C$DW$264, DW_AT_low_pc(0x00)
    6038                            .dwattr $C$DW$264, DW_AT_name("SearchStart")
    6039                            .dwattr $C$DW$264, DW_AT_TI_call
    6040 00000b14 FA8AF7FF          BL        SearchStart           ; [DPU_3_PIPE] |692|  ; [KEEP 32-BIT INS]
    6041                            ; CALL OCCURS {SearchStart }     ; [] |692| 
    6042                            .dwpsn  file "../esp8266.c",line 693,column 3,is_stmt,isa 1
    6043                    ;----------------------------------------------------------------------
    6044                    ; 693 | while(try){                                                            
    6045                    ;----------------------------------------------------------------------
    6046 00000b18 9800              LDR       A1, [SP, #0]          ; [DPU_3_PIPE] |693|  ; [ORIG 16-BIT INS]
    6047 00000b1a B1B8              CBZ       A1, ||$C$L104||       ; []  ; [ORIG 16-BIT INS]
    6048                            ; BRANCHCC OCCURS {||$C$L104||}  ; [] |693| 
    6049                    ;* --------------------------------------------------------------------------*
    6050                    ;*   BEGIN LOOP ||$C$L102||
    6051                    ;*
    6052                    ;*   Loop source line                : 693
    6053                    ;*   Loop closing brace source line  : 699
    6054                    ;*   Known Minimum Trip Count        : 1
    6055                    ;*   Known Maximum Trip Count        : 4294967295
    6056                    ;*   Known Max Trip Count Factor     : 1
    6057                    ;* --------------------------------------------------------------------------*
    6058 00000b1c           ||$C$L102||:    
    6059                            .dwpsn  file "../esp8266.c",line 694,column 5,is_stmt,isa 1
    6060                    ;----------------------------------------------------------------------
    6061                    ; 694 | sprintf((char*)TXBuffer, "AT+CIPSERVER=0,%d\r\n", ESP8266_ServerPort); 
    6062                    ;----------------------------------------------------------------------
    6063 00000b1c 4884              LDR       A1, $C$CON53          ; [DPU_3_PIPE] |694|  ; [ORIG 16-BIT INS]
    6064 00000b1e 8802              LDRH      A3, [A1, #0]          ; [DPU_3_PIPE] |694|  ; [ORIG 16-BIT INS]
    6065 00000b20 4882              LDR       A1, $C$CON52          ; [DPU_3_PIPE] |694|  ; [ORIG 16-BIT INS]
    6066 00000b22 A16B              ADR       A2, $C$SL31           ; [DPU_3_PIPE] |694|  ; [ORIG 16-BIT INS]
    6067                    $C$DW$265       .dwtag  DW_TAG_TI_branch
    6068                            .dwattr $C$DW$265, DW_AT_low_pc(0x00)
    6069                            .dwattr $C$DW$265, DW_AT_name("sprintf")
    6070                            .dwattr $C$DW$265, DW_AT_TI_call
    6071 00000b24 FFFEF7FF!         BL        sprintf               ; [DPU_3_PIPE] |694|  ; [KEEP 32-BIT INS]
    6072                            ; CALL OCCURS {sprintf }         ; [] |694| 
    6073                            .dwpsn  file "../esp8266.c",line 695,column 5,is_stmt,isa 1
    6074                    ;----------------------------------------------------------------------
    6075                    ; 695 | ESP8266SendCommand((const char*)TXBuffer);                             
    6076                    ;----------------------------------------------------------------------
    6077 00000b28 4880              LDR       A1, $C$CON52          ; [DPU_3_PIPE] |695|  ; [ORIG 16-BIT INS]
    6078                    $C$DW$266       .dwtag  DW_TAG_TI_branch
    6079                            .dwattr $C$DW$266, DW_AT_low_pc(0x00)
TI ARM Assembler PC v5.2.4 Sat Feb 06 22:51:21 2016

Tools Copyright (c) 1996-2015 Texas Instruments Incorporated
esp8266.asm                                                          PAGE  120

    6080                            .dwattr $C$DW$266, DW_AT_name("ESP8266SendCommand")
    6081                            .dwattr $C$DW$266, DW_AT_TI_call
    6082 00000b2a FBEBF7FF          BL        ESP8266SendCommand    ; [DPU_3_PIPE] |695|  ; [KEEP 32-BIT INS]
    6083                            ; CALL OCCURS {ESP8266SendCommand }  ; [] |695| 
    6084                            .dwpsn  file "../esp8266.c",line 696,column 5,is_stmt,isa 1
    6085                    ;----------------------------------------------------------------------
    6086                    ; 696 | DelayMsSearching(4000);                                                
    6087                    ;----------------------------------------------------------------------
    6088 00000b2e 607AF44F          MOV       A1, #4000             ; [DPU_3_PIPE] |696|  ; [KEEP 32-BIT INS]
    6089                    $C$DW$267       .dwtag  DW_TAG_TI_branch
    6090                            .dwattr $C$DW$267, DW_AT_low_pc(0x00)
    6091                            .dwattr $C$DW$267, DW_AT_name("DelayMsSearching")
    6092                            .dwattr $C$DW$267, DW_AT_TI_call
    6093 00000b32 FC25F7FF          BL        DelayMsSearching      ; [DPU_3_PIPE] |696|  ; [KEEP 32-BIT INS]
    6094                            ; CALL OCCURS {DelayMsSearching }  ; [] |696| 
    6095                            .dwpsn  file "../esp8266.c",line 697,column 5,is_stmt,isa 1
    6096                    ;----------------------------------------------------------------------
    6097                    ; 697 | if(SearchFound) return 1; // success                                   
    6098                    ;----------------------------------------------------------------------
    6099 00000b36 4880              LDR       A1, $C$CON55          ; [DPU_3_PIPE] |697|  ; [ORIG 16-BIT INS]
    6100 00000b38 7800              LDRB      A1, [A1, #0]          ; [DPU_3_PIPE] |697|  ; [ORIG 16-BIT INS]
    6101 00000b3a B108              CBZ       A1, ||$C$L103||       ; []  ; [ORIG 16-BIT INS]
    6102                            ; BRANCHCC OCCURS {||$C$L103||}  ; [] |697| 
    6103                    ;* --------------------------------------------------------------------------*
    6104                            .dwpsn  file "../esp8266.c",line 697,column 21,is_stmt,isa 1
    6105 00000b3c 2001              MOVS      A1, #1                ; [DPU_3_PIPE] |697|  ; [ORIG 16-BIT INS]
    6106 00000b3e E006              B         ||$C$L105||           ; [DPU_3_PIPE] |697|  ; [ORIG 16-BIT INS]
    6107                            ; BRANCH OCCURS {||$C$L105||}    ; [] |697| 
    6108                    ;* --------------------------------------------------------------------------*
    6109 00000b40           ||$C$L103||:    
    6110                            .dwpsn  file "../esp8266.c",line 698,column 5,is_stmt,isa 1
    6111                    ;----------------------------------------------------------------------
    6112                    ; 698 | try--;                                                                 
    6113                    ;----------------------------------------------------------------------
    6114 00000b40 9800              LDR       A1, [SP, #0]          ; [DPU_3_PIPE] |698|  ; [ORIG 16-BIT INS]
    6115 00000b42 1E40              SUBS      A1, A1, #1            ; [DPU_3_PIPE] |698|  ; [ORIG 16-BIT INS]
    6116 00000b44 9000              STR       A1, [SP, #0]          ; [DPU_3_PIPE] |698|  ; [ORIG 16-BIT INS]
    6117                            .dwpsn  file "../esp8266.c",line 693,column 3,is_stmt,isa 1
    6118 00000b46 9800              LDR       A1, [SP, #0]          ; [DPU_3_PIPE] |693|  ; [ORIG 16-BIT INS]
    6119 00000b48 2800              CMP       A1, #0                ; [DPU_3_PIPE] |693|  ; [ORIG 16-BIT INS]
    6120 00000b4a D1E7              BNE       ||$C$L102||           ; [DPU_3_PIPE] |693|  ; [ORIG 16-BIT INS]
    6121                            ; BRANCHCC OCCURS {||$C$L102||}  ; [] |693| 
    6122                    ;* --------------------------------------------------------------------------*
    6123 00000b4c           ||$C$L104||:    
    6124                            .dwpsn  file "../esp8266.c",line 700,column 3,is_stmt,isa 1
    6125                    ;----------------------------------------------------------------------
    6126                    ; 700 | return 0; // fail                                                      
    6127                    ;----------------------------------------------------------------------
    6128 00000b4c 2000              MOVS      A1, #0                ; [DPU_3_PIPE] |700|  ; [ORIG 16-BIT INS]
    6129                    ;* --------------------------------------------------------------------------*
    6130 00000b4e           ||$C$L105||:    
    6131                            .dwpsn  file "../esp8266.c",line 701,column 1,is_stmt,isa 1
    6132                    $C$DW$268       .dwtag  DW_TAG_TI_branch
    6133                            .dwattr $C$DW$268, DW_AT_low_pc(0x00)
    6134                            .dwattr $C$DW$268, DW_AT_TI_return
TI ARM Assembler PC v5.2.4 Sat Feb 06 22:51:21 2016

Tools Copyright (c) 1996-2015 Texas Instruments Incorporated
esp8266.asm                                                          PAGE  121

    6135 00000b4e BD08              POP       {A4, PC}              ; [DPU_3_PIPE]  ; [ORIG 16-BIT INS]
    6136                            .dwcfi  cfa_offset, 0
    6137                            ; BRANCH OCCURS                  ; [] 
    6138                            .dwattr $C$DW$262, DW_AT_TI_end_file("../esp8266.c")
    6139                            .dwattr $C$DW$262, DW_AT_TI_end_line(0x2bd)
    6140                            .dwattr $C$DW$262, DW_AT_TI_end_column(0x01)
    6141                            .dwendentry
    6142                            .dwendtag $C$DW$262
    6143                    
    6144                    ;******************************************************************************
    6145                    ;* STRINGS                                                                    *
    6146                    ;******************************************************************************
    6147 00000b50                   .sect   ".text"
    6148                            .align  4
    6149 00000b50 41        ||$C$SL23||:    .string "AT+CIPSTART=",34,"TCP",34,",",34,"%s",34,",80",13,10,0
         00000b51 54       
         00000b52 2B       
         00000b53 43       
         00000b54 49       
         00000b55 50       
         00000b56 53       
         00000b57 54       
         00000b58 41       
         00000b59 52       
         00000b5a 54       
         00000b5b 3D       
         00000b5c 22       
         00000b5d 54       
         00000b5e 43       
         00000b5f 50       
         00000b60 22       
         00000b61 2C       
         00000b62 22       
         00000b63 25       
         00000b64 73       
         00000b65 22       
         00000b66 2C       
         00000b67 38       
         00000b68 30       
         00000b69 0D       
         00000b6a 0A       
         00000b6b 00       
    6150                            .align  4
    6151 00000b6c 41        ||$C$SL24||:    .string "AT+CIPSEND=%d",13,10,0
         00000b6d 54       
         00000b6e 2B       
         00000b6f 43       
         00000b70 49       
         00000b71 50       
         00000b72 53       
         00000b73 45       
         00000b74 4E       
         00000b75 44       
         00000b76 3D       
         00000b77 25       
TI ARM Assembler PC v5.2.4 Sat Feb 06 22:51:21 2016

Tools Copyright (c) 1996-2015 Texas Instruments Incorporated
esp8266.asm                                                          PAGE  122

         00000b78 64       
         00000b79 0D       
         00000b7a 0A       
         00000b7b 00       
    6152                    ;******************************************************************************
    6153                    ;* CONSTANT TABLE                                                             *
    6154                    ;******************************************************************************
    6155 00000b7c                   .sect   ".text"
    6156                            .align  4
    6157 00000b7c 00000000! ||$C$CON50||:   .bits   ServerResponseSearchFinished,32
    6158 00000b80                   .sect   ".text"
    6159                            .clink
    6160                            .thumbfunc ESP8266ProcessInput
    6161 00000b80                   .thumb
    6162                            .global ESP8266ProcessInput
    6163                    
    6164                    $C$DW$269       .dwtag  DW_TAG_subprogram, DW_AT_name("ESP8266ProcessInput")
    6165                            .dwattr $C$DW$269, DW_AT_low_pc(ESP8266ProcessInput)
    6166                            .dwattr $C$DW$269, DW_AT_high_pc(0x00)
    6167                            .dwattr $C$DW$269, DW_AT_TI_symbol_name("ESP8266ProcessInput")
    6168                            .dwattr $C$DW$269, DW_AT_external
    6169                            .dwattr $C$DW$269, DW_AT_TI_begin_file("../esp8266.c")
    6170                            .dwattr $C$DW$269, DW_AT_TI_begin_line(0x2c4)
    6171                            .dwattr $C$DW$269, DW_AT_TI_begin_column(0x06)
    6172                            .dwattr $C$DW$269, DW_AT_decl_file("../esp8266.c")
    6173                            .dwattr $C$DW$269, DW_AT_decl_line(0x2c4)
    6174                            .dwattr $C$DW$269, DW_AT_decl_column(0x06)
    6175                            .dwattr $C$DW$269, DW_AT_TI_max_frame_size(0x10)
    6176                            .dwpsn  file "../esp8266.c",line 708,column 45,is_stmt,address ESP8266ProcessInput,isa 1
    6177                    
    6178                            .dwfde $C$DW$CIE, ESP8266ProcessInput
    6179                    $C$DW$270       .dwtag  DW_TAG_formal_parameter, DW_AT_name("buffer")
    6180                            .dwattr $C$DW$270, DW_AT_TI_symbol_name("buffer")
    6181                            .dwattr $C$DW$270, DW_AT_type(*$C$DW$T$42)
    6182                            .dwattr $C$DW$270, DW_AT_location[DW_OP_reg0]
    6183                    
    6184                    ;*****************************************************************************
    6185                    ;* FUNCTION NAME: ESP8266ProcessInput                                        *
    6186                    ;*                                                                           *
    6187                    ;*   Regs Modified     : A1,A2,A3,A4,V9,SP,LR,SR,D0,D0_hi,D1,D1_hi,D2,D2_hi, *
    6188                    ;*                           D3,D3_hi,D4,D4_hi,D5,D5_hi,D6,D6_hi,D7,D7_hi,   *
    6189                    ;*                           FPEXC,FPSCR                                     *
    6190                    ;*   Regs Used         : A1,A2,A3,A4,V9,SP,LR,SR,D0,D0_hi,D1,D1_hi,D2,D2_hi, *
    6191                    ;*                           D3,D3_hi,D4,D4_hi,D5,D5_hi,D6,D6_hi,D7,D7_hi,   *
    6192                    ;*                           FPEXC,FPSCR                                     *
    6193                    ;*   Local Frame Size  : 0 Args + 12 Auto + 4 Save = 16 byte                 *
    6194                    ;*****************************************************************************
    6195 00000b80           ESP8266ProcessInput:
    6196                    ;* --------------------------------------------------------------------------*
    6197                            .dwcfi  cfa_offset, 0
    6198 00000b80 B50E              PUSH      {A2, A3, A4, LR}      ; [DPU_3_PIPE]  ; [ORIG 16-BIT INS]
    6199                            .dwcfi  cfa_offset, 16
    6200                            .dwcfi  save_reg_to_mem, 14, -4
    6201                            .dwcfi  save_reg_to_mem, 3, -8
    6202                            .dwcfi  save_reg_to_mem, 2, -12
TI ARM Assembler PC v5.2.4 Sat Feb 06 22:51:21 2016

Tools Copyright (c) 1996-2015 Texas Instruments Incorporated
esp8266.asm                                                          PAGE  123

    6203                            .dwcfi  save_reg_to_mem, 1, -16
    6204                    $C$DW$271       .dwtag  DW_TAG_variable, DW_AT_name("buffer")
    6205                            .dwattr $C$DW$271, DW_AT_TI_symbol_name("buffer")
    6206                            .dwattr $C$DW$271, DW_AT_type(*$C$DW$T$42)
    6207                            .dwattr $C$DW$271, DW_AT_location[DW_OP_breg13 0]
    6208                    $C$DW$272       .dwtag  DW_TAG_variable, DW_AT_name("ptr")
    6209                            .dwattr $C$DW$272, DW_AT_TI_symbol_name("ptr")
    6210                            .dwattr $C$DW$272, DW_AT_type(*$C$DW$T$35)
    6211                            .dwattr $C$DW$272, DW_AT_location[DW_OP_breg13 4]
    6212                    ;----------------------------------------------------------------------
    6213                    ; 708 | void ESP8266ProcessInput(const char* buffer){                          
    6214                    ; 709 | char* ptr;                                                             
    6215                    ; 710 | // "+IPD" indicates data coming in from IP server                      
    6216                    ;----------------------------------------------------------------------
    6217 00000b82 9000              STR       A1, [SP, #0]          ; [DPU_3_PIPE] |708|  ; [ORIG 16-BIT INS]
    6218                            .dwpsn  file "../esp8266.c",line 711,column 3,is_stmt,isa 1
    6219                    ;----------------------------------------------------------------------
    6220                    ; 711 | if (buffer[0] == '+' && buffer[1] == 'I' && buffer[2] == 'P' && buffer[
    6221                    ;     | 3] == 'D' && buffer[8] != '\n'){                                       
    6222                    ;----------------------------------------------------------------------
    6223 00000b84 9800              LDR       A1, [SP, #0]          ; [DPU_3_PIPE] |711|  ; [ORIG 16-BIT INS]
    6224 00000b86 7800              LDRB      A1, [A1, #0]          ; [DPU_3_PIPE] |711|  ; [ORIG 16-BIT INS]
    6225 00000b88 282B              CMP       A1, #43               ; [DPU_3_PIPE] |711|  ; [ORIG 16-BIT INS]
    6226 00000b8a D13B              BNE       ||$C$L109||           ; [DPU_3_PIPE] |711|  ; [ORIG 16-BIT INS]
    6227                            ; BRANCHCC OCCURS {||$C$L109||}  ; [] |711| 
    6228                    ;* --------------------------------------------------------------------------*
    6229 00000b8c 9800              LDR       A1, [SP, #0]          ; [DPU_3_PIPE] |711|  ; [ORIG 16-BIT INS]
    6230 00000b8e 7840              LDRB      A1, [A1, #1]          ; [DPU_3_PIPE] |711|  ; [ORIG 16-BIT INS]
    6231 00000b90 2849              CMP       A1, #73               ; [DPU_3_PIPE] |711|  ; [ORIG 16-BIT INS]
    6232 00000b92 D137              BNE       ||$C$L109||           ; [DPU_3_PIPE] |711|  ; [ORIG 16-BIT INS]
    6233                            ; BRANCHCC OCCURS {||$C$L109||}  ; [] |711| 
    6234                    ;* --------------------------------------------------------------------------*
    6235 00000b94 9800              LDR       A1, [SP, #0]          ; [DPU_3_PIPE] |711|  ; [ORIG 16-BIT INS]
    6236 00000b96 7880              LDRB      A1, [A1, #2]          ; [DPU_3_PIPE] |711|  ; [ORIG 16-BIT INS]
    6237 00000b98 2850              CMP       A1, #80               ; [DPU_3_PIPE] |711|  ; [ORIG 16-BIT INS]
    6238 00000b9a D133              BNE       ||$C$L109||           ; [DPU_3_PIPE] |711|  ; [ORIG 16-BIT INS]
    6239                            ; BRANCHCC OCCURS {||$C$L109||}  ; [] |711| 
    6240                    ;* --------------------------------------------------------------------------*
    6241 00000b9c 9800              LDR       A1, [SP, #0]          ; [DPU_3_PIPE] |711|  ; [ORIG 16-BIT INS]
    6242 00000b9e 78C0              LDRB      A1, [A1, #3]          ; [DPU_3_PIPE] |711|  ; [ORIG 16-BIT INS]
    6243 00000ba0 2844              CMP       A1, #68               ; [DPU_3_PIPE] |711|  ; [ORIG 16-BIT INS]
    6244 00000ba2 D12F              BNE       ||$C$L109||           ; [DPU_3_PIPE] |711|  ; [ORIG 16-BIT INS]
    6245                            ; BRANCHCC OCCURS {||$C$L109||}  ; [] |711| 
    6246                    ;* --------------------------------------------------------------------------*
    6247 00000ba4 9800              LDR       A1, [SP, #0]          ; [DPU_3_PIPE] |711|  ; [ORIG 16-BIT INS]
    6248 00000ba6 7A00              LDRB      A1, [A1, #8]          ; [DPU_3_PIPE] |711|  ; [ORIG 16-BIT INS]
    6249 00000ba8 280A              CMP       A1, #10               ; [DPU_3_PIPE] |711|  ; [ORIG 16-BIT INS]
    6250 00000baa D02B              BEQ       ||$C$L109||           ; [DPU_3_PIPE] |711|  ; [ORIG 16-BIT INS]
    6251                            ; BRANCHCC OCCURS {||$C$L109||}  ; [] |711| 
    6252                    ;* --------------------------------------------------------------------------*
    6253                            .dwpsn  file "../esp8266.c",line 712,column 5,is_stmt,isa 1
    6254                    ;----------------------------------------------------------------------
    6255                    ; 712 | ptr = (char *)buffer + 7;                                              
    6256                    ;----------------------------------------------------------------------
    6257 00000bac 9800              LDR       A1, [SP, #0]          ; [DPU_3_PIPE] |712|  ; [ORIG 16-BIT INS]
TI ARM Assembler PC v5.2.4 Sat Feb 06 22:51:21 2016

Tools Copyright (c) 1996-2015 Texas Instruments Incorporated
esp8266.asm                                                          PAGE  124

    6258 00000bae 1DC0              ADDS      A1, A1, #7            ; [DPU_3_PIPE] |712|  ; [ORIG 16-BIT INS]
    6259 00000bb0 9001              STR       A1, [SP, #4]          ; [DPU_3_PIPE] |712|  ; [ORIG 16-BIT INS]
    6260                            .dwpsn  file "../esp8266.c",line 713,column 5,is_stmt,isa 1
    6261                    ;----------------------------------------------------------------------
    6262                    ; 713 | while (*ptr != ':'){                                                   
    6263                    ;----------------------------------------------------------------------
    6264 00000bb2 E002              B         ||$C$L107||           ; [DPU_3_PIPE] |713|  ; [ORIG 16-BIT INS]
    6265                            ; BRANCH OCCURS {||$C$L107||}    ; [] |713| 
    6266                    ;* --------------------------------------------------------------------------*
    6267 00000bb4           ||$C$L106||:    
    6268                            .dwpsn  file "../esp8266.c",line 714,column 7,is_stmt,isa 1
    6269                    ;----------------------------------------------------------------------
    6270                    ; 714 | ptr++;                                                                 
    6271                    ;----------------------------------------------------------------------
    6272 00000bb4 9801              LDR       A1, [SP, #4]          ; [DPU_3_PIPE] |714|  ; [ORIG 16-BIT INS]
    6273 00000bb6 1C40              ADDS      A1, A1, #1            ; [DPU_3_PIPE] |714|  ; [ORIG 16-BIT INS]
    6274 00000bb8 9001              STR       A1, [SP, #4]          ; [DPU_3_PIPE] |714|  ; [ORIG 16-BIT INS]
    6275                    ;* --------------------------------------------------------------------------*
    6276                    ;*   BEGIN LOOP ||$C$L107||
    6277                    ;* --------------------------------------------------------------------------*
    6278 00000bba           ||$C$L107||:    
    6279                            .dwpsn  file "../esp8266.c",line 713,column 12,is_stmt,isa 1
    6280 00000bba 9801              LDR       A1, [SP, #4]          ; [DPU_3_PIPE] |713|  ; [ORIG 16-BIT INS]
    6281 00000bbc 7800              LDRB      A1, [A1, #0]          ; [DPU_3_PIPE] |713|  ; [ORIG 16-BIT INS]
    6282 00000bbe 283A              CMP       A1, #58               ; [DPU_3_PIPE] |713|  ; [ORIG 16-BIT INS]
    6283 00000bc0 D1F8              BNE       ||$C$L106||           ; [DPU_3_PIPE] |713|  ; [ORIG 16-BIT INS]
    6284                            ; BRANCHCC OCCURS {||$C$L106||}  ; [] |713| 
    6285                    ;* --------------------------------------------------------------------------*
    6286                            .dwpsn  file "../esp8266.c",line 716,column 5,is_stmt,isa 1
    6287                    ;----------------------------------------------------------------------
    6288                    ; 716 | ptr++;                                                                 
    6289                    ; 718 | // check for HTTP GET                                                  
    6290                    ;----------------------------------------------------------------------
    6291 00000bc2 9801              LDR       A1, [SP, #4]          ; [DPU_3_PIPE] |716|  ; [ORIG 16-BIT INS]
    6292 00000bc4 1C40              ADDS      A1, A1, #1            ; [DPU_3_PIPE] |716|  ; [ORIG 16-BIT INS]
    6293 00000bc6 9001              STR       A1, [SP, #4]          ; [DPU_3_PIPE] |716|  ; [ORIG 16-BIT INS]
    6294                            .dwpsn  file "../esp8266.c",line 719,column 5,is_stmt,isa 1
    6295                    ;----------------------------------------------------------------------
    6296                    ; 719 | if (*ptr == 'G' && *(ptr + 1) == 'E' && *(ptr + 2) == 'T') {           
    6297                    ;----------------------------------------------------------------------
    6298 00000bc8 9801              LDR       A1, [SP, #4]          ; [DPU_3_PIPE] |719|  ; [ORIG 16-BIT INS]
    6299 00000bca 7800              LDRB      A1, [A1, #0]          ; [DPU_3_PIPE] |719|  ; [ORIG 16-BIT INS]
    6300 00000bcc 2847              CMP       A1, #71               ; [DPU_3_PIPE] |719|  ; [ORIG 16-BIT INS]
    6301 00000bce D119              BNE       ||$C$L109||           ; [DPU_3_PIPE] |719|  ; [ORIG 16-BIT INS]
    6302                            ; BRANCHCC OCCURS {||$C$L109||}  ; [] |719| 
    6303                    ;* --------------------------------------------------------------------------*
    6304 00000bd0 9801              LDR       A1, [SP, #4]          ; [DPU_3_PIPE] |719|  ; [ORIG 16-BIT INS]
    6305 00000bd2 7840              LDRB      A1, [A1, #1]          ; [DPU_3_PIPE] |719|  ; [ORIG 16-BIT INS]
    6306 00000bd4 2845              CMP       A1, #69               ; [DPU_3_PIPE] |719|  ; [ORIG 16-BIT INS]
    6307 00000bd6 D115              BNE       ||$C$L109||           ; [DPU_3_PIPE] |719|  ; [ORIG 16-BIT INS]
    6308                            ; BRANCHCC OCCURS {||$C$L109||}  ; [] |719| 
    6309                    ;* --------------------------------------------------------------------------*
    6310 00000bd8 9801              LDR       A1, [SP, #4]          ; [DPU_3_PIPE] |719|  ; [ORIG 16-BIT INS]
    6311 00000bda 7880              LDRB      A1, [A1, #2]          ; [DPU_3_PIPE] |719|  ; [ORIG 16-BIT INS]
    6312 00000bdc 2854              CMP       A1, #84               ; [DPU_3_PIPE] |719|  ; [ORIG 16-BIT INS]
TI ARM Assembler PC v5.2.4 Sat Feb 06 22:51:21 2016

Tools Copyright (c) 1996-2015 Texas Instruments Incorporated
esp8266.asm                                                          PAGE  125

    6313 00000bde D111              BNE       ||$C$L109||           ; [DPU_3_PIPE] |719|  ; [ORIG 16-BIT INS]
    6314                            ; BRANCHCC OCCURS {||$C$L109||}  ; [] |719| 
    6315                    ;* --------------------------------------------------------------------------*
    6316                            .dwpsn  file "../esp8266.c",line 720,column 7,is_stmt,isa 1
    6317                    ;----------------------------------------------------------------------
    6318                    ; 720 | if (*(ptr + 5) == '?'){ // means data to process                       
    6319                    ;----------------------------------------------------------------------
    6320 00000be0 9801              LDR       A1, [SP, #4]          ; [DPU_3_PIPE] |720|  ; [ORIG 16-BIT INS]
    6321 00000be2 7940              LDRB      A1, [A1, #5]          ; [DPU_3_PIPE] |720|  ; [ORIG 16-BIT INS]
    6322 00000be4 283F              CMP       A1, #63               ; [DPU_3_PIPE] |720|  ; [ORIG 16-BIT INS]
    6323 00000be6 D109              BNE       ||$C$L108||           ; [DPU_3_PIPE] |720|  ; [ORIG 16-BIT INS]
    6324                            ; BRANCHCC OCCURS {||$C$L108||}  ; [] |720| 
    6325                    ;* --------------------------------------------------------------------------*
    6326                    
    6327                    $C$DW$273       .dwtag  DW_TAG_lexical_block, DW_AT_low_pc(0x00), DW_AT_high_pc(0x00)
    6328                    $C$DW$274       .dwtag  DW_TAG_variable, DW_AT_name("messagePtr")
    6329                            .dwattr $C$DW$274, DW_AT_TI_symbol_name("messagePtr")
    6330                            .dwattr $C$DW$274, DW_AT_type(*$C$DW$T$35)
    6331                            .dwattr $C$DW$274, DW_AT_location[DW_OP_breg13 8]
    6332                            .dwpsn  file "../esp8266.c",line 721,column 26,is_stmt,isa 1
    6333                    ;----------------------------------------------------------------------
    6334                    ; 721 | char* messagePtr = strstr(ptr, "message=") + 8;                        
    6335                    ;----------------------------------------------------------------------
    6336 00000be8 9801              LDR       A1, [SP, #4]          ; [DPU_3_PIPE] |721|  ; [ORIG 16-BIT INS]
    6337 00000bea A13E              ADR       A2, $C$SL32           ; [DPU_3_PIPE] |721|  ; [ORIG 16-BIT INS]
    6338                    $C$DW$275       .dwtag  DW_TAG_TI_branch
    6339                            .dwattr $C$DW$275, DW_AT_low_pc(0x00)
    6340                            .dwattr $C$DW$275, DW_AT_name("strstr")
    6341                            .dwattr $C$DW$275, DW_AT_TI_call
    6342 00000bec FFFEF7FF!         BL        strstr                ; [DPU_3_PIPE] |721|  ; [KEEP 32-BIT INS]
    6343                            ; CALL OCCURS {strstr }          ; [] |721| 
    6344 00000bf0 3008              ADDS      A1, A1, #8            ; [DPU_3_PIPE] |721|  ; [ORIG 16-BIT INS]
    6345 00000bf2 9002              STR       A1, [SP, #8]          ; [DPU_3_PIPE] |721|  ; [ORIG 16-BIT INS]
    6346                            .dwpsn  file "../esp8266.c",line 722,column 9,is_stmt,isa 1
    6347                    ;----------------------------------------------------------------------
    6348                    ; 722 | printf("Message from ESP8266: %s\n", messagePtr);                      
    6349                    ;----------------------------------------------------------------------
    6350 00000bf4 9902              LDR       A2, [SP, #8]          ; [DPU_3_PIPE] |722|  ; [ORIG 16-BIT INS]
    6351 00000bf6 A03E              ADR       A1, $C$SL33           ; [DPU_3_PIPE] |722|  ; [ORIG 16-BIT INS]
    6352                    $C$DW$276       .dwtag  DW_TAG_TI_branch
    6353                            .dwattr $C$DW$276, DW_AT_low_pc(0x00)
    6354                            .dwattr $C$DW$276, DW_AT_name("printf")
    6355                            .dwattr $C$DW$276, DW_AT_TI_call
    6356 00000bf8 FFFEF7FF!         BL        printf                ; [DPU_3_PIPE] |722|  ; [KEEP 32-BIT INS]
    6357                            ; CALL OCCURS {printf }          ; [] |722| 
    6358                            .dwendtag $C$DW$273
    6359                    
    6360                    ;* --------------------------------------------------------------------------*
    6361 00000bfc           ||$C$L108||:    
    6362                            .dwpsn  file "../esp8266.c",line 724,column 7,is_stmt,isa 1
    6363                    ;----------------------------------------------------------------------
    6364                    ; 724 | ESP8266_PageRequested = true;                                          
    6365                    ;----------------------------------------------------------------------
    6366 00000bfc 494F              LDR       A2, $C$CON56          ; [DPU_3_PIPE] |724|  ; [ORIG 16-BIT INS]
    6367 00000bfe 2001              MOVS      A1, #1                ; [DPU_3_PIPE] |724|  ; [ORIG 16-BIT INS]
TI ARM Assembler PC v5.2.4 Sat Feb 06 22:51:21 2016

Tools Copyright (c) 1996-2015 Texas Instruments Incorporated
esp8266.asm                                                          PAGE  126

    6368 00000c00 7008              STRB      A1, [A2, #0]          ; [DPU_3_PIPE] |724|  ; [ORIG 16-BIT INS]
    6369                            .dwpsn  file "../esp8266.c",line 725,column 5,is_stmt,isa 1
    6370                    ;----------------------------------------------------------------------
    6371                    ; 725 | } else {                                                               
    6372                    ; 726 |   // handle data that may be sent via means other than HTTP GET        
    6373                    ;----------------------------------------------------------------------
    6374 00000c02 E7FF              B         ||$C$L109||           ; [DPU_3_PIPE] |725|  ; [ORIG 16-BIT INS]
    6375                            ; BRANCH OCCURS {||$C$L109||}    ; [] |725| 
    6376                    ;* --------------------------------------------------------------------------*
    6377                    ;* --------------------------------------------------------------------------*
    6378                    ||$C$L109||:    
    6379                    $C$DW$277       .dwtag  DW_TAG_TI_branch
    6380                            .dwattr $C$DW$277, DW_AT_low_pc(0x00)
    6381                            .dwattr $C$DW$277, DW_AT_TI_return
    6382 00000c04 BD0E              POP       {A2, A3, A4, PC}      ; [DPU_3_PIPE]  ; [ORIG 16-BIT INS]
    6383                            .dwcfi  cfa_offset, 0
    6384                            ; BRANCH OCCURS                  ; [] 
    6385                            .dwattr $C$DW$269, DW_AT_TI_end_file("../esp8266.c")
    6386                            .dwattr $C$DW$269, DW_AT_TI_end_line(0x2d9)
    6387                            .dwattr $C$DW$269, DW_AT_TI_end_column(0x01)
    6388                            .dwendentry
    6389                            .dwendtag $C$DW$269
    6390                    
    6391                    ;******************************************************************************
    6392                    ;* STRINGS                                                                    *
    6393                    ;******************************************************************************
    6394 00000c06                   .sect   ".text"
    6395                            .align  4
    6396 00000c08 41        ||$C$SL25||:    .string "AT+CIPCLOSE",13,10,0
         00000c09 54       
         00000c0a 2B       
         00000c0b 43       
         00000c0c 49       
         00000c0d 50       
         00000c0e 43       
         00000c0f 4C       
         00000c10 4F       
         00000c11 53       
         00000c12 45       
         00000c13 0D       
         00000c14 0A       
         00000c15 00       
    6397 00000c16                   .sect   ".text"
    6398                            .clink
    6399                            .thumbfunc HTTP_ServePage
    6400 00000c16                   .thumb
    6401                            .global HTTP_ServePage
    6402                    
    6403                    $C$DW$278       .dwtag  DW_TAG_subprogram, DW_AT_name("HTTP_ServePage")
    6404                            .dwattr $C$DW$278, DW_AT_low_pc(HTTP_ServePage)
    6405                            .dwattr $C$DW$278, DW_AT_high_pc(0x00)
    6406                            .dwattr $C$DW$278, DW_AT_TI_symbol_name("HTTP_ServePage")
    6407                            .dwattr $C$DW$278, DW_AT_external
    6408                            .dwattr $C$DW$278, DW_AT_TI_begin_file("../esp8266.c")
    6409                            .dwattr $C$DW$278, DW_AT_TI_begin_line(0x2f5)
TI ARM Assembler PC v5.2.4 Sat Feb 06 22:51:21 2016

Tools Copyright (c) 1996-2015 Texas Instruments Incorporated
esp8266.asm                                                          PAGE  127

    6410                            .dwattr $C$DW$278, DW_AT_TI_begin_column(0x06)
    6411                            .dwattr $C$DW$278, DW_AT_decl_file("../esp8266.c")
    6412                            .dwattr $C$DW$278, DW_AT_decl_line(0x2f5)
    6413                            .dwattr $C$DW$278, DW_AT_decl_column(0x06)
    6414                            .dwattr $C$DW$278, DW_AT_TI_max_frame_size(0x70)
    6415                            .dwpsn  file "../esp8266.c",line 757,column 38,is_stmt,address HTTP_ServePage,isa 1
    6416                    
    6417                            .dwfde $C$DW$CIE, HTTP_ServePage
    6418                    $C$DW$279       .dwtag  DW_TAG_formal_parameter, DW_AT_name("body")
    6419                            .dwattr $C$DW$279, DW_AT_TI_symbol_name("body")
    6420                            .dwattr $C$DW$279, DW_AT_type(*$C$DW$T$42)
    6421                            .dwattr $C$DW$279, DW_AT_location[DW_OP_reg0]
    6422                    
    6423                    ;*****************************************************************************
    6424                    ;* FUNCTION NAME: HTTP_ServePage                                             *
    6425                    ;*                                                                           *
    6426                    ;*   Regs Modified     : A1,A2,A3,A4,V1,V2,V9,SP,LR,SR,D0,D0_hi,D1,D1_hi,D2, *
    6427                    ;*                           D2_hi,D3,D3_hi,D4,D4_hi,D5,D5_hi,D6,D6_hi,D7,   *
    6428                    ;*                           D7_hi,FPEXC,FPSCR                               *
    6429                    ;*   Regs Used         : A1,A2,A3,A4,V1,V2,V9,SP,LR,SR,D0,D0_hi,D1,D1_hi,D2, *
    6430                    ;*                           D2_hi,D3,D3_hi,D4,D4_hi,D5,D5_hi,D6,D6_hi,D7,   *
    6431                    ;*                           D7_hi,FPEXC,FPSCR                               *
    6432                    ;*   Local Frame Size  : 0 Args + 100 Auto + 12 Save = 112 byte              *
    6433                    ;*****************************************************************************
    6434 00000c16           HTTP_ServePage:
    6435                    ;* --------------------------------------------------------------------------*
    6436                            .dwcfi  cfa_offset, 0
    6437 00000c16 B530              PUSH      {V1, V2, LR}          ; [DPU_3_PIPE]  ; [ORIG 16-BIT INS]
    6438                            .dwcfi  cfa_offset, 12
    6439                            .dwcfi  save_reg_to_mem, 14, -4
    6440                            .dwcfi  save_reg_to_mem, 5, -8
    6441                            .dwcfi  save_reg_to_mem, 4, -12
    6442 00000c18 0D64F1AD          SUB       SP, SP, #100          ; [DPU_3_PIPE]  ; [KEEP 32-BIT INS]
    6443                            .dwcfi  cfa_offset, 112
    6444                    $C$DW$280       .dwtag  DW_TAG_variable, DW_AT_name("body")
    6445                            .dwattr $C$DW$280, DW_AT_TI_symbol_name("body")
    6446                            .dwattr $C$DW$280, DW_AT_type(*$C$DW$T$42)
    6447                            .dwattr $C$DW$280, DW_AT_location[DW_OP_breg13 0]
    6448                    $C$DW$281       .dwtag  DW_TAG_variable, DW_AT_name("header")
    6449                            .dwattr $C$DW$281, DW_AT_TI_symbol_name("header")
    6450                            .dwattr $C$DW$281, DW_AT_type(*$C$DW$T$159)
    6451                            .dwattr $C$DW$281, DW_AT_location[DW_OP_breg13 4]
    6452                    $C$DW$282       .dwtag  DW_TAG_variable, DW_AT_name("contentLength")
    6453                            .dwattr $C$DW$282, DW_AT_TI_symbol_name("contentLength")
    6454                            .dwattr $C$DW$282, DW_AT_type(*$C$DW$T$121)
    6455                            .dwattr $C$DW$282, DW_AT_location[DW_OP_breg13 84]
    6456                    ;----------------------------------------------------------------------
    6457                    ; 757 | void HTTP_ServePage(const char* body){                                 
    6458                    ;----------------------------------------------------------------------
    6459 00000c1c 9000              STR       A1, [SP, #0]          ; [DPU_3_PIPE] |757|  ; [ORIG 16-BIT INS]
    6460                            .dwpsn  file "../esp8266.c",line 758,column 8,is_stmt,isa 1
    6461                    ;----------------------------------------------------------------------
    6462                    ; 758 | char header[] = "HTTP/1.1 200 OK\r\nContent-Type: text/html\r\nConnecti
    6463                    ;     | on: close\r\nContent-Length: ";                                        
    6464                    ; 760 | char contentLength[16];                                                
TI ARM Assembler PC v5.2.4 Sat Feb 06 22:51:21 2016

Tools Copyright (c) 1996-2015 Texas Instruments Incorporated
esp8266.asm                                                          PAGE  128

    6465                    ;----------------------------------------------------------------------
    6466 00000c1e 4948              LDR       A2, $C$CON57          ; [DPU_3_PIPE] |758|  ; [ORIG 16-BIT INS]
    6467 00000c20 224E              MOVS      A3, #78               ; [DPU_3_PIPE] |758|  ; [ORIG 16-BIT INS]
    6468 00000c22 A801              ADD       A1, SP, #4            ; [DPU_3_PIPE] |758|  ; [ORIG 16-BIT INS]
    6469                    $C$DW$283       .dwtag  DW_TAG_TI_branch
    6470                            .dwattr $C$DW$283, DW_AT_low_pc(0x00)
    6471                            .dwattr $C$DW$283, DW_AT_name("memcpy")
    6472                            .dwattr $C$DW$283, DW_AT_TI_call
    6473 00000c24 FFFEF7FF!         BL        memcpy                ; [DPU_3_PIPE] |758|  ; [KEEP 32-BIT INS]
    6474                            ; CALL OCCURS {memcpy }          ; [] |758| 
    6475                            .dwpsn  file "../esp8266.c",line 761,column 3,is_stmt,isa 1
    6476                    ;----------------------------------------------------------------------
    6477                    ; 761 | sprintf(contentLength, "%d\r\n\r\n", strlen(body));                    
    6478                    ;----------------------------------------------------------------------
    6479 00000c28 9800              LDR       A1, [SP, #0]          ; [DPU_3_PIPE] |761|  ; [ORIG 16-BIT INS]
    6480                    $C$DW$284       .dwtag  DW_TAG_TI_branch
    6481                            .dwattr $C$DW$284, DW_AT_low_pc(0x00)
    6482                            .dwattr $C$DW$284, DW_AT_name("strlen")
    6483                            .dwattr $C$DW$284, DW_AT_TI_call
    6484 00000c2a FFFEF7FF!         BL        strlen                ; [DPU_3_PIPE] |761|  ; [KEEP 32-BIT INS]
    6485                            ; CALL OCCURS {strlen }          ; [] |761| 
    6486 00000c2e 4602              MOV       A3, A1                ; [DPU_3_PIPE] |761|  ; [ORIG 16-BIT INS]
    6487 00000c30 A136              ADR       A2, $C$SL34           ; [DPU_3_PIPE] |761|  ; [ORIG 16-BIT INS]
    6488 00000c32 A815              ADD       A1, SP, #84           ; [DPU_3_PIPE] |761|  ; [ORIG 16-BIT INS]
    6489                    $C$DW$285       .dwtag  DW_TAG_TI_branch
    6490                            .dwattr $C$DW$285, DW_AT_low_pc(0x00)
    6491                            .dwattr $C$DW$285, DW_AT_name("sprintf")
    6492                            .dwattr $C$DW$285, DW_AT_TI_call
    6493 00000c34 FFFEF7FF!         BL        sprintf               ; [DPU_3_PIPE] |761|  ; [KEEP 32-BIT INS]
    6494                            ; CALL OCCURS {sprintf }         ; [] |761| 
    6495                            .dwpsn  file "../esp8266.c",line 763,column 3,is_stmt,isa 1
    6496                    ;----------------------------------------------------------------------
    6497                    ; 763 | sprintf((char*)TXBuffer, "AT+CIPSEND=%d,%d\r\n", 0, strlen(body) + strl
    6498                    ;     | en(contentLength) + strlen(header));                                   
    6499                    ;----------------------------------------------------------------------
    6500 00000c38 9800              LDR       A1, [SP, #0]          ; [DPU_3_PIPE] |763|  ; [ORIG 16-BIT INS]
    6501                    $C$DW$286       .dwtag  DW_TAG_TI_branch
    6502                            .dwattr $C$DW$286, DW_AT_low_pc(0x00)
    6503                            .dwattr $C$DW$286, DW_AT_name("strlen")
    6504                            .dwattr $C$DW$286, DW_AT_TI_call
    6505 00000c3a FFFEF7FF!         BL        strlen                ; [DPU_3_PIPE] |763|  ; [KEEP 32-BIT INS]
    6506                            ; CALL OCCURS {strlen }          ; [] |763| 
    6507 00000c3e 4605              MOV       V2, A1                ; [DPU_3_PIPE] |763|  ; [ORIG 16-BIT INS]
    6508 00000c40 A815              ADD       A1, SP, #84           ; [DPU_3_PIPE] |763|  ; [ORIG 16-BIT INS]
    6509                    $C$DW$287       .dwtag  DW_TAG_TI_branch
    6510                            .dwattr $C$DW$287, DW_AT_low_pc(0x00)
    6511                            .dwattr $C$DW$287, DW_AT_name("strlen")
    6512                            .dwattr $C$DW$287, DW_AT_TI_call
    6513 00000c42 FFFEF7FF!         BL        strlen                ; [DPU_3_PIPE] |763|  ; [KEEP 32-BIT INS]
    6514                            ; CALL OCCURS {strlen }          ; [] |763| 
    6515 00000c46 4604              MOV       V1, A1                ; [DPU_3_PIPE] |763|  ; [ORIG 16-BIT INS]
    6516 00000c48 A801              ADD       A1, SP, #4            ; [DPU_3_PIPE] |763|  ; [ORIG 16-BIT INS]
    6517                    $C$DW$288       .dwtag  DW_TAG_TI_branch
    6518                            .dwattr $C$DW$288, DW_AT_low_pc(0x00)
    6519                            .dwattr $C$DW$288, DW_AT_name("strlen")
TI ARM Assembler PC v5.2.4 Sat Feb 06 22:51:21 2016

Tools Copyright (c) 1996-2015 Texas Instruments Incorporated
esp8266.asm                                                          PAGE  129

    6520                            .dwattr $C$DW$288, DW_AT_TI_call
    6521 00000c4a FFFEF7FF!         BL        strlen                ; [DPU_3_PIPE] |763|  ; [KEEP 32-BIT INS]
    6522                            ; CALL OCCURS {strlen }          ; [] |763| 
    6523 00000c4e 1964              ADDS      V1, V1, V2            ; [DPU_3_PIPE] |763|  ; [ORIG 16-BIT INS]
    6524 00000c50 1903              ADDS      A4, A1, V1            ; [DPU_3_PIPE] |763|  ; [ORIG 16-BIT INS]
    6525 00000c52 4836              LDR       A1, $C$CON52          ; [DPU_3_PIPE] |763|  ; [ORIG 16-BIT INS]
    6526 00000c54 A12F              ADR       A2, $C$SL35           ; [DPU_3_PIPE] |763|  ; [ORIG 16-BIT INS]
    6527 00000c56 2200              MOVS      A3, #0                ; [DPU_3_PIPE] |763|  ; [ORIG 16-BIT INS]
    6528                    $C$DW$289       .dwtag  DW_TAG_TI_branch
    6529                            .dwattr $C$DW$289, DW_AT_low_pc(0x00)
    6530                            .dwattr $C$DW$289, DW_AT_name("sprintf")
    6531                            .dwattr $C$DW$289, DW_AT_TI_call
    6532 00000c58 FFFEF7FF!         BL        sprintf               ; [DPU_3_PIPE] |763|  ; [KEEP 32-BIT INS]
    6533                            ; CALL OCCURS {sprintf }         ; [] |763| 
    6534                            .dwpsn  file "../esp8266.c",line 764,column 3,is_stmt,isa 1
    6535                    ;----------------------------------------------------------------------
    6536                    ; 764 | ESP8266SendCommand((const char*)TXBuffer);                             
    6537                    ;----------------------------------------------------------------------
    6538 00000c5c 4833              LDR       A1, $C$CON52          ; [DPU_3_PIPE] |764|  ; [ORIG 16-BIT INS]
    6539                    $C$DW$290       .dwtag  DW_TAG_TI_branch
    6540                            .dwattr $C$DW$290, DW_AT_low_pc(0x00)
    6541                            .dwattr $C$DW$290, DW_AT_name("ESP8266SendCommand")
    6542                            .dwattr $C$DW$290, DW_AT_TI_call
    6543 00000c5e FB51F7FF          BL        ESP8266SendCommand    ; [DPU_3_PIPE] |764|  ; [KEEP 32-BIT INS]
    6544                            ; CALL OCCURS {ESP8266SendCommand }  ; [] |764| 
    6545                            .dwpsn  file "../esp8266.c",line 766,column 3,is_stmt,isa 1
    6546                    ;----------------------------------------------------------------------
    6547                    ; 766 | DelayMs(100);                                                          
    6548                    ;----------------------------------------------------------------------
    6549 00000c62 2064              MOVS      A1, #100              ; [DPU_3_PIPE] |766|  ; [ORIG 16-BIT INS]
    6550                    $C$DW$291       .dwtag  DW_TAG_TI_branch
    6551                            .dwattr $C$DW$291, DW_AT_low_pc(0x00)
    6552                            .dwattr $C$DW$291, DW_AT_name("DelayMs")
    6553                            .dwattr $C$DW$291, DW_AT_TI_call
    6554 00000c64 FB66F7FF          BL        DelayMs               ; [DPU_3_PIPE] |766|  ; [KEEP 32-BIT INS]
    6555                            ; CALL OCCURS {DelayMs }         ; [] |766| 
    6556                            .dwpsn  file "../esp8266.c",line 768,column 3,is_stmt,isa 1
    6557                    ;----------------------------------------------------------------------
    6558                    ; 768 | ESP8266SendCommand(header);                                            
    6559                    ;----------------------------------------------------------------------
    6560 00000c68 A801              ADD       A1, SP, #4            ; [DPU_3_PIPE] |768|  ; [ORIG 16-BIT INS]
    6561                    $C$DW$292       .dwtag  DW_TAG_TI_branch
    6562                            .dwattr $C$DW$292, DW_AT_low_pc(0x00)
    6563                            .dwattr $C$DW$292, DW_AT_name("ESP8266SendCommand")
    6564                            .dwattr $C$DW$292, DW_AT_TI_call
    6565 00000c6a FB4BF7FF          BL        ESP8266SendCommand    ; [DPU_3_PIPE] |768|  ; [KEEP 32-BIT INS]
    6566                            ; CALL OCCURS {ESP8266SendCommand }  ; [] |768| 
    6567                            .dwpsn  file "../esp8266.c",line 769,column 3,is_stmt,isa 1
    6568                    ;----------------------------------------------------------------------
    6569                    ; 769 | ESP8266SendCommand(contentLength);                                     
    6570                    ;----------------------------------------------------------------------
    6571 00000c6e A815              ADD       A1, SP, #84           ; [DPU_3_PIPE] |769|  ; [ORIG 16-BIT INS]
    6572                    $C$DW$293       .dwtag  DW_TAG_TI_branch
    6573                            .dwattr $C$DW$293, DW_AT_low_pc(0x00)
    6574                            .dwattr $C$DW$293, DW_AT_name("ESP8266SendCommand")
TI ARM Assembler PC v5.2.4 Sat Feb 06 22:51:21 2016

Tools Copyright (c) 1996-2015 Texas Instruments Incorporated
esp8266.asm                                                          PAGE  130

    6575                            .dwattr $C$DW$293, DW_AT_TI_call
    6576 00000c70 FB48F7FF          BL        ESP8266SendCommand    ; [DPU_3_PIPE] |769|  ; [KEEP 32-BIT INS]
    6577                            ; CALL OCCURS {ESP8266SendCommand }  ; [] |769| 
    6578                    ;* --------------------------------------------------------------------------*
    6579                            .dwpsn  file "../esp8266.c",line 770,column 3,is_stmt,isa 1
    6580                    ;----------------------------------------------------------------------
    6581                    ; 770 | ESP8266SendCommand(body);                                              
    6582                    ;----------------------------------------------------------------------
    6583 00000c74 9800              LDR       A1, [SP, #0]          ; [DPU_3_PIPE] |770|  ; [ORIG 16-BIT INS]
    6584                    $C$DW$294       .dwtag  DW_TAG_TI_branch
    6585                            .dwattr $C$DW$294, DW_AT_low_pc(0x00)
    6586                            .dwattr $C$DW$294, DW_AT_name("ESP8266SendCommand")
    6587                            .dwattr $C$DW$294, DW_AT_TI_call
    6588 00000c76 FB45F7FF          BL        ESP8266SendCommand    ; [DPU_3_PIPE] |770|  ; [KEEP 32-BIT INS]
    6589                            ; CALL OCCURS {ESP8266SendCommand }  ; [] |770| 
    6590                            .dwpsn  file "../esp8266.c",line 771,column 1,is_stmt,isa 1
    6591 00000c7a B019              ADD       SP, SP, #100          ; [DPU_3_PIPE]  ; [ORIG 16-BIT INS]
    6592                            .dwcfi  cfa_offset, 12
    6593                    $C$DW$295       .dwtag  DW_TAG_TI_branch
    6594                            .dwattr $C$DW$295, DW_AT_low_pc(0x00)
    6595                            .dwattr $C$DW$295, DW_AT_TI_return
    6596 00000c7c BD30              POP       {V1, V2, PC}          ; [DPU_3_PIPE]  ; [ORIG 16-BIT INS]
    6597                            .dwcfi  cfa_offset, 0
    6598                            ; BRANCH OCCURS                  ; [] 
    6599                            .dwattr $C$DW$278, DW_AT_TI_end_file("../esp8266.c")
    6600                            .dwattr $C$DW$278, DW_AT_TI_end_line(0x303)
    6601                            .dwattr $C$DW$278, DW_AT_TI_end_column(0x01)
    6602                            .dwendentry
    6603                            .dwendtag $C$DW$278
    6604                    
    6605                    ;******************************************************************************
    6606                    ;* STRINGS                                                                    *
    6607                    ;******************************************************************************
    6608 00000c7e                   .sect   ".text"
    6609                            .align  4
    6610 00000c80 41        ||$C$SL26||:    .string "AT+CIPMODE=%d",13,10,0
         00000c81 54       
         00000c82 2B       
         00000c83 43       
         00000c84 49       
         00000c85 50       
         00000c86 4D       
         00000c87 4F       
         00000c88 44       
         00000c89 45       
         00000c8a 3D       
         00000c8b 25       
         00000c8c 64       
         00000c8d 0D       
         00000c8e 0A       
         00000c8f 00       
    6611                            .align  4
    6612 00000c90 41        ||$C$SL27||:    .string "AT+CIPSTATUS",13,10,0
         00000c91 54       
         00000c92 2B       
TI ARM Assembler PC v5.2.4 Sat Feb 06 22:51:21 2016

Tools Copyright (c) 1996-2015 Texas Instruments Incorporated
esp8266.asm                                                          PAGE  131

         00000c93 43       
         00000c94 49       
         00000c95 50       
         00000c96 53       
         00000c97 54       
         00000c98 41       
         00000c99 54       
         00000c9a 55       
         00000c9b 53       
         00000c9c 0D       
         00000c9d 0A       
         00000c9e 00       
    6613                            .align  4
    6614 00000ca0 41        ||$C$SL28||:    .string "AT+GMR",13,10,0
         00000ca1 54       
         00000ca2 2B       
         00000ca3 47       
         00000ca4 4D       
         00000ca5 52       
         00000ca6 0D       
         00000ca7 0A       
         00000ca8 00       
    6615                            .align  4
    6616 00000cac 41        ||$C$SL29||:    .string "AT+CIPSTO=%d",13,10,0
         00000cad 54       
         00000cae 2B       
         00000caf 43       
         00000cb0 49       
         00000cb1 50       
         00000cb2 53       
         00000cb3 54       
         00000cb4 4F       
         00000cb5 3D       
         00000cb6 25       
         00000cb7 64       
         00000cb8 0D       
         00000cb9 0A       
         00000cba 00       
    6617                            .align  4
    6618 00000cbc 41        ||$C$SL30||:    .string "AT+CIPSERVER=1,%d",13,10,0
         00000cbd 54       
         00000cbe 2B       
         00000cbf 43       
         00000cc0 49       
         00000cc1 50       
         00000cc2 53       
         00000cc3 45       
         00000cc4 52       
         00000cc5 56       
         00000cc6 45       
         00000cc7 52       
         00000cc8 3D       
         00000cc9 31       
         00000cca 2C       
         00000ccb 25       
TI ARM Assembler PC v5.2.4 Sat Feb 06 22:51:21 2016

Tools Copyright (c) 1996-2015 Texas Instruments Incorporated
esp8266.asm                                                          PAGE  132

         00000ccc 64       
         00000ccd 0D       
         00000cce 0A       
         00000ccf 00       
    6619                            .align  4
    6620 00000cd0 41        ||$C$SL31||:    .string "AT+CIPSERVER=0,%d",13,10,0
         00000cd1 54       
         00000cd2 2B       
         00000cd3 43       
         00000cd4 49       
         00000cd5 50       
         00000cd6 53       
         00000cd7 45       
         00000cd8 52       
         00000cd9 56       
         00000cda 45       
         00000cdb 52       
         00000cdc 3D       
         00000cdd 30       
         00000cde 2C       
         00000cdf 25       
         00000ce0 64       
         00000ce1 0D       
         00000ce2 0A       
         00000ce3 00       
    6621                            .align  4
    6622 00000ce4 6D        ||$C$SL32||:    .string "message=",0
         00000ce5 65       
         00000ce6 73       
         00000ce7 73       
         00000ce8 61       
         00000ce9 67       
         00000cea 65       
         00000ceb 3D       
         00000cec 00       
    6623                            .align  4
    6624 00000cf0 4D        ||$C$SL33||:    .string "Message from ESP8266: %s",10,0
         00000cf1 65       
         00000cf2 73       
         00000cf3 73       
         00000cf4 61       
         00000cf5 67       
         00000cf6 65       
         00000cf7 20       
         00000cf8 66       
         00000cf9 72       
         00000cfa 6F       
         00000cfb 6D       
         00000cfc 20       
         00000cfd 45       
         00000cfe 53       
         00000cff 50       
         00000d00 38       
         00000d01 32       
         00000d02 36       
TI ARM Assembler PC v5.2.4 Sat Feb 06 22:51:21 2016

Tools Copyright (c) 1996-2015 Texas Instruments Incorporated
esp8266.asm                                                          PAGE  133

         00000d03 36       
         00000d04 3A       
         00000d05 20       
         00000d06 25       
         00000d07 73       
         00000d08 0A       
         00000d09 00       
    6625                            .align  4
    6626 00000d0c 25        ||$C$SL34||:    .string "%d",13,10,13,10,0
         00000d0d 64       
         00000d0e 0D       
         00000d0f 0A       
         00000d10 0D       
         00000d11 0A       
         00000d12 00       
    6627                            .align  4
    6628 00000d14 41        ||$C$SL35||:    .string "AT+CIPSEND=%d,%d",13,10,0
         00000d15 54       
         00000d16 2B       
         00000d17 43       
         00000d18 49       
         00000d19 50       
         00000d1a 53       
         00000d1b 45       
         00000d1c 4E       
         00000d1d 44       
         00000d1e 3D       
         00000d1f 25       
         00000d20 64       
         00000d21 2C       
         00000d22 25       
         00000d23 64       
         00000d24 0D       
         00000d25 0A       
         00000d26 00       
    6629                    ;******************************************************************************
    6630                    ;* CONSTANT TABLE                                                             *
    6631                    ;******************************************************************************
    6632 00000d27                   .sect   ".text"
    6633                            .align  4
    6634 00000d26 0000C000! ||$C$CON51||:   .bits   ESP8266_ServerTimeout,32
         00000d2a 00000000 
    6635                            .align  4
    6636 00000d2a 00000000! ||$C$CON52||:   .bits   TXBuffer,32
         00000d2e 00000000 
    6637                            .align  4
    6638 00000d2e 00000000! ||$C$CON53||:   .bits   ESP8266_ServerPort,32
         00000d32 00000000 
    6639                            .align  4
    6640 00000d32 00000000! ||$C$CON54||:   .bits   $C$SL16,32
         00000d36 00000000 
    6641                            .align  4
    6642 00000d36 00000000! ||$C$CON55||:   .bits   SearchFound,32
         00000d3a 00000000 
    6643                            .align  4
TI ARM Assembler PC v5.2.4 Sat Feb 06 22:51:21 2016

Tools Copyright (c) 1996-2015 Texas Instruments Incorporated
esp8266.asm                                                          PAGE  134

    6644 00000d3a 00000000! ||$C$CON56||:   .bits   ESP8266_PageRequested,32
         00000d3e 00000000 
    6645                            .align  4
    6646 00000d3e 00000000! ||$C$CON57||:   .bits   ||$P$T0$1||,32
         00000d42 00000000 
    6647                    ;*****************************************************************************
    6648                    ;* UNDEFINED EXTERNAL REFERENCES                                             *
    6649                    ;*****************************************************************************
    6650                            .global printf
    6651                            .global sprintf
    6652                            .global strlen
    6653                            .global strcpy
    6654                            .global strstr
    6655                            .global UART_OutCharNonBlock
    6656                            .global EnableInterrupts
    6657                            .global memcpy
    6658                    
    6659                    ;******************************************************************************
    6660                    ;* BUILD ATTRIBUTES                                                           *
    6661                    ;******************************************************************************
    6662                            .battr "aeabi", Tag_File, 1, Tag_ABI_PCS_wchar_t(2)
    6663                            .battr "aeabi", Tag_File, 1, Tag_ABI_FP_rounding(0)
    6664                            .battr "aeabi", Tag_File, 1, Tag_ABI_FP_denormal(0)
    6665                            .battr "aeabi", Tag_File, 1, Tag_ABI_FP_exceptions(0)
    6666                            .battr "aeabi", Tag_File, 1, Tag_ABI_FP_number_model(1)
    6667                            .battr "aeabi", Tag_File, 1, Tag_ABI_enum_size(0)
    6668                            .battr "aeabi", Tag_File, 1, Tag_ABI_optimization_goals(5)
    6669                            .battr "aeabi", Tag_File, 1, Tag_ABI_FP_optimization_goals(0)
    6670                            .battr "TI", Tag_File, 1, Tag_Bitfield_layout(2)
    6671                            .battr "TI", Tag_File, 1, Tag_FP_interface(1)
    6672                    
    6673                    ;******************************************************************************
    6674                    ;* TYPE INFORMATION                                                           *
    6675                    ;******************************************************************************
    6676                    
    6677                    $C$DW$T$20      .dwtag  DW_TAG_structure_type
    6678                            .dwattr $C$DW$T$20, DW_AT_byte_size(0x18)
    6679                    $C$DW$296       .dwtag  DW_TAG_member
    6680                            .dwattr $C$DW$296, DW_AT_type(*$C$DW$T$10)
    6681                            .dwattr $C$DW$296, DW_AT_name("fd")
    6682                            .dwattr $C$DW$296, DW_AT_TI_symbol_name("fd")
    6683                            .dwattr $C$DW$296, DW_AT_data_member_location[DW_OP_plus_uconst 0x0]
    6684                            .dwattr $C$DW$296, DW_AT_accessibility(DW_ACCESS_public)
    6685                            .dwattr $C$DW$296, DW_AT_decl_file("C:/ti/ccsv6/tools/compiler/ti-cgt-arm_5.2.4/include/stdio.
    6686                            .dwattr $C$DW$296, DW_AT_decl_line(0x5c)
    6687                            .dwattr $C$DW$296, DW_AT_decl_column(0x0b)
    6688                    $C$DW$297       .dwtag  DW_TAG_member
    6689                            .dwattr $C$DW$297, DW_AT_type(*$C$DW$T$19)
    6690                            .dwattr $C$DW$297, DW_AT_name("buf")
    6691                            .dwattr $C$DW$297, DW_AT_TI_symbol_name("buf")
    6692                            .dwattr $C$DW$297, DW_AT_data_member_location[DW_OP_plus_uconst 0x4]
    6693                            .dwattr $C$DW$297, DW_AT_accessibility(DW_ACCESS_public)
    6694                            .dwattr $C$DW$297, DW_AT_decl_file("C:/ti/ccsv6/tools/compiler/ti-cgt-arm_5.2.4/include/stdio.
    6695                            .dwattr $C$DW$297, DW_AT_decl_line(0x5d)
    6696                            .dwattr $C$DW$297, DW_AT_decl_column(0x16)
TI ARM Assembler PC v5.2.4 Sat Feb 06 22:51:21 2016

Tools Copyright (c) 1996-2015 Texas Instruments Incorporated
esp8266.asm                                                          PAGE  135

    6697                    $C$DW$298       .dwtag  DW_TAG_member
    6698                            .dwattr $C$DW$298, DW_AT_type(*$C$DW$T$19)
    6699                            .dwattr $C$DW$298, DW_AT_name("pos")
    6700                            .dwattr $C$DW$298, DW_AT_TI_symbol_name("pos")
    6701                            .dwattr $C$DW$298, DW_AT_data_member_location[DW_OP_plus_uconst 0x8]
    6702                            .dwattr $C$DW$298, DW_AT_accessibility(DW_ACCESS_public)
    6703                            .dwattr $C$DW$298, DW_AT_decl_file("C:/ti/ccsv6/tools/compiler/ti-cgt-arm_5.2.4/include/stdio.
    6704                            .dwattr $C$DW$298, DW_AT_decl_line(0x5e)
    6705                            .dwattr $C$DW$298, DW_AT_decl_column(0x16)
    6706                    $C$DW$299       .dwtag  DW_TAG_member
    6707                            .dwattr $C$DW$299, DW_AT_type(*$C$DW$T$19)
    6708                            .dwattr $C$DW$299, DW_AT_name("bufend")
    6709                            .dwattr $C$DW$299, DW_AT_TI_symbol_name("bufend")
    6710                            .dwattr $C$DW$299, DW_AT_data_member_location[DW_OP_plus_uconst 0xc]
    6711                            .dwattr $C$DW$299, DW_AT_accessibility(DW_ACCESS_public)
    6712                            .dwattr $C$DW$299, DW_AT_decl_file("C:/ti/ccsv6/tools/compiler/ti-cgt-arm_5.2.4/include/stdio.
    6713                            .dwattr $C$DW$299, DW_AT_decl_line(0x5f)
    6714                            .dwattr $C$DW$299, DW_AT_decl_column(0x16)
    6715                    $C$DW$300       .dwtag  DW_TAG_member
    6716                            .dwattr $C$DW$300, DW_AT_type(*$C$DW$T$19)
    6717                            .dwattr $C$DW$300, DW_AT_name("buff_stop")
    6718                            .dwattr $C$DW$300, DW_AT_TI_symbol_name("buff_stop")
    6719                            .dwattr $C$DW$300, DW_AT_data_member_location[DW_OP_plus_uconst 0x10]
    6720                            .dwattr $C$DW$300, DW_AT_accessibility(DW_ACCESS_public)
    6721                            .dwattr $C$DW$300, DW_AT_decl_file("C:/ti/ccsv6/tools/compiler/ti-cgt-arm_5.2.4/include/stdio.
    6722                            .dwattr $C$DW$300, DW_AT_decl_line(0x60)
    6723                            .dwattr $C$DW$300, DW_AT_decl_column(0x16)
    6724                    $C$DW$301       .dwtag  DW_TAG_member
    6725                            .dwattr $C$DW$301, DW_AT_type(*$C$DW$T$11)
    6726                            .dwattr $C$DW$301, DW_AT_name("flags")
    6727                            .dwattr $C$DW$301, DW_AT_TI_symbol_name("flags")
    6728                            .dwattr $C$DW$301, DW_AT_data_member_location[DW_OP_plus_uconst 0x14]
    6729                            .dwattr $C$DW$301, DW_AT_accessibility(DW_ACCESS_public)
    6730                            .dwattr $C$DW$301, DW_AT_decl_file("C:/ti/ccsv6/tools/compiler/ti-cgt-arm_5.2.4/include/stdio.
    6731                            .dwattr $C$DW$301, DW_AT_decl_line(0x61)
    6732                            .dwattr $C$DW$301, DW_AT_decl_column(0x16)
    6733                            .dwendtag $C$DW$T$20
    6734                    
    6735                            .dwattr $C$DW$T$20, DW_AT_decl_file("C:/ti/ccsv6/tools/compiler/ti-cgt-arm_5.2.4/include/stdio
    6736                            .dwattr $C$DW$T$20, DW_AT_decl_line(0x5b)
    6737                            .dwattr $C$DW$T$20, DW_AT_decl_column(0x10)
    6738                    $C$DW$T$25      .dwtag  DW_TAG_typedef, DW_AT_name("FILE")
    6739                            .dwattr $C$DW$T$25, DW_AT_type(*$C$DW$T$20)
    6740                            .dwattr $C$DW$T$25, DW_AT_language(DW_LANG_C)
    6741                            .dwattr $C$DW$T$25, DW_AT_decl_file("C:/ti/ccsv6/tools/compiler/ti-cgt-arm_5.2.4/include/stdio
    6742                            .dwattr $C$DW$T$25, DW_AT_decl_line(0x62)
    6743                            .dwattr $C$DW$T$25, DW_AT_decl_column(0x03)
    6744                    
    6745                    $C$DW$T$21      .dwtag  DW_TAG_structure_type
    6746                            .dwattr $C$DW$T$21, DW_AT_byte_size(0x08)
    6747                    $C$DW$302       .dwtag  DW_TAG_member
    6748                            .dwattr $C$DW$302, DW_AT_type(*$C$DW$T$10)
    6749                            .dwattr $C$DW$302, DW_AT_name("quot")
    6750                            .dwattr $C$DW$302, DW_AT_TI_symbol_name("quot")
    6751                            .dwattr $C$DW$302, DW_AT_data_member_location[DW_OP_plus_uconst 0x0]
TI ARM Assembler PC v5.2.4 Sat Feb 06 22:51:21 2016

Tools Copyright (c) 1996-2015 Texas Instruments Incorporated
esp8266.asm                                                          PAGE  136

    6752                            .dwattr $C$DW$302, DW_AT_accessibility(DW_ACCESS_public)
    6753                            .dwattr $C$DW$302, DW_AT_decl_file("C:/ti/ccsv6/tools/compiler/ti-cgt-arm_5.2.4/include/stdlib
    6754                            .dwattr $C$DW$302, DW_AT_decl_line(0x59)
    6755                            .dwattr $C$DW$302, DW_AT_decl_column(0x16)
    6756                    $C$DW$303       .dwtag  DW_TAG_member
    6757                            .dwattr $C$DW$303, DW_AT_type(*$C$DW$T$10)
    6758                            .dwattr $C$DW$303, DW_AT_name("rem")
    6759                            .dwattr $C$DW$303, DW_AT_TI_symbol_name("rem")
    6760                            .dwattr $C$DW$303, DW_AT_data_member_location[DW_OP_plus_uconst 0x4]
    6761                            .dwattr $C$DW$303, DW_AT_accessibility(DW_ACCESS_public)
    6762                            .dwattr $C$DW$303, DW_AT_decl_file("C:/ti/ccsv6/tools/compiler/ti-cgt-arm_5.2.4/include/stdlib
    6763                            .dwattr $C$DW$303, DW_AT_decl_line(0x59)
    6764                            .dwattr $C$DW$303, DW_AT_decl_column(0x1c)
    6765                            .dwendtag $C$DW$T$21
    6766                    
    6767                            .dwattr $C$DW$T$21, DW_AT_decl_file("C:/ti/ccsv6/tools/compiler/ti-cgt-arm_5.2.4/include/stdli
    6768                            .dwattr $C$DW$T$21, DW_AT_decl_line(0x59)
    6769                            .dwattr $C$DW$T$21, DW_AT_decl_column(0x10)
    6770                    $C$DW$T$26      .dwtag  DW_TAG_typedef, DW_AT_name("div_t")
    6771                            .dwattr $C$DW$T$26, DW_AT_type(*$C$DW$T$21)
    6772                            .dwattr $C$DW$T$26, DW_AT_language(DW_LANG_C)
    6773                            .dwattr $C$DW$T$26, DW_AT_decl_file("C:/ti/ccsv6/tools/compiler/ti-cgt-arm_5.2.4/include/stdli
    6774                            .dwattr $C$DW$T$26, DW_AT_decl_line(0x59)
    6775                            .dwattr $C$DW$T$26, DW_AT_decl_column(0x23)
    6776                    
    6777                    $C$DW$T$22      .dwtag  DW_TAG_structure_type
    6778                            .dwattr $C$DW$T$22, DW_AT_byte_size(0x08)
    6779                    $C$DW$304       .dwtag  DW_TAG_member
    6780                            .dwattr $C$DW$304, DW_AT_type(*$C$DW$T$10)
    6781                            .dwattr $C$DW$304, DW_AT_name("quot")
    6782                            .dwattr $C$DW$304, DW_AT_TI_symbol_name("quot")
    6783                            .dwattr $C$DW$304, DW_AT_data_member_location[DW_OP_plus_uconst 0x0]
    6784                            .dwattr $C$DW$304, DW_AT_accessibility(DW_ACCESS_public)
    6785                            .dwattr $C$DW$304, DW_AT_decl_file("C:/ti/ccsv6/tools/compiler/ti-cgt-arm_5.2.4/include/stdlib
    6786                            .dwattr $C$DW$304, DW_AT_decl_line(0x5b)
    6787                            .dwattr $C$DW$304, DW_AT_decl_column(0x16)
    6788                    $C$DW$305       .dwtag  DW_TAG_member
    6789                            .dwattr $C$DW$305, DW_AT_type(*$C$DW$T$10)
    6790                            .dwattr $C$DW$305, DW_AT_name("rem")
    6791                            .dwattr $C$DW$305, DW_AT_TI_symbol_name("rem")
    6792                            .dwattr $C$DW$305, DW_AT_data_member_location[DW_OP_plus_uconst 0x4]
    6793                            .dwattr $C$DW$305, DW_AT_accessibility(DW_ACCESS_public)
    6794                            .dwattr $C$DW$305, DW_AT_decl_file("C:/ti/ccsv6/tools/compiler/ti-cgt-arm_5.2.4/include/stdlib
    6795                            .dwattr $C$DW$305, DW_AT_decl_line(0x5b)
    6796                            .dwattr $C$DW$305, DW_AT_decl_column(0x1c)
    6797                            .dwendtag $C$DW$T$22
    6798                    
    6799                            .dwattr $C$DW$T$22, DW_AT_decl_file("C:/ti/ccsv6/tools/compiler/ti-cgt-arm_5.2.4/include/stdli
    6800                            .dwattr $C$DW$T$22, DW_AT_decl_line(0x5b)
    6801                            .dwattr $C$DW$T$22, DW_AT_decl_column(0x10)
    6802                    $C$DW$T$27      .dwtag  DW_TAG_typedef, DW_AT_name("ldiv_t")
    6803                            .dwattr $C$DW$T$27, DW_AT_type(*$C$DW$T$22)
    6804                            .dwattr $C$DW$T$27, DW_AT_language(DW_LANG_C)
    6805                            .dwattr $C$DW$T$27, DW_AT_decl_file("C:/ti/ccsv6/tools/compiler/ti-cgt-arm_5.2.4/include/stdli
    6806                            .dwattr $C$DW$T$27, DW_AT_decl_line(0x5b)
TI ARM Assembler PC v5.2.4 Sat Feb 06 22:51:21 2016

Tools Copyright (c) 1996-2015 Texas Instruments Incorporated
esp8266.asm                                                          PAGE  137

    6807                            .dwattr $C$DW$T$27, DW_AT_decl_column(0x23)
    6808                    
    6809                    $C$DW$T$23      .dwtag  DW_TAG_structure_type
    6810                            .dwattr $C$DW$T$23, DW_AT_byte_size(0x10)
    6811                    $C$DW$306       .dwtag  DW_TAG_member
    6812                            .dwattr $C$DW$306, DW_AT_type(*$C$DW$T$14)
    6813                            .dwattr $C$DW$306, DW_AT_name("quot")
    6814                            .dwattr $C$DW$306, DW_AT_TI_symbol_name("quot")
    6815                            .dwattr $C$DW$306, DW_AT_data_member_location[DW_OP_plus_uconst 0x0]
    6816                            .dwattr $C$DW$306, DW_AT_accessibility(DW_ACCESS_public)
    6817                            .dwattr $C$DW$306, DW_AT_decl_file("C:/ti/ccsv6/tools/compiler/ti-cgt-arm_5.2.4/include/stdlib
    6818                            .dwattr $C$DW$306, DW_AT_decl_line(0x5e)
    6819                            .dwattr $C$DW$306, DW_AT_decl_column(0x1c)
    6820                    $C$DW$307       .dwtag  DW_TAG_member
    6821                            .dwattr $C$DW$307, DW_AT_type(*$C$DW$T$14)
    6822                            .dwattr $C$DW$307, DW_AT_name("rem")
    6823                            .dwattr $C$DW$307, DW_AT_TI_symbol_name("rem")
    6824                            .dwattr $C$DW$307, DW_AT_data_member_location[DW_OP_plus_uconst 0x8]
    6825                            .dwattr $C$DW$307, DW_AT_accessibility(DW_ACCESS_public)
    6826                            .dwattr $C$DW$307, DW_AT_decl_file("C:/ti/ccsv6/tools/compiler/ti-cgt-arm_5.2.4/include/stdlib
    6827                            .dwattr $C$DW$307, DW_AT_decl_line(0x5e)
    6828                            .dwattr $C$DW$307, DW_AT_decl_column(0x22)
    6829                            .dwendtag $C$DW$T$23
    6830                    
    6831                            .dwattr $C$DW$T$23, DW_AT_decl_file("C:/ti/ccsv6/tools/compiler/ti-cgt-arm_5.2.4/include/stdli
    6832                            .dwattr $C$DW$T$23, DW_AT_decl_line(0x5e)
    6833                            .dwattr $C$DW$T$23, DW_AT_decl_column(0x10)
    6834                    $C$DW$T$28      .dwtag  DW_TAG_typedef, DW_AT_name("lldiv_t")
    6835                            .dwattr $C$DW$T$28, DW_AT_type(*$C$DW$T$23)
    6836                            .dwattr $C$DW$T$28, DW_AT_language(DW_LANG_C)
    6837                            .dwattr $C$DW$T$28, DW_AT_decl_file("C:/ti/ccsv6/tools/compiler/ti-cgt-arm_5.2.4/include/stdli
    6838                            .dwattr $C$DW$T$28, DW_AT_decl_line(0x5e)
    6839                            .dwattr $C$DW$T$28, DW_AT_decl_column(0x29)
    6840                    $C$DW$T$2       .dwtag  DW_TAG_unspecified_type
    6841                            .dwattr $C$DW$T$2, DW_AT_name("void")
    6842                    $C$DW$T$3       .dwtag  DW_TAG_pointer_type
    6843                            .dwattr $C$DW$T$3, DW_AT_type(*$C$DW$T$2)
    6844                            .dwattr $C$DW$T$3, DW_AT_address_class(0x20)
    6845                    
    6846                    $C$DW$T$32      .dwtag  DW_TAG_subroutine_type
    6847                            .dwattr $C$DW$T$32, DW_AT_language(DW_LANG_C)
    6848                    $C$DW$T$33      .dwtag  DW_TAG_pointer_type
    6849                            .dwattr $C$DW$T$33, DW_AT_type(*$C$DW$T$32)
    6850                            .dwattr $C$DW$T$33, DW_AT_address_class(0x20)
    6851                    $C$DW$T$34      .dwtag  DW_TAG_typedef, DW_AT_name("__TI_atexit_fn")
    6852                            .dwattr $C$DW$T$34, DW_AT_type(*$C$DW$T$33)
    6853                            .dwattr $C$DW$T$34, DW_AT_language(DW_LANG_C)
    6854                            .dwattr $C$DW$T$34, DW_AT_decl_file("C:/ti/ccsv6/tools/compiler/ti-cgt-arm_5.2.4/include/stdli
    6855                            .dwattr $C$DW$T$34, DW_AT_decl_line(0xb2)
    6856                            .dwattr $C$DW$T$34, DW_AT_decl_column(0x14)
    6857                    $C$DW$T$49      .dwtag  DW_TAG_const_type
    6858                            .dwattr $C$DW$T$49, DW_AT_type(*$C$DW$T$2)
    6859                    $C$DW$T$50      .dwtag  DW_TAG_pointer_type
    6860                            .dwattr $C$DW$T$50, DW_AT_type(*$C$DW$T$49)
    6861                            .dwattr $C$DW$T$50, DW_AT_address_class(0x20)
TI ARM Assembler PC v5.2.4 Sat Feb 06 22:51:21 2016

Tools Copyright (c) 1996-2015 Texas Instruments Incorporated
esp8266.asm                                                          PAGE  138

    6862                    $C$DW$T$4       .dwtag  DW_TAG_base_type
    6863                            .dwattr $C$DW$T$4, DW_AT_encoding(DW_ATE_boolean)
    6864                            .dwattr $C$DW$T$4, DW_AT_name("bool")
    6865                            .dwattr $C$DW$T$4, DW_AT_byte_size(0x01)
    6866                    $C$DW$T$5       .dwtag  DW_TAG_base_type
    6867                            .dwattr $C$DW$T$5, DW_AT_encoding(DW_ATE_signed_char)
    6868                            .dwattr $C$DW$T$5, DW_AT_name("signed char")
    6869                            .dwattr $C$DW$T$5, DW_AT_byte_size(0x01)
    6870                    $C$DW$T$51      .dwtag  DW_TAG_typedef, DW_AT_name("int8_t")
    6871                            .dwattr $C$DW$T$51, DW_AT_type(*$C$DW$T$5)
    6872                            .dwattr $C$DW$T$51, DW_AT_language(DW_LANG_C)
    6873                            .dwattr $C$DW$T$51, DW_AT_decl_file("C:/ti/ccsv6/tools/compiler/ti-cgt-arm_5.2.4/include/stdin
    6874                            .dwattr $C$DW$T$51, DW_AT_decl_line(0x2a)
    6875                            .dwattr $C$DW$T$51, DW_AT_decl_column(0x1d)
    6876                    $C$DW$T$52      .dwtag  DW_TAG_typedef, DW_AT_name("int_least8_t")
    6877                            .dwattr $C$DW$T$52, DW_AT_type(*$C$DW$T$51)
    6878                            .dwattr $C$DW$T$52, DW_AT_language(DW_LANG_C)
    6879                            .dwattr $C$DW$T$52, DW_AT_decl_file("C:/ti/ccsv6/tools/compiler/ti-cgt-arm_5.2.4/include/stdin
    6880                            .dwattr $C$DW$T$52, DW_AT_decl_line(0x37)
    6881                            .dwattr $C$DW$T$52, DW_AT_decl_column(0x17)
    6882                    $C$DW$T$6       .dwtag  DW_TAG_base_type
    6883                            .dwattr $C$DW$T$6, DW_AT_encoding(DW_ATE_unsigned_char)
    6884                            .dwattr $C$DW$T$6, DW_AT_name("unsigned char")
    6885                            .dwattr $C$DW$T$6, DW_AT_byte_size(0x01)
    6886                    $C$DW$T$19      .dwtag  DW_TAG_pointer_type
    6887                            .dwattr $C$DW$T$19, DW_AT_type(*$C$DW$T$6)
    6888                            .dwattr $C$DW$T$19, DW_AT_address_class(0x20)
    6889                    $C$DW$T$53      .dwtag  DW_TAG_typedef, DW_AT_name("uint8_t")
    6890                            .dwattr $C$DW$T$53, DW_AT_type(*$C$DW$T$6)
    6891                            .dwattr $C$DW$T$53, DW_AT_language(DW_LANG_C)
    6892                            .dwattr $C$DW$T$53, DW_AT_decl_file("C:/ti/ccsv6/tools/compiler/ti-cgt-arm_5.2.4/include/stdin
    6893                            .dwattr $C$DW$T$53, DW_AT_decl_line(0x2b)
    6894                            .dwattr $C$DW$T$53, DW_AT_decl_column(0x1c)
    6895                    $C$DW$T$54      .dwtag  DW_TAG_typedef, DW_AT_name("uint_least8_t")
    6896                            .dwattr $C$DW$T$54, DW_AT_type(*$C$DW$T$53)
    6897                            .dwattr $C$DW$T$54, DW_AT_language(DW_LANG_C)
    6898                            .dwattr $C$DW$T$54, DW_AT_decl_file("C:/ti/ccsv6/tools/compiler/ti-cgt-arm_5.2.4/include/stdin
    6899                            .dwattr $C$DW$T$54, DW_AT_decl_line(0x38)
    6900                            .dwattr $C$DW$T$54, DW_AT_decl_column(0x16)
    6901                    $C$DW$T$7       .dwtag  DW_TAG_base_type
    6902                            .dwattr $C$DW$T$7, DW_AT_encoding(DW_ATE_signed_char)
    6903                            .dwattr $C$DW$T$7, DW_AT_name("wchar_t")
    6904                            .dwattr $C$DW$T$7, DW_AT_byte_size(0x02)
    6905                    $C$DW$T$8       .dwtag  DW_TAG_base_type
    6906                            .dwattr $C$DW$T$8, DW_AT_encoding(DW_ATE_signed)
    6907                            .dwattr $C$DW$T$8, DW_AT_name("short")
    6908                            .dwattr $C$DW$T$8, DW_AT_byte_size(0x02)
    6909                    $C$DW$T$55      .dwtag  DW_TAG_typedef, DW_AT_name("int16_t")
    6910                            .dwattr $C$DW$T$55, DW_AT_type(*$C$DW$T$8)
    6911                            .dwattr $C$DW$T$55, DW_AT_language(DW_LANG_C)
    6912                            .dwattr $C$DW$T$55, DW_AT_decl_file("C:/ti/ccsv6/tools/compiler/ti-cgt-arm_5.2.4/include/stdin
    6913                            .dwattr $C$DW$T$55, DW_AT_decl_line(0x2c)
    6914                            .dwattr $C$DW$T$55, DW_AT_decl_column(0x1d)
    6915                    $C$DW$T$56      .dwtag  DW_TAG_typedef, DW_AT_name("int_least16_t")
    6916                            .dwattr $C$DW$T$56, DW_AT_type(*$C$DW$T$55)
TI ARM Assembler PC v5.2.4 Sat Feb 06 22:51:21 2016

Tools Copyright (c) 1996-2015 Texas Instruments Incorporated
esp8266.asm                                                          PAGE  139

    6917                            .dwattr $C$DW$T$56, DW_AT_language(DW_LANG_C)
    6918                            .dwattr $C$DW$T$56, DW_AT_decl_file("C:/ti/ccsv6/tools/compiler/ti-cgt-arm_5.2.4/include/stdin
    6919                            .dwattr $C$DW$T$56, DW_AT_decl_line(0x3a)
    6920                            .dwattr $C$DW$T$56, DW_AT_decl_column(0x17)
    6921                    $C$DW$T$9       .dwtag  DW_TAG_base_type
    6922                            .dwattr $C$DW$T$9, DW_AT_encoding(DW_ATE_unsigned)
    6923                            .dwattr $C$DW$T$9, DW_AT_name("unsigned short")
    6924                            .dwattr $C$DW$T$9, DW_AT_byte_size(0x02)
    6925                    $C$DW$T$57      .dwtag  DW_TAG_typedef, DW_AT_name("_Wchart")
    6926                            .dwattr $C$DW$T$57, DW_AT_type(*$C$DW$T$9)
    6927                            .dwattr $C$DW$T$57, DW_AT_language(DW_LANG_C)
    6928                            .dwattr $C$DW$T$57, DW_AT_decl_file("C:/ti/ccsv6/tools/compiler/ti-cgt-arm_5.2.4/include/yvals
    6929                            .dwattr $C$DW$T$57, DW_AT_decl_line(0x1e5)
    6930                            .dwattr $C$DW$T$57, DW_AT_decl_column(0x21)
    6931                    $C$DW$T$58      .dwtag  DW_TAG_typedef, DW_AT_name("_Wintt")
    6932                            .dwattr $C$DW$T$58, DW_AT_type(*$C$DW$T$9)
    6933                            .dwattr $C$DW$T$58, DW_AT_language(DW_LANG_C)
    6934                            .dwattr $C$DW$T$58, DW_AT_decl_file("C:/ti/ccsv6/tools/compiler/ti-cgt-arm_5.2.4/include/yvals
    6935                            .dwattr $C$DW$T$58, DW_AT_decl_line(0x1e6)
    6936                            .dwattr $C$DW$T$58, DW_AT_decl_column(0x21)
    6937                    $C$DW$T$47      .dwtag  DW_TAG_typedef, DW_AT_name("uint16_t")
    6938                            .dwattr $C$DW$T$47, DW_AT_type(*$C$DW$T$9)
    6939                            .dwattr $C$DW$T$47, DW_AT_language(DW_LANG_C)
    6940                            .dwattr $C$DW$T$47, DW_AT_decl_file("C:/ti/ccsv6/tools/compiler/ti-cgt-arm_5.2.4/include/stdin
    6941                            .dwattr $C$DW$T$47, DW_AT_decl_line(0x2d)
    6942                            .dwattr $C$DW$T$47, DW_AT_decl_column(0x1c)
    6943                    $C$DW$T$59      .dwtag  DW_TAG_typedef, DW_AT_name("uint_least16_t")
    6944                            .dwattr $C$DW$T$59, DW_AT_type(*$C$DW$T$47)
    6945                            .dwattr $C$DW$T$59, DW_AT_language(DW_LANG_C)
    6946                            .dwattr $C$DW$T$59, DW_AT_decl_file("C:/ti/ccsv6/tools/compiler/ti-cgt-arm_5.2.4/include/stdin
    6947                            .dwattr $C$DW$T$59, DW_AT_decl_line(0x3b)
    6948                            .dwattr $C$DW$T$59, DW_AT_decl_column(0x16)
    6949                    $C$DW$T$60      .dwtag  DW_TAG_typedef, DW_AT_name("wchar_t")
    6950                            .dwattr $C$DW$T$60, DW_AT_type(*$C$DW$T$9)
    6951                            .dwattr $C$DW$T$60, DW_AT_language(DW_LANG_C)
    6952                            .dwattr $C$DW$T$60, DW_AT_decl_file("C:/ti/ccsv6/tools/compiler/ti-cgt-arm_5.2.4/include/stdli
    6953                            .dwattr $C$DW$T$60, DW_AT_decl_line(0x75)
    6954                            .dwattr $C$DW$T$60, DW_AT_decl_column(0x1a)
    6955                    $C$DW$T$10      .dwtag  DW_TAG_base_type
    6956                            .dwattr $C$DW$T$10, DW_AT_encoding(DW_ATE_signed)
    6957                            .dwattr $C$DW$T$10, DW_AT_name("int")
    6958                            .dwattr $C$DW$T$10, DW_AT_byte_size(0x04)
    6959                    $C$DW$T$61      .dwtag  DW_TAG_typedef, DW_AT_name("_Ptrdifft")
    6960                            .dwattr $C$DW$T$61, DW_AT_type(*$C$DW$T$10)
    6961                            .dwattr $C$DW$T$61, DW_AT_language(DW_LANG_C)
    6962                            .dwattr $C$DW$T$61, DW_AT_decl_file("C:/ti/ccsv6/tools/compiler/ti-cgt-arm_5.2.4/include/yvals
    6963                            .dwattr $C$DW$T$61, DW_AT_decl_line(0xa9)
    6964                            .dwattr $C$DW$T$61, DW_AT_decl_column(0x1e)
    6965                    
    6966                    $C$DW$T$74      .dwtag  DW_TAG_subroutine_type
    6967                            .dwattr $C$DW$T$74, DW_AT_type(*$C$DW$T$10)
    6968                            .dwattr $C$DW$T$74, DW_AT_language(DW_LANG_C)
    6969                    $C$DW$308       .dwtag  DW_TAG_formal_parameter
    6970                            .dwattr $C$DW$308, DW_AT_type(*$C$DW$T$50)
    6971                    $C$DW$309       .dwtag  DW_TAG_formal_parameter
TI ARM Assembler PC v5.2.4 Sat Feb 06 22:51:21 2016

Tools Copyright (c) 1996-2015 Texas Instruments Incorporated
esp8266.asm                                                          PAGE  140

    6972                            .dwattr $C$DW$309, DW_AT_type(*$C$DW$T$50)
    6973                            .dwendtag $C$DW$T$74
    6974                    
    6975                    $C$DW$T$75      .dwtag  DW_TAG_pointer_type
    6976                            .dwattr $C$DW$T$75, DW_AT_type(*$C$DW$T$74)
    6977                            .dwattr $C$DW$T$75, DW_AT_address_class(0x20)
    6978                    $C$DW$T$76      .dwtag  DW_TAG_typedef, DW_AT_name("__TI_compar_fn")
    6979                            .dwattr $C$DW$T$76, DW_AT_type(*$C$DW$T$75)
    6980                            .dwattr $C$DW$T$76, DW_AT_language(DW_LANG_C)
    6981                            .dwattr $C$DW$T$76, DW_AT_decl_file("C:/ti/ccsv6/tools/compiler/ti-cgt-arm_5.2.4/include/stdli
    6982                            .dwattr $C$DW$T$76, DW_AT_decl_line(0xb5)
    6983                            .dwattr $C$DW$T$76, DW_AT_decl_column(0x13)
    6984                    $C$DW$T$77      .dwtag  DW_TAG_typedef, DW_AT_name("int32_t")
    6985                            .dwattr $C$DW$T$77, DW_AT_type(*$C$DW$T$10)
    6986                            .dwattr $C$DW$T$77, DW_AT_language(DW_LANG_C)
    6987                            .dwattr $C$DW$T$77, DW_AT_decl_file("C:/ti/ccsv6/tools/compiler/ti-cgt-arm_5.2.4/include/stdin
    6988                            .dwattr $C$DW$T$77, DW_AT_decl_line(0x2e)
    6989                            .dwattr $C$DW$T$77, DW_AT_decl_column(0x1d)
    6990                    $C$DW$T$78      .dwtag  DW_TAG_typedef, DW_AT_name("int_fast16_t")
    6991                            .dwattr $C$DW$T$78, DW_AT_type(*$C$DW$T$77)
    6992                            .dwattr $C$DW$T$78, DW_AT_language(DW_LANG_C)
    6993                            .dwattr $C$DW$T$78, DW_AT_decl_file("C:/ti/ccsv6/tools/compiler/ti-cgt-arm_5.2.4/include/stdin
    6994                            .dwattr $C$DW$T$78, DW_AT_decl_line(0x47)
    6995                            .dwattr $C$DW$T$78, DW_AT_decl_column(0x17)
    6996                    $C$DW$T$79      .dwtag  DW_TAG_typedef, DW_AT_name("int_fast32_t")
    6997                            .dwattr $C$DW$T$79, DW_AT_type(*$C$DW$T$77)
    6998                            .dwattr $C$DW$T$79, DW_AT_language(DW_LANG_C)
    6999                            .dwattr $C$DW$T$79, DW_AT_decl_file("C:/ti/ccsv6/tools/compiler/ti-cgt-arm_5.2.4/include/stdin
    7000                            .dwattr $C$DW$T$79, DW_AT_decl_line(0x4a)
    7001                            .dwattr $C$DW$T$79, DW_AT_decl_column(0x17)
    7002                    $C$DW$T$80      .dwtag  DW_TAG_typedef, DW_AT_name("int_fast8_t")
    7003                            .dwattr $C$DW$T$80, DW_AT_type(*$C$DW$T$77)
    7004                            .dwattr $C$DW$T$80, DW_AT_language(DW_LANG_C)
    7005                            .dwattr $C$DW$T$80, DW_AT_decl_file("C:/ti/ccsv6/tools/compiler/ti-cgt-arm_5.2.4/include/stdin
    7006                            .dwattr $C$DW$T$80, DW_AT_decl_line(0x45)
    7007                            .dwattr $C$DW$T$80, DW_AT_decl_column(0x17)
    7008                    $C$DW$T$81      .dwtag  DW_TAG_typedef, DW_AT_name("int_least32_t")
    7009                            .dwattr $C$DW$T$81, DW_AT_type(*$C$DW$T$77)
    7010                            .dwattr $C$DW$T$81, DW_AT_language(DW_LANG_C)
    7011                            .dwattr $C$DW$T$81, DW_AT_decl_file("C:/ti/ccsv6/tools/compiler/ti-cgt-arm_5.2.4/include/stdin
    7012                            .dwattr $C$DW$T$81, DW_AT_decl_line(0x3c)
    7013                            .dwattr $C$DW$T$81, DW_AT_decl_column(0x17)
    7014                    $C$DW$T$82      .dwtag  DW_TAG_typedef, DW_AT_name("intptr_t")
    7015                            .dwattr $C$DW$T$82, DW_AT_type(*$C$DW$T$10)
    7016                            .dwattr $C$DW$T$82, DW_AT_language(DW_LANG_C)
    7017                            .dwattr $C$DW$T$82, DW_AT_decl_file("C:/ti/ccsv6/tools/compiler/ti-cgt-arm_5.2.4/include/stdin
    7018                            .dwattr $C$DW$T$82, DW_AT_decl_line(0x52)
    7019                            .dwattr $C$DW$T$82, DW_AT_decl_column(0x1a)
    7020                    $C$DW$T$11      .dwtag  DW_TAG_base_type
    7021                            .dwattr $C$DW$T$11, DW_AT_encoding(DW_ATE_unsigned)
    7022                            .dwattr $C$DW$T$11, DW_AT_name("unsigned int")
    7023                            .dwattr $C$DW$T$11, DW_AT_byte_size(0x04)
    7024                    $C$DW$T$83      .dwtag  DW_TAG_typedef, DW_AT_name("_Sizet")
    7025                            .dwattr $C$DW$T$83, DW_AT_type(*$C$DW$T$11)
    7026                            .dwattr $C$DW$T$83, DW_AT_language(DW_LANG_C)
TI ARM Assembler PC v5.2.4 Sat Feb 06 22:51:21 2016

Tools Copyright (c) 1996-2015 Texas Instruments Incorporated
esp8266.asm                                                          PAGE  141

    7027                            .dwattr $C$DW$T$83, DW_AT_decl_file("C:/ti/ccsv6/tools/compiler/ti-cgt-arm_5.2.4/include/yvals
    7028                            .dwattr $C$DW$T$83, DW_AT_decl_line(0xab)
    7029                            .dwattr $C$DW$T$83, DW_AT_decl_column(0x1a)
    7030                    $C$DW$T$85      .dwtag  DW_TAG_typedef, DW_AT_name("size_t")
    7031                            .dwattr $C$DW$T$85, DW_AT_type(*$C$DW$T$11)
    7032                            .dwattr $C$DW$T$85, DW_AT_language(DW_LANG_C)
    7033                            .dwattr $C$DW$T$85, DW_AT_decl_file("C:/ti/ccsv6/tools/compiler/ti-cgt-arm_5.2.4/include/stdio
    7034                            .dwattr $C$DW$T$85, DW_AT_decl_line(0x58)
    7035                            .dwattr $C$DW$T$85, DW_AT_decl_column(0x19)
    7036                    $C$DW$T$38      .dwtag  DW_TAG_typedef, DW_AT_name("uint32_t")
    7037                            .dwattr $C$DW$T$38, DW_AT_type(*$C$DW$T$11)
    7038                            .dwattr $C$DW$T$38, DW_AT_language(DW_LANG_C)
    7039                            .dwattr $C$DW$T$38, DW_AT_decl_file("C:/ti/ccsv6/tools/compiler/ti-cgt-arm_5.2.4/include/stdin
    7040                            .dwattr $C$DW$T$38, DW_AT_decl_line(0x2f)
    7041                            .dwattr $C$DW$T$38, DW_AT_decl_column(0x1c)
    7042                    $C$DW$T$88      .dwtag  DW_TAG_volatile_type
    7043                            .dwattr $C$DW$T$88, DW_AT_type(*$C$DW$T$38)
    7044                    $C$DW$T$90      .dwtag  DW_TAG_typedef, DW_AT_name("uint_fast16_t")
    7045                            .dwattr $C$DW$T$90, DW_AT_type(*$C$DW$T$38)
    7046                            .dwattr $C$DW$T$90, DW_AT_language(DW_LANG_C)
    7047                            .dwattr $C$DW$T$90, DW_AT_decl_file("C:/ti/ccsv6/tools/compiler/ti-cgt-arm_5.2.4/include/stdin
    7048                            .dwattr $C$DW$T$90, DW_AT_decl_line(0x48)
    7049                            .dwattr $C$DW$T$90, DW_AT_decl_column(0x16)
    7050                    $C$DW$T$91      .dwtag  DW_TAG_typedef, DW_AT_name("uint_fast32_t")
    7051                            .dwattr $C$DW$T$91, DW_AT_type(*$C$DW$T$38)
    7052                            .dwattr $C$DW$T$91, DW_AT_language(DW_LANG_C)
    7053                            .dwattr $C$DW$T$91, DW_AT_decl_file("C:/ti/ccsv6/tools/compiler/ti-cgt-arm_5.2.4/include/stdin
    7054                            .dwattr $C$DW$T$91, DW_AT_decl_line(0x4b)
    7055                            .dwattr $C$DW$T$91, DW_AT_decl_column(0x16)
    7056                    $C$DW$T$92      .dwtag  DW_TAG_typedef, DW_AT_name("uint_fast8_t")
    7057                            .dwattr $C$DW$T$92, DW_AT_type(*$C$DW$T$38)
    7058                            .dwattr $C$DW$T$92, DW_AT_language(DW_LANG_C)
    7059                            .dwattr $C$DW$T$92, DW_AT_decl_file("C:/ti/ccsv6/tools/compiler/ti-cgt-arm_5.2.4/include/stdin
    7060                            .dwattr $C$DW$T$92, DW_AT_decl_line(0x46)
    7061                            .dwattr $C$DW$T$92, DW_AT_decl_column(0x16)
    7062                    $C$DW$T$93      .dwtag  DW_TAG_typedef, DW_AT_name("uint_least32_t")
    7063                            .dwattr $C$DW$T$93, DW_AT_type(*$C$DW$T$38)
    7064                            .dwattr $C$DW$T$93, DW_AT_language(DW_LANG_C)
    7065                            .dwattr $C$DW$T$93, DW_AT_decl_file("C:/ti/ccsv6/tools/compiler/ti-cgt-arm_5.2.4/include/stdin
    7066                            .dwattr $C$DW$T$93, DW_AT_decl_line(0x3d)
    7067                            .dwattr $C$DW$T$93, DW_AT_decl_column(0x16)
    7068                    $C$DW$T$94      .dwtag  DW_TAG_typedef, DW_AT_name("uintptr_t")
    7069                            .dwattr $C$DW$T$94, DW_AT_type(*$C$DW$T$11)
    7070                            .dwattr $C$DW$T$94, DW_AT_language(DW_LANG_C)
    7071                            .dwattr $C$DW$T$94, DW_AT_decl_file("C:/ti/ccsv6/tools/compiler/ti-cgt-arm_5.2.4/include/stdin
    7072                            .dwattr $C$DW$T$94, DW_AT_decl_line(0x53)
    7073                            .dwattr $C$DW$T$94, DW_AT_decl_column(0x1a)
    7074                    $C$DW$T$12      .dwtag  DW_TAG_base_type
    7075                            .dwattr $C$DW$T$12, DW_AT_encoding(DW_ATE_signed)
    7076                            .dwattr $C$DW$T$12, DW_AT_name("long")
    7077                            .dwattr $C$DW$T$12, DW_AT_byte_size(0x04)
    7078                    $C$DW$T$95      .dwtag  DW_TAG_typedef, DW_AT_name("_Int32t")
    7079                            .dwattr $C$DW$T$95, DW_AT_type(*$C$DW$T$12)
    7080                            .dwattr $C$DW$T$95, DW_AT_language(DW_LANG_C)
    7081                            .dwattr $C$DW$T$95, DW_AT_decl_file("C:/ti/ccsv6/tools/compiler/ti-cgt-arm_5.2.4/include/yvals
TI ARM Assembler PC v5.2.4 Sat Feb 06 22:51:21 2016

Tools Copyright (c) 1996-2015 Texas Instruments Incorporated
esp8266.asm                                                          PAGE  142

    7082                            .dwattr $C$DW$T$95, DW_AT_decl_line(0xa6)
    7083                            .dwattr $C$DW$T$95, DW_AT_decl_column(0x0e)
    7084                    $C$DW$T$96      .dwtag  DW_TAG_typedef, DW_AT_name("fpos_t")
    7085                            .dwattr $C$DW$T$96, DW_AT_type(*$C$DW$T$12)
    7086                            .dwattr $C$DW$T$96, DW_AT_language(DW_LANG_C)
    7087                            .dwattr $C$DW$T$96, DW_AT_decl_file("C:/ti/ccsv6/tools/compiler/ti-cgt-arm_5.2.4/include/stdio
    7088                            .dwattr $C$DW$T$96, DW_AT_decl_line(0x6e)
    7089                            .dwattr $C$DW$T$96, DW_AT_decl_column(0x0e)
    7090                    $C$DW$T$13      .dwtag  DW_TAG_base_type
    7091                            .dwattr $C$DW$T$13, DW_AT_encoding(DW_ATE_unsigned)
    7092                            .dwattr $C$DW$T$13, DW_AT_name("unsigned long")
    7093                            .dwattr $C$DW$T$13, DW_AT_byte_size(0x04)
    7094                    $C$DW$T$97      .dwtag  DW_TAG_typedef, DW_AT_name("_Uint32t")
    7095                            .dwattr $C$DW$T$97, DW_AT_type(*$C$DW$T$13)
    7096                            .dwattr $C$DW$T$97, DW_AT_language(DW_LANG_C)
    7097                            .dwattr $C$DW$T$97, DW_AT_decl_file("C:/ti/ccsv6/tools/compiler/ti-cgt-arm_5.2.4/include/yvals
    7098                            .dwattr $C$DW$T$97, DW_AT_decl_line(0xa7)
    7099                            .dwattr $C$DW$T$97, DW_AT_decl_column(0x17)
    7100                    $C$DW$T$14      .dwtag  DW_TAG_base_type
    7101                            .dwattr $C$DW$T$14, DW_AT_encoding(DW_ATE_signed)
    7102                            .dwattr $C$DW$T$14, DW_AT_name("long long")
    7103                            .dwattr $C$DW$T$14, DW_AT_byte_size(0x08)
    7104                    $C$DW$T$98      .dwtag  DW_TAG_typedef, DW_AT_name("_Longlong")
    7105                            .dwattr $C$DW$T$98, DW_AT_type(*$C$DW$T$14)
    7106                            .dwattr $C$DW$T$98, DW_AT_language(DW_LANG_C)
    7107                            .dwattr $C$DW$T$98, DW_AT_decl_file("C:/ti/ccsv6/tools/compiler/ti-cgt-arm_5.2.4/include/yvals
    7108                            .dwattr $C$DW$T$98, DW_AT_decl_line(0x1b5)
    7109                            .dwattr $C$DW$T$98, DW_AT_decl_column(0x13)
    7110                    $C$DW$T$99      .dwtag  DW_TAG_typedef, DW_AT_name("int64_t")
    7111                            .dwattr $C$DW$T$99, DW_AT_type(*$C$DW$T$14)
    7112                            .dwattr $C$DW$T$99, DW_AT_language(DW_LANG_C)
    7113                            .dwattr $C$DW$T$99, DW_AT_decl_file("C:/ti/ccsv6/tools/compiler/ti-cgt-arm_5.2.4/include/stdin
    7114                            .dwattr $C$DW$T$99, DW_AT_decl_line(0x32)
    7115                            .dwattr $C$DW$T$99, DW_AT_decl_column(0x21)
    7116                    $C$DW$T$100     .dwtag  DW_TAG_typedef, DW_AT_name("int_fast64_t")
    7117                            .dwattr $C$DW$T$100, DW_AT_type(*$C$DW$T$99)
    7118                            .dwattr $C$DW$T$100, DW_AT_language(DW_LANG_C)
    7119                            .dwattr $C$DW$T$100, DW_AT_decl_file("C:/ti/ccsv6/tools/compiler/ti-cgt-arm_5.2.4/include/stdi
    7120                            .dwattr $C$DW$T$100, DW_AT_decl_line(0x4e)
    7121                            .dwattr $C$DW$T$100, DW_AT_decl_column(0x17)
    7122                    $C$DW$T$101     .dwtag  DW_TAG_typedef, DW_AT_name("int_least64_t")
    7123                            .dwattr $C$DW$T$101, DW_AT_type(*$C$DW$T$99)
    7124                            .dwattr $C$DW$T$101, DW_AT_language(DW_LANG_C)
    7125                            .dwattr $C$DW$T$101, DW_AT_decl_file("C:/ti/ccsv6/tools/compiler/ti-cgt-arm_5.2.4/include/stdi
    7126                            .dwattr $C$DW$T$101, DW_AT_decl_line(0x40)
    7127                            .dwattr $C$DW$T$101, DW_AT_decl_column(0x17)
    7128                    $C$DW$T$102     .dwtag  DW_TAG_typedef, DW_AT_name("intmax_t")
    7129                            .dwattr $C$DW$T$102, DW_AT_type(*$C$DW$T$14)
    7130                            .dwattr $C$DW$T$102, DW_AT_language(DW_LANG_C)
    7131                            .dwattr $C$DW$T$102, DW_AT_decl_file("C:/ti/ccsv6/tools/compiler/ti-cgt-arm_5.2.4/include/stdi
    7132                            .dwattr $C$DW$T$102, DW_AT_decl_line(0x56)
    7133                            .dwattr $C$DW$T$102, DW_AT_decl_column(0x20)
    7134                    $C$DW$T$15      .dwtag  DW_TAG_base_type
    7135                            .dwattr $C$DW$T$15, DW_AT_encoding(DW_ATE_unsigned)
    7136                            .dwattr $C$DW$T$15, DW_AT_name("unsigned long long")
TI ARM Assembler PC v5.2.4 Sat Feb 06 22:51:21 2016

Tools Copyright (c) 1996-2015 Texas Instruments Incorporated
esp8266.asm                                                          PAGE  143

    7137                            .dwattr $C$DW$T$15, DW_AT_byte_size(0x08)
    7138                    $C$DW$T$103     .dwtag  DW_TAG_typedef, DW_AT_name("_ULonglong")
    7139                            .dwattr $C$DW$T$103, DW_AT_type(*$C$DW$T$15)
    7140                            .dwattr $C$DW$T$103, DW_AT_language(DW_LANG_C)
    7141                            .dwattr $C$DW$T$103, DW_AT_decl_file("C:/ti/ccsv6/tools/compiler/ti-cgt-arm_5.2.4/include/yval
    7142                            .dwattr $C$DW$T$103, DW_AT_decl_line(0x1b6)
    7143                            .dwattr $C$DW$T$103, DW_AT_decl_column(0x14)
    7144                    $C$DW$T$104     .dwtag  DW_TAG_typedef, DW_AT_name("uint64_t")
    7145                            .dwattr $C$DW$T$104, DW_AT_type(*$C$DW$T$15)
    7146                            .dwattr $C$DW$T$104, DW_AT_language(DW_LANG_C)
    7147                            .dwattr $C$DW$T$104, DW_AT_decl_file("C:/ti/ccsv6/tools/compiler/ti-cgt-arm_5.2.4/include/stdi
    7148                            .dwattr $C$DW$T$104, DW_AT_decl_line(0x33)
    7149                            .dwattr $C$DW$T$104, DW_AT_decl_column(0x20)
    7150                    $C$DW$T$105     .dwtag  DW_TAG_typedef, DW_AT_name("uint_fast64_t")
    7151                            .dwattr $C$DW$T$105, DW_AT_type(*$C$DW$T$104)
    7152                            .dwattr $C$DW$T$105, DW_AT_language(DW_LANG_C)
    7153                            .dwattr $C$DW$T$105, DW_AT_decl_file("C:/ti/ccsv6/tools/compiler/ti-cgt-arm_5.2.4/include/stdi
    7154                            .dwattr $C$DW$T$105, DW_AT_decl_line(0x4f)
    7155                            .dwattr $C$DW$T$105, DW_AT_decl_column(0x16)
    7156                    $C$DW$T$106     .dwtag  DW_TAG_typedef, DW_AT_name("uint_least64_t")
    7157                            .dwattr $C$DW$T$106, DW_AT_type(*$C$DW$T$104)
    7158                            .dwattr $C$DW$T$106, DW_AT_language(DW_LANG_C)
    7159                            .dwattr $C$DW$T$106, DW_AT_decl_file("C:/ti/ccsv6/tools/compiler/ti-cgt-arm_5.2.4/include/stdi
    7160                            .dwattr $C$DW$T$106, DW_AT_decl_line(0x41)
    7161                            .dwattr $C$DW$T$106, DW_AT_decl_column(0x16)
    7162                    $C$DW$T$107     .dwtag  DW_TAG_typedef, DW_AT_name("uintmax_t")
    7163                            .dwattr $C$DW$T$107, DW_AT_type(*$C$DW$T$15)
    7164                            .dwattr $C$DW$T$107, DW_AT_language(DW_LANG_C)
    7165                            .dwattr $C$DW$T$107, DW_AT_decl_file("C:/ti/ccsv6/tools/compiler/ti-cgt-arm_5.2.4/include/stdi
    7166                            .dwattr $C$DW$T$107, DW_AT_decl_line(0x57)
    7167                            .dwattr $C$DW$T$107, DW_AT_decl_column(0x20)
    7168                    $C$DW$T$16      .dwtag  DW_TAG_base_type
    7169                            .dwattr $C$DW$T$16, DW_AT_encoding(DW_ATE_float)
    7170                            .dwattr $C$DW$T$16, DW_AT_name("float")
    7171                            .dwattr $C$DW$T$16, DW_AT_byte_size(0x04)
    7172                    $C$DW$T$17      .dwtag  DW_TAG_base_type
    7173                            .dwattr $C$DW$T$17, DW_AT_encoding(DW_ATE_float)
    7174                            .dwattr $C$DW$T$17, DW_AT_name("double")
    7175                            .dwattr $C$DW$T$17, DW_AT_byte_size(0x08)
    7176                    $C$DW$T$18      .dwtag  DW_TAG_base_type
    7177                            .dwattr $C$DW$T$18, DW_AT_encoding(DW_ATE_float)
    7178                            .dwattr $C$DW$T$18, DW_AT_name("long double")
    7179                            .dwattr $C$DW$T$18, DW_AT_byte_size(0x08)
    7180                    $C$DW$T$108     .dwtag  DW_TAG_typedef, DW_AT_name("_Sysch_t")
    7181                            .dwattr $C$DW$T$108, DW_AT_type(*$C$DW$T$6)
    7182                            .dwattr $C$DW$T$108, DW_AT_language(DW_LANG_C)
    7183                            .dwattr $C$DW$T$108, DW_AT_decl_file("C:/ti/ccsv6/tools/compiler/ti-cgt-arm_5.2.4/include/yval
    7184                            .dwattr $C$DW$T$108, DW_AT_decl_line(0x218)
    7185                            .dwattr $C$DW$T$108, DW_AT_decl_column(0x0e)
    7186                    $C$DW$T$35      .dwtag  DW_TAG_pointer_type
    7187                            .dwattr $C$DW$T$35, DW_AT_type(*$C$DW$T$6)
    7188                            .dwattr $C$DW$T$35, DW_AT_address_class(0x20)
    7189                    $C$DW$T$115     .dwtag  DW_TAG_typedef, DW_AT_name("__builtin_va_list")
    7190                            .dwattr $C$DW$T$115, DW_AT_type(*$C$DW$T$35)
    7191                            .dwattr $C$DW$T$115, DW_AT_language(DW_LANG_C)
TI ARM Assembler PC v5.2.4 Sat Feb 06 22:51:21 2016

Tools Copyright (c) 1996-2015 Texas Instruments Incorporated
esp8266.asm                                                          PAGE  144

    7192                            .dwattr $C$DW$T$115, DW_AT_decl_file("../esp8266.c")
    7193                            .dwattr $C$DW$T$115, DW_AT_decl_line(0x303)
    7194                            .dwattr $C$DW$T$115, DW_AT_decl_column(0x01)
    7195                    $C$DW$T$41      .dwtag  DW_TAG_const_type
    7196                            .dwattr $C$DW$T$41, DW_AT_type(*$C$DW$T$6)
    7197                    $C$DW$T$42      .dwtag  DW_TAG_pointer_type
    7198                            .dwattr $C$DW$T$42, DW_AT_type(*$C$DW$T$41)
    7199                            .dwattr $C$DW$T$42, DW_AT_address_class(0x20)
    7200                    
    7201                    $C$DW$T$109     .dwtag  DW_TAG_array_type
    7202                            .dwattr $C$DW$T$109, DW_AT_type(*$C$DW$T$41)
    7203                            .dwattr $C$DW$T$109, DW_AT_language(DW_LANG_C)
    7204                            .dwattr $C$DW$T$109, DW_AT_byte_size(0xee)
    7205                    $C$DW$310       .dwtag  DW_TAG_subrange_type
    7206                            .dwattr $C$DW$310, DW_AT_upper_bound(0xed)
    7207                            .dwendtag $C$DW$T$109
    7208                    
    7209                    
    7210                    $C$DW$T$110     .dwtag  DW_TAG_array_type
    7211                            .dwattr $C$DW$T$110, DW_AT_type(*$C$DW$T$41)
    7212                            .dwattr $C$DW$T$110, DW_AT_language(DW_LANG_C)
    7213                            .dwattr $C$DW$T$110, DW_AT_byte_size(0x4e)
    7214                    $C$DW$311       .dwtag  DW_TAG_subrange_type
    7215                            .dwattr $C$DW$311, DW_AT_upper_bound(0x4d)
    7216                            .dwendtag $C$DW$T$110
    7217                    
    7218                    
    7219                    $C$DW$T$118     .dwtag  DW_TAG_array_type
    7220                            .dwattr $C$DW$T$118, DW_AT_type(*$C$DW$T$6)
    7221                            .dwattr $C$DW$T$118, DW_AT_language(DW_LANG_C)
    7222                            .dwattr $C$DW$T$118, DW_AT_byte_size(0x400)
    7223                    $C$DW$312       .dwtag  DW_TAG_subrange_type
    7224                            .dwattr $C$DW$312, DW_AT_upper_bound(0x3ff)
    7225                            .dwendtag $C$DW$T$118
    7226                    
    7227                    
    7228                    $C$DW$T$120     .dwtag  DW_TAG_array_type
    7229                            .dwattr $C$DW$T$120, DW_AT_type(*$C$DW$T$6)
    7230                            .dwattr $C$DW$T$120, DW_AT_language(DW_LANG_C)
    7231                            .dwattr $C$DW$T$120, DW_AT_byte_size(0x20)
    7232                    $C$DW$313       .dwtag  DW_TAG_subrange_type
    7233                            .dwattr $C$DW$313, DW_AT_upper_bound(0x1f)
    7234                            .dwendtag $C$DW$T$120
    7235                    
    7236                    
    7237                    $C$DW$T$121     .dwtag  DW_TAG_array_type
    7238                            .dwattr $C$DW$T$121, DW_AT_type(*$C$DW$T$6)
    7239                            .dwattr $C$DW$T$121, DW_AT_language(DW_LANG_C)
    7240                            .dwattr $C$DW$T$121, DW_AT_byte_size(0x10)
    7241                    $C$DW$314       .dwtag  DW_TAG_subrange_type
    7242                            .dwattr $C$DW$314, DW_AT_upper_bound(0x0f)
    7243                            .dwendtag $C$DW$T$121
    7244                    
    7245                    
    7246                    $C$DW$T$159     .dwtag  DW_TAG_array_type
TI ARM Assembler PC v5.2.4 Sat Feb 06 22:51:21 2016

Tools Copyright (c) 1996-2015 Texas Instruments Incorporated
esp8266.asm                                                          PAGE  145

    7247                            .dwattr $C$DW$T$159, DW_AT_type(*$C$DW$T$6)
    7248                            .dwattr $C$DW$T$159, DW_AT_language(DW_LANG_C)
    7249                            .dwattr $C$DW$T$159, DW_AT_byte_size(0x4e)
    7250                    $C$DW$315       .dwtag  DW_TAG_subrange_type
    7251                            .dwattr $C$DW$315, DW_AT_upper_bound(0x4d)
    7252                            .dwendtag $C$DW$T$159
    7253                    
    7254                    $C$DW$T$162     .dwtag  DW_TAG_base_type
    7255                            .dwattr $C$DW$T$162, DW_AT_encoding(DW_ATE_unsigned_char)
    7256                            .dwattr $C$DW$T$162, DW_AT_name("unsigned char")
    7257                            .dwattr $C$DW$T$162, DW_AT_byte_size(0x01)
    7258                    $C$DW$T$163     .dwtag  DW_TAG_volatile_type
    7259                            .dwattr $C$DW$T$163, DW_AT_type(*$C$DW$T$162)
    7260                    
    7261                    $C$DW$T$24      .dwtag  DW_TAG_structure_type
    7262                            .dwattr $C$DW$T$24, DW_AT_name("__va_list")
    7263                            .dwattr $C$DW$T$24, DW_AT_byte_size(0x04)
    7264                    $C$DW$316       .dwtag  DW_TAG_member
    7265                            .dwattr $C$DW$316, DW_AT_type(*$C$DW$T$3)
    7266                            .dwattr $C$DW$316, DW_AT_name("__ap")
    7267                            .dwattr $C$DW$316, DW_AT_TI_symbol_name("__ap")
    7268                            .dwattr $C$DW$316, DW_AT_data_member_location[DW_OP_plus_uconst 0x0]
    7269                            .dwattr $C$DW$316, DW_AT_accessibility(DW_ACCESS_public)
    7270                            .dwattr $C$DW$316, DW_AT_decl_file("C:/ti/ccsv6/tools/compiler/ti-cgt-arm_5.2.4/include/stdarg
    7271                            .dwattr $C$DW$316, DW_AT_decl_line(0x36)
    7272                            .dwattr $C$DW$316, DW_AT_decl_column(0x0c)
    7273                            .dwendtag $C$DW$T$24
    7274                    
    7275                            .dwattr $C$DW$T$24, DW_AT_decl_file("C:/ti/ccsv6/tools/compiler/ti-cgt-arm_5.2.4/include/stdar
    7276                            .dwattr $C$DW$T$24, DW_AT_decl_line(0x35)
    7277                            .dwattr $C$DW$T$24, DW_AT_decl_column(0x10)
    7278                    $C$DW$T$164     .dwtag  DW_TAG_typedef, DW_AT_name("va_list")
    7279                            .dwattr $C$DW$T$164, DW_AT_type(*$C$DW$T$24)
    7280                            .dwattr $C$DW$T$164, DW_AT_language(DW_LANG_C)
    7281                            .dwattr $C$DW$T$164, DW_AT_decl_file("C:/ti/ccsv6/tools/compiler/ti-cgt-arm_5.2.4/include/stda
    7282                            .dwattr $C$DW$T$164, DW_AT_decl_line(0x37)
    7283                            .dwattr $C$DW$T$164, DW_AT_decl_column(0x03)
    7284                    $C$DW$T$165     .dwtag  DW_TAG_typedef, DW_AT_name("_Va_list")
    7285                            .dwattr $C$DW$T$165, DW_AT_type(*$C$DW$T$164)
    7286                            .dwattr $C$DW$T$165, DW_AT_language(DW_LANG_C)
    7287                            .dwattr $C$DW$T$165, DW_AT_decl_file("C:/ti/ccsv6/tools/compiler/ti-cgt-arm_5.2.4/include/yval
    7288                            .dwattr $C$DW$T$165, DW_AT_decl_line(0x1f6)
    7289                            .dwattr $C$DW$T$165, DW_AT_decl_column(0x17)
    7290                            .dwattr $C$DW$CU, DW_AT_language(DW_LANG_C)
    7291                    
    7292                    ;***************************************************************
    7293                    ;* DWARF CIE ENTRIES                                           *
    7294                    ;***************************************************************
    7295                    
    7296                    $C$DW$CIE       .dwcie 14
    7297                            .dwcfi  cfa_register, 13
    7298                            .dwcfi  cfa_offset, 0
    7299                            .dwcfi  undefined, 0
    7300                            .dwcfi  undefined, 1
    7301                            .dwcfi  undefined, 2
TI ARM Assembler PC v5.2.4 Sat Feb 06 22:51:21 2016

Tools Copyright (c) 1996-2015 Texas Instruments Incorporated
esp8266.asm                                                          PAGE  146

    7302                            .dwcfi  undefined, 3
    7303                            .dwcfi  same_value, 4
    7304                            .dwcfi  same_value, 5
    7305                            .dwcfi  same_value, 6
    7306                            .dwcfi  same_value, 7
    7307                            .dwcfi  same_value, 8
    7308                            .dwcfi  same_value, 9
    7309                            .dwcfi  same_value, 10
    7310                            .dwcfi  same_value, 11
    7311                            .dwcfi  undefined, 12
    7312                            .dwcfi  undefined, 13
    7313                            .dwcfi  undefined, 14
    7314                            .dwcfi  undefined, 14
    7315                            .dwcfi  undefined, 7
    7316                            .dwcfi  undefined, 64
    7317                            .dwcfi  undefined, 65
    7318                            .dwcfi  undefined, 66
    7319                            .dwcfi  undefined, 67
    7320                            .dwcfi  undefined, 68
    7321                            .dwcfi  undefined, 69
    7322                            .dwcfi  undefined, 70
    7323                            .dwcfi  undefined, 71
    7324                            .dwcfi  undefined, 72
    7325                            .dwcfi  undefined, 73
    7326                            .dwcfi  undefined, 74
    7327                            .dwcfi  undefined, 75
    7328                            .dwcfi  undefined, 76
    7329                            .dwcfi  undefined, 77
    7330                            .dwcfi  undefined, 78
    7331                            .dwcfi  undefined, 79
    7332                            .dwcfi  same_value, 80
    7333                            .dwcfi  same_value, 81
    7334                            .dwcfi  same_value, 82
    7335                            .dwcfi  same_value, 83
    7336                            .dwcfi  same_value, 84
    7337                            .dwcfi  same_value, 85
    7338                            .dwcfi  same_value, 86
    7339                            .dwcfi  same_value, 87
    7340                            .dwcfi  same_value, 88
    7341                            .dwcfi  same_value, 89
    7342                            .dwcfi  same_value, 90
    7343                            .dwcfi  same_value, 91
    7344                            .dwcfi  same_value, 92
    7345                            .dwcfi  same_value, 93
    7346                            .dwcfi  same_value, 94
    7347                            .dwcfi  same_value, 95
    7348                            .dwendentry
    7349                            .dwendtag $C$DW$CU
    7350                    

--------------------------
Thumb2 Statistics
--------------------------
Number of Thumb2 ins converted to Thumb = 0 (0%)
Number of Thumb ins in input = 901 (83%)
Number of Thumb2 ins encoded as Thumb2 = 180 (100%)
Number of Thumb2 ins converted to 2 OPND Thumb = 16


No Assembly Errors, No Assembly Warnings
