;******************************************************************************
;* TI ARM C/C++ Codegen                                             PC v5.2.4 *
;* Date/Time created: Sat Feb 06 22:51:21 2016                                *
;******************************************************************************
	.compiler_opts --abi=eabi --arm_vmrs_si_workaround=off --code_state=16 --diag_wrap=off --disable_dual_state --embedded_constants=on --endian=little --float_support=FPv4SPD16 --hll_source=on --object_format=elf --silicon_version=7M4 --symdebug:dwarf --symdebug:dwarf_version=3 --unaligned_access=on 
	.thumb

$C$DW$CU	.dwtag  DW_TAG_compile_unit
	.dwattr $C$DW$CU, DW_AT_name("../esp8266.c")
	.dwattr $C$DW$CU, DW_AT_producer("TI TI ARM C/C++ Codegen PC v5.2.4 Copyright (c) 1996-2015 Texas Instruments Incorporated")
	.dwattr $C$DW$CU, DW_AT_TI_version(0x01)
	.dwattr $C$DW$CU, DW_AT_comp_dir("C:\Dropbox\ArmBook\LaunchPad\ValvanoWareTM4C123\ESP8266_4C123\Debug")

$C$DW$1	.dwtag  DW_TAG_subprogram, DW_AT_name("__builtin_strlen")
	.dwattr $C$DW$1, DW_AT_TI_symbol_name("__builtin_strlen")
	.dwattr $C$DW$1, DW_AT_type(*$C$DW$T$11)
	.dwattr $C$DW$1, DW_AT_declaration
	.dwattr $C$DW$1, DW_AT_external
$C$DW$2	.dwtag  DW_TAG_formal_parameter
	.dwattr $C$DW$2, DW_AT_type(*$C$DW$T$42)
	.dwendtag $C$DW$1


$C$DW$3	.dwtag  DW_TAG_subprogram, DW_AT_name("printf")
	.dwattr $C$DW$3, DW_AT_TI_symbol_name("printf")
	.dwattr $C$DW$3, DW_AT_type(*$C$DW$T$10)
	.dwattr $C$DW$3, DW_AT_declaration
	.dwattr $C$DW$3, DW_AT_external
	.dwattr $C$DW$3, DW_AT_decl_file("C:/ti/ccsv6/tools/compiler/ti-cgt-arm_5.2.4/include/stdio.h")
	.dwattr $C$DW$3, DW_AT_decl_line(0xf5)
	.dwattr $C$DW$3, DW_AT_decl_column(0x19)
$C$DW$4	.dwtag  DW_TAG_formal_parameter
	.dwattr $C$DW$4, DW_AT_type(*$C$DW$T$42)
$C$DW$5	.dwtag  DW_TAG_unspecified_parameters
	.dwendtag $C$DW$3


$C$DW$6	.dwtag  DW_TAG_subprogram, DW_AT_name("sprintf")
	.dwattr $C$DW$6, DW_AT_TI_symbol_name("sprintf")
	.dwattr $C$DW$6, DW_AT_type(*$C$DW$T$10)
	.dwattr $C$DW$6, DW_AT_declaration
	.dwattr $C$DW$6, DW_AT_external
	.dwattr $C$DW$6, DW_AT_decl_file("C:/ti/ccsv6/tools/compiler/ti-cgt-arm_5.2.4/include/stdio.h")
	.dwattr $C$DW$6, DW_AT_decl_line(0xf9)
	.dwattr $C$DW$6, DW_AT_decl_column(0x19)
$C$DW$7	.dwtag  DW_TAG_formal_parameter
	.dwattr $C$DW$7, DW_AT_type(*$C$DW$T$35)
$C$DW$8	.dwtag  DW_TAG_formal_parameter
	.dwattr $C$DW$8, DW_AT_type(*$C$DW$T$42)
$C$DW$9	.dwtag  DW_TAG_unspecified_parameters
	.dwendtag $C$DW$6


$C$DW$10	.dwtag  DW_TAG_subprogram, DW_AT_name("strlen")
	.dwattr $C$DW$10, DW_AT_TI_symbol_name("strlen")
	.dwattr $C$DW$10, DW_AT_type(*$C$DW$T$85)
	.dwattr $C$DW$10, DW_AT_declaration
	.dwattr $C$DW$10, DW_AT_external
	.dwattr $C$DW$10, DW_AT_decl_file("C:/ti/ccsv6/tools/compiler/ti-cgt-arm_5.2.4/include/string.h")
	.dwattr $C$DW$10, DW_AT_decl_line(0x4f)
	.dwattr $C$DW$10, DW_AT_decl_column(0x14)
$C$DW$11	.dwtag  DW_TAG_formal_parameter
	.dwattr $C$DW$11, DW_AT_type(*$C$DW$T$42)
	.dwendtag $C$DW$10


$C$DW$12	.dwtag  DW_TAG_subprogram, DW_AT_name("strcpy")
	.dwattr $C$DW$12, DW_AT_TI_symbol_name("strcpy")
	.dwattr $C$DW$12, DW_AT_type(*$C$DW$T$35)
	.dwattr $C$DW$12, DW_AT_declaration
	.dwattr $C$DW$12, DW_AT_external
	.dwattr $C$DW$12, DW_AT_decl_file("C:/ti/ccsv6/tools/compiler/ti-cgt-arm_5.2.4/include/string.h")
	.dwattr $C$DW$12, DW_AT_decl_line(0x51)
	.dwattr $C$DW$12, DW_AT_decl_column(0x12)
$C$DW$13	.dwtag  DW_TAG_formal_parameter
	.dwattr $C$DW$13, DW_AT_type(*$C$DW$T$35)
$C$DW$14	.dwtag  DW_TAG_formal_parameter
	.dwattr $C$DW$14, DW_AT_type(*$C$DW$T$42)
	.dwendtag $C$DW$12


$C$DW$15	.dwtag  DW_TAG_subprogram, DW_AT_name("strstr")
	.dwattr $C$DW$15, DW_AT_TI_symbol_name("strstr")
	.dwattr $C$DW$15, DW_AT_type(*$C$DW$T$35)
	.dwattr $C$DW$15, DW_AT_declaration
	.dwattr $C$DW$15, DW_AT_external
	.dwattr $C$DW$15, DW_AT_decl_file("C:/ti/ccsv6/tools/compiler/ti-cgt-arm_5.2.4/include/string.h")
	.dwattr $C$DW$15, DW_AT_decl_line(0x60)
	.dwattr $C$DW$15, DW_AT_decl_column(0x16)
$C$DW$16	.dwtag  DW_TAG_formal_parameter
	.dwattr $C$DW$16, DW_AT_type(*$C$DW$T$42)
$C$DW$17	.dwtag  DW_TAG_formal_parameter
	.dwattr $C$DW$17, DW_AT_type(*$C$DW$T$42)
	.dwendtag $C$DW$15


$C$DW$18	.dwtag  DW_TAG_subprogram, DW_AT_name("UART_OutCharNonBlock")
	.dwattr $C$DW$18, DW_AT_TI_symbol_name("UART_OutCharNonBlock")
	.dwattr $C$DW$18, DW_AT_declaration
	.dwattr $C$DW$18, DW_AT_external
	.dwattr $C$DW$18, DW_AT_decl_file("..\UART.h")
	.dwattr $C$DW$18, DW_AT_decl_line(0x44)
	.dwattr $C$DW$18, DW_AT_decl_column(0x06)
$C$DW$19	.dwtag  DW_TAG_formal_parameter
	.dwattr $C$DW$19, DW_AT_type(*$C$DW$T$6)
	.dwendtag $C$DW$18


$C$DW$20	.dwtag  DW_TAG_subprogram, DW_AT_name("EnableInterrupts")
	.dwattr $C$DW$20, DW_AT_TI_symbol_name("EnableInterrupts")
	.dwattr $C$DW$20, DW_AT_declaration
	.dwattr $C$DW$20, DW_AT_external
	.dwattr $C$DW$20, DW_AT_decl_file("../esp8266.c")
	.dwattr $C$DW$20, DW_AT_decl_line(0x44)
	.dwattr $C$DW$20, DW_AT_decl_column(0x06)
	.global	RXBufferIndex
	.data
	.align	4
	.elfsym	RXBufferIndex,SYM_SIZE(4)
RXBufferIndex:
	.bits	0,32			; RXBufferIndex @ 0

$C$DW$21	.dwtag  DW_TAG_variable, DW_AT_name("RXBufferIndex")
	.dwattr $C$DW$21, DW_AT_TI_symbol_name("RXBufferIndex")
	.dwattr $C$DW$21, DW_AT_location[DW_OP_addr RXBufferIndex]
	.dwattr $C$DW$21, DW_AT_type(*$C$DW$T$38)
	.dwattr $C$DW$21, DW_AT_external
	.dwattr $C$DW$21, DW_AT_decl_file("../esp8266.c")
	.dwattr $C$DW$21, DW_AT_decl_line(0x5b)
	.dwattr $C$DW$21, DW_AT_decl_column(0x0a)
	.global	LastReturnIndex
	.data
	.align	4
	.elfsym	LastReturnIndex,SYM_SIZE(4)
LastReturnIndex:
	.bits	0,32			; LastReturnIndex @ 0

$C$DW$22	.dwtag  DW_TAG_variable, DW_AT_name("LastReturnIndex")
	.dwattr $C$DW$22, DW_AT_TI_symbol_name("LastReturnIndex")
	.dwattr $C$DW$22, DW_AT_location[DW_OP_addr LastReturnIndex]
	.dwattr $C$DW$22, DW_AT_type(*$C$DW$T$38)
	.dwattr $C$DW$22, DW_AT_external
	.dwattr $C$DW$22, DW_AT_decl_file("../esp8266.c")
	.dwattr $C$DW$22, DW_AT_decl_line(0x5c)
	.dwattr $C$DW$22, DW_AT_decl_column(0x0a)
	.global	CurrentReturnIndex
	.data
	.align	4
	.elfsym	CurrentReturnIndex,SYM_SIZE(4)
CurrentReturnIndex:
	.bits	0,32			; CurrentReturnIndex @ 0

$C$DW$23	.dwtag  DW_TAG_variable, DW_AT_name("CurrentReturnIndex")
	.dwattr $C$DW$23, DW_AT_TI_symbol_name("CurrentReturnIndex")
	.dwattr $C$DW$23, DW_AT_location[DW_OP_addr CurrentReturnIndex]
	.dwattr $C$DW$23, DW_AT_type(*$C$DW$T$38)
	.dwattr $C$DW$23, DW_AT_external
	.dwattr $C$DW$23, DW_AT_decl_file("../esp8266.c")
	.dwattr $C$DW$23, DW_AT_decl_line(0x5d)
	.dwattr $C$DW$23, DW_AT_decl_column(0x0a)
	.global	RXBuffer
RXBuffer:	.usect	".bss:RXBuffer",1024,1
$C$DW$24	.dwtag  DW_TAG_variable, DW_AT_name("RXBuffer")
	.dwattr $C$DW$24, DW_AT_TI_symbol_name("RXBuffer")
	.dwattr $C$DW$24, DW_AT_location[DW_OP_addr RXBuffer]
	.dwattr $C$DW$24, DW_AT_type(*$C$DW$T$118)
	.dwattr $C$DW$24, DW_AT_external
	.dwattr $C$DW$24, DW_AT_decl_file("../esp8266.c")
	.dwattr $C$DW$24, DW_AT_decl_line(0x5e)
	.dwattr $C$DW$24, DW_AT_decl_column(0x06)
	.global	TXBuffer
TXBuffer:	.usect	".bss:TXBuffer",1024,1
$C$DW$25	.dwtag  DW_TAG_variable, DW_AT_name("TXBuffer")
	.dwattr $C$DW$25, DW_AT_TI_symbol_name("TXBuffer")
	.dwattr $C$DW$25, DW_AT_location[DW_OP_addr TXBuffer]
	.dwattr $C$DW$25, DW_AT_type(*$C$DW$T$118)
	.dwattr $C$DW$25, DW_AT_external
	.dwattr $C$DW$25, DW_AT_decl_file("../esp8266.c")
	.dwattr $C$DW$25, DW_AT_decl_line(0x5f)
	.dwattr $C$DW$25, DW_AT_decl_column(0x06)
	.global	ServerResponseBuffer
ServerResponseBuffer:	.usect	".bss:ServerResponseBuffer",1024,1
$C$DW$26	.dwtag  DW_TAG_variable, DW_AT_name("ServerResponseBuffer")
	.dwattr $C$DW$26, DW_AT_TI_symbol_name("ServerResponseBuffer")
	.dwattr $C$DW$26, DW_AT_location[DW_OP_addr ServerResponseBuffer]
	.dwattr $C$DW$26, DW_AT_type(*$C$DW$T$118)
	.dwattr $C$DW$26, DW_AT_external
	.dwattr $C$DW$26, DW_AT_decl_file("../esp8266.c")
	.dwattr $C$DW$26, DW_AT_decl_line(0x61)
	.dwattr $C$DW$26, DW_AT_decl_column(0x06)
	.global	ServerResponseIndex
	.data
	.align	4
	.elfsym	ServerResponseIndex,SYM_SIZE(4)
ServerResponseIndex:
	.bits	0,32			; ServerResponseIndex @ 0

$C$DW$27	.dwtag  DW_TAG_variable, DW_AT_name("ServerResponseIndex")
	.dwattr $C$DW$27, DW_AT_TI_symbol_name("ServerResponseIndex")
	.dwattr $C$DW$27, DW_AT_location[DW_OP_addr ServerResponseIndex]
	.dwattr $C$DW$27, DW_AT_type(*$C$DW$T$38)
	.dwattr $C$DW$27, DW_AT_external
	.dwattr $C$DW$27, DW_AT_decl_file("../esp8266.c")
	.dwattr $C$DW$27, DW_AT_decl_line(0x62)
	.dwattr $C$DW$27, DW_AT_decl_column(0x0a)
	.global	ESP8266_ProcessBuffer
	.data
	.align	1
	.elfsym	ESP8266_ProcessBuffer,SYM_SIZE(1)
ESP8266_ProcessBuffer:
	.bits	0,8			; ESP8266_ProcessBuffer @ 0

$C$DW$28	.dwtag  DW_TAG_variable, DW_AT_name("ESP8266_ProcessBuffer")
	.dwattr $C$DW$28, DW_AT_TI_symbol_name("ESP8266_ProcessBuffer")
	.dwattr $C$DW$28, DW_AT_location[DW_OP_addr ESP8266_ProcessBuffer]
	.dwattr $C$DW$28, DW_AT_type(*$C$DW$T$163)
	.dwattr $C$DW$28, DW_AT_external
	.dwattr $C$DW$28, DW_AT_decl_file("../esp8266.c")
	.dwattr $C$DW$28, DW_AT_decl_line(0x64)
	.dwattr $C$DW$28, DW_AT_decl_column(0x0f)
	.global	ESP8266_EchoResponse
	.data
	.align	1
	.elfsym	ESP8266_EchoResponse,SYM_SIZE(1)
ESP8266_EchoResponse:
	.bits	0,8			; ESP8266_EchoResponse @ 0

$C$DW$29	.dwtag  DW_TAG_variable, DW_AT_name("ESP8266_EchoResponse")
	.dwattr $C$DW$29, DW_AT_TI_symbol_name("ESP8266_EchoResponse")
	.dwattr $C$DW$29, DW_AT_location[DW_OP_addr ESP8266_EchoResponse]
	.dwattr $C$DW$29, DW_AT_type(*$C$DW$T$163)
	.dwattr $C$DW$29, DW_AT_external
	.dwattr $C$DW$29, DW_AT_decl_file("../esp8266.c")
	.dwattr $C$DW$29, DW_AT_decl_line(0x65)
	.dwattr $C$DW$29, DW_AT_decl_column(0x0f)
	.global	ESP8266_ResponseComplete
	.data
	.align	1
	.elfsym	ESP8266_ResponseComplete,SYM_SIZE(1)
ESP8266_ResponseComplete:
	.bits	0,8			; ESP8266_ResponseComplete @ 0

$C$DW$30	.dwtag  DW_TAG_variable, DW_AT_name("ESP8266_ResponseComplete")
	.dwattr $C$DW$30, DW_AT_TI_symbol_name("ESP8266_ResponseComplete")
	.dwattr $C$DW$30, DW_AT_location[DW_OP_addr ESP8266_ResponseComplete]
	.dwattr $C$DW$30, DW_AT_type(*$C$DW$T$163)
	.dwattr $C$DW$30, DW_AT_external
	.dwattr $C$DW$30, DW_AT_decl_file("../esp8266.c")
	.dwattr $C$DW$30, DW_AT_decl_line(0x66)
	.dwattr $C$DW$30, DW_AT_decl_column(0x0f)
	.global	ESP8266_APEnabled
	.data
	.align	1
	.elfsym	ESP8266_APEnabled,SYM_SIZE(1)
ESP8266_APEnabled:
	.bits	0,8			; ESP8266_APEnabled @ 0

$C$DW$31	.dwtag  DW_TAG_variable, DW_AT_name("ESP8266_APEnabled")
	.dwattr $C$DW$31, DW_AT_TI_symbol_name("ESP8266_APEnabled")
	.dwattr $C$DW$31, DW_AT_location[DW_OP_addr ESP8266_APEnabled]
	.dwattr $C$DW$31, DW_AT_type(*$C$DW$T$163)
	.dwattr $C$DW$31, DW_AT_external
	.dwattr $C$DW$31, DW_AT_decl_file("../esp8266.c")
	.dwattr $C$DW$31, DW_AT_decl_line(0x67)
	.dwattr $C$DW$31, DW_AT_decl_column(0x0f)
	.global	ESP8266_ClientEnabled
	.data
	.align	1
	.elfsym	ESP8266_ClientEnabled,SYM_SIZE(1)
ESP8266_ClientEnabled:
	.bits	0,8			; ESP8266_ClientEnabled @ 0

$C$DW$32	.dwtag  DW_TAG_variable, DW_AT_name("ESP8266_ClientEnabled")
	.dwattr $C$DW$32, DW_AT_TI_symbol_name("ESP8266_ClientEnabled")
	.dwattr $C$DW$32, DW_AT_location[DW_OP_addr ESP8266_ClientEnabled]
	.dwattr $C$DW$32, DW_AT_type(*$C$DW$T$163)
	.dwattr $C$DW$32, DW_AT_external
	.dwattr $C$DW$32, DW_AT_decl_file("../esp8266.c")
	.dwattr $C$DW$32, DW_AT_decl_line(0x68)
	.dwattr $C$DW$32, DW_AT_decl_column(0x0f)
	.global	ESP8266_ServerEnabled
	.data
	.align	1
	.elfsym	ESP8266_ServerEnabled,SYM_SIZE(1)
ESP8266_ServerEnabled:
	.bits	0,8			; ESP8266_ServerEnabled @ 0

$C$DW$33	.dwtag  DW_TAG_variable, DW_AT_name("ESP8266_ServerEnabled")
	.dwattr $C$DW$33, DW_AT_TI_symbol_name("ESP8266_ServerEnabled")
	.dwattr $C$DW$33, DW_AT_location[DW_OP_addr ESP8266_ServerEnabled]
	.dwattr $C$DW$33, DW_AT_type(*$C$DW$T$163)
	.dwattr $C$DW$33, DW_AT_external
	.dwattr $C$DW$33, DW_AT_decl_file("../esp8266.c")
	.dwattr $C$DW$33, DW_AT_decl_line(0x69)
	.dwattr $C$DW$33, DW_AT_decl_column(0x0f)
	.global	ESP8266_InputProcessingEnabled
	.data
	.align	1
	.elfsym	ESP8266_InputProcessingEnabled,SYM_SIZE(1)
ESP8266_InputProcessingEnabled:
	.bits	0,8			; ESP8266_InputProcessingEnabled @ 0

$C$DW$34	.dwtag  DW_TAG_variable, DW_AT_name("ESP8266_InputProcessingEnabled")
	.dwattr $C$DW$34, DW_AT_TI_symbol_name("ESP8266_InputProcessingEnabled")
	.dwattr $C$DW$34, DW_AT_location[DW_OP_addr ESP8266_InputProcessingEnabled]
	.dwattr $C$DW$34, DW_AT_type(*$C$DW$T$163)
	.dwattr $C$DW$34, DW_AT_external
	.dwattr $C$DW$34, DW_AT_decl_file("../esp8266.c")
	.dwattr $C$DW$34, DW_AT_decl_line(0x6a)
	.dwattr $C$DW$34, DW_AT_decl_column(0x0f)
	.global	ESP8266_PageRequested
	.data
	.align	1
	.elfsym	ESP8266_PageRequested,SYM_SIZE(1)
ESP8266_PageRequested:
	.bits	0,8			; ESP8266_PageRequested @ 0

$C$DW$35	.dwtag  DW_TAG_variable, DW_AT_name("ESP8266_PageRequested")
	.dwattr $C$DW$35, DW_AT_TI_symbol_name("ESP8266_PageRequested")
	.dwattr $C$DW$35, DW_AT_location[DW_OP_addr ESP8266_PageRequested]
	.dwattr $C$DW$35, DW_AT_type(*$C$DW$T$163)
	.dwattr $C$DW$35, DW_AT_external
	.dwattr $C$DW$35, DW_AT_decl_file("../esp8266.c")
	.dwattr $C$DW$35, DW_AT_decl_line(0x6b)
	.dwattr $C$DW$35, DW_AT_decl_column(0x0f)
	.global	SearchString
	.common	SearchString,32,1
$C$DW$36	.dwtag  DW_TAG_variable, DW_AT_name("SearchString")
	.dwattr $C$DW$36, DW_AT_TI_symbol_name("SearchString")
	.dwattr $C$DW$36, DW_AT_location[DW_OP_addr SearchString]
	.dwattr $C$DW$36, DW_AT_type(*$C$DW$T$120)
	.dwattr $C$DW$36, DW_AT_external
	.dwattr $C$DW$36, DW_AT_decl_file("../esp8266.c")
	.dwattr $C$DW$36, DW_AT_decl_line(0x72)
	.dwattr $C$DW$36, DW_AT_decl_column(0x06)
	.global	SearchLooking
	.data
	.align	1
	.elfsym	SearchLooking,SYM_SIZE(1)
SearchLooking:
	.bits	0,8			; SearchLooking @ 0

$C$DW$37	.dwtag  DW_TAG_variable, DW_AT_name("SearchLooking")
	.dwattr $C$DW$37, DW_AT_TI_symbol_name("SearchLooking")
	.dwattr $C$DW$37, DW_AT_location[DW_OP_addr SearchLooking]
	.dwattr $C$DW$37, DW_AT_type(*$C$DW$T$163)
	.dwattr $C$DW$37, DW_AT_external
	.dwattr $C$DW$37, DW_AT_decl_file("../esp8266.c")
	.dwattr $C$DW$37, DW_AT_decl_line(0x73)
	.dwattr $C$DW$37, DW_AT_decl_column(0x0f)
	.global	SearchFound
	.data
	.align	1
	.elfsym	SearchFound,SYM_SIZE(1)
SearchFound:
	.bits	0,8			; SearchFound @ 0

$C$DW$38	.dwtag  DW_TAG_variable, DW_AT_name("SearchFound")
	.dwattr $C$DW$38, DW_AT_TI_symbol_name("SearchFound")
	.dwattr $C$DW$38, DW_AT_location[DW_OP_addr SearchFound]
	.dwattr $C$DW$38, DW_AT_type(*$C$DW$T$163)
	.dwattr $C$DW$38, DW_AT_external
	.dwattr $C$DW$38, DW_AT_decl_file("../esp8266.c")
	.dwattr $C$DW$38, DW_AT_decl_line(0x74)
	.dwattr $C$DW$38, DW_AT_decl_column(0x0f)
	.global	SearchIndex
	.data
	.align	4
	.elfsym	SearchIndex,SYM_SIZE(4)
SearchIndex:
	.bits	0,32			; SearchIndex @ 0

$C$DW$39	.dwtag  DW_TAG_variable, DW_AT_name("SearchIndex")
	.dwattr $C$DW$39, DW_AT_TI_symbol_name("SearchIndex")
	.dwattr $C$DW$39, DW_AT_location[DW_OP_addr SearchIndex]
	.dwattr $C$DW$39, DW_AT_type(*$C$DW$T$88)
	.dwattr $C$DW$39, DW_AT_external
	.dwattr $C$DW$39, DW_AT_decl_file("../esp8266.c")
	.dwattr $C$DW$39, DW_AT_decl_line(0x75)
	.dwattr $C$DW$39, DW_AT_decl_column(0x13)
	.global	ServerResponseSearchString
	.data
	.align	1
	.elfsym	ServerResponseSearchString,SYM_SIZE(16)
ServerResponseSearchString:
	.bits	43,8			; ServerResponseSearchString[0] @ 0
	.bits	105,8			; ServerResponseSearchString[1] @ 8
	.bits	112,8			; ServerResponseSearchString[2] @ 16
	.bits	100,8			; ServerResponseSearchString[3] @ 24
	.bits	44,8			; ServerResponseSearchString[4] @ 32
	.bits	0,8			; ServerResponseSearchString[5] @ 40
	.space	10

$C$DW$40	.dwtag  DW_TAG_variable, DW_AT_name("ServerResponseSearchString")
	.dwattr $C$DW$40, DW_AT_TI_symbol_name("ServerResponseSearchString")
	.dwattr $C$DW$40, DW_AT_location[DW_OP_addr ServerResponseSearchString]
	.dwattr $C$DW$40, DW_AT_type(*$C$DW$T$121)
	.dwattr $C$DW$40, DW_AT_external
	.dwattr $C$DW$40, DW_AT_decl_file("../esp8266.c")
	.dwattr $C$DW$40, DW_AT_decl_line(0x96)
	.dwattr $C$DW$40, DW_AT_decl_column(0x06)
	.global	ServerResponseSearchFinished
	.data
	.align	4
	.elfsym	ServerResponseSearchFinished,SYM_SIZE(4)
ServerResponseSearchFinished:
	.bits	0,32			; ServerResponseSearchFinished @ 0

$C$DW$41	.dwtag  DW_TAG_variable, DW_AT_name("ServerResponseSearchFinished")
	.dwattr $C$DW$41, DW_AT_TI_symbol_name("ServerResponseSearchFinished")
	.dwattr $C$DW$41, DW_AT_location[DW_OP_addr ServerResponseSearchFinished]
	.dwattr $C$DW$41, DW_AT_type(*$C$DW$T$88)
	.dwattr $C$DW$41, DW_AT_external
	.dwattr $C$DW$41, DW_AT_decl_file("../esp8266.c")
	.dwattr $C$DW$41, DW_AT_decl_line(0x97)
	.dwattr $C$DW$41, DW_AT_decl_column(0x13)
	.global	ServerResponseSearchIndex
	.data
	.align	4
	.elfsym	ServerResponseSearchIndex,SYM_SIZE(4)
ServerResponseSearchIndex:
	.bits	0,32			; ServerResponseSearchIndex @ 0

$C$DW$42	.dwtag  DW_TAG_variable, DW_AT_name("ServerResponseSearchIndex")
	.dwattr $C$DW$42, DW_AT_TI_symbol_name("ServerResponseSearchIndex")
	.dwattr $C$DW$42, DW_AT_location[DW_OP_addr ServerResponseSearchIndex]
	.dwattr $C$DW$42, DW_AT_type(*$C$DW$T$88)
	.dwattr $C$DW$42, DW_AT_external
	.dwattr $C$DW$42, DW_AT_decl_file("../esp8266.c")
	.dwattr $C$DW$42, DW_AT_decl_line(0x98)
	.dwattr $C$DW$42, DW_AT_decl_column(0x13)
	.global	ServerResponseSearchLooking
	.data
	.align	4
	.elfsym	ServerResponseSearchLooking,SYM_SIZE(4)
ServerResponseSearchLooking:
	.bits	0,32			; ServerResponseSearchLooking @ 0

$C$DW$43	.dwtag  DW_TAG_variable, DW_AT_name("ServerResponseSearchLooking")
	.dwattr $C$DW$43, DW_AT_TI_symbol_name("ServerResponseSearchLooking")
	.dwattr $C$DW$43, DW_AT_location[DW_OP_addr ServerResponseSearchLooking]
	.dwattr $C$DW$43, DW_AT_type(*$C$DW$T$88)
	.dwattr $C$DW$43, DW_AT_external
	.dwattr $C$DW$43, DW_AT_decl_file("../esp8266.c")
	.dwattr $C$DW$43, DW_AT_decl_line(0x99)
	.dwattr $C$DW$43, DW_AT_decl_column(0x13)
	.global	ESP8266_ServerPort
	.data
	.align	2
	.elfsym	ESP8266_ServerPort,SYM_SIZE(2)
ESP8266_ServerPort:
	.bits	80,16			; ESP8266_ServerPort @ 0

$C$DW$44	.dwtag  DW_TAG_variable, DW_AT_name("ESP8266_ServerPort")
	.dwattr $C$DW$44, DW_AT_TI_symbol_name("ESP8266_ServerPort")
	.dwattr $C$DW$44, DW_AT_location[DW_OP_addr ESP8266_ServerPort]
	.dwattr $C$DW$44, DW_AT_type(*$C$DW$T$47)
	.dwattr $C$DW$44, DW_AT_external
	.dwattr $C$DW$44, DW_AT_decl_file("../esp8266.c")
	.dwattr $C$DW$44, DW_AT_decl_line(0x292)
	.dwattr $C$DW$44, DW_AT_decl_column(0x0a)
	.global	ESP8266_ServerTimeout
	.data
	.align	2
	.elfsym	ESP8266_ServerTimeout,SYM_SIZE(2)
ESP8266_ServerTimeout:
	.bits	28800,16			; ESP8266_ServerTimeout @ 0

$C$DW$45	.dwtag  DW_TAG_variable, DW_AT_name("ESP8266_ServerTimeout")
	.dwattr $C$DW$45, DW_AT_TI_symbol_name("ESP8266_ServerTimeout")
	.dwattr $C$DW$45, DW_AT_location[DW_OP_addr ESP8266_ServerTimeout]
	.dwattr $C$DW$45, DW_AT_type(*$C$DW$T$47)
	.dwattr $C$DW$45, DW_AT_external
	.dwattr $C$DW$45, DW_AT_decl_file("../esp8266.c")
	.dwattr $C$DW$45, DW_AT_decl_line(0x293)
	.dwattr $C$DW$45, DW_AT_decl_column(0x0a)
	.global	formBody
	.sect	".const:.string:formBody"
	.clink
	.align	1
	.elfsym	formBody,SYM_SIZE(240)
formBody:
	.bits	60,8			; formBody[0] @ 0
	.bits	33,8			; formBody[1] @ 8
	.bits	68,8			; formBody[2] @ 16
	.bits	79,8			; formBody[3] @ 24
	.bits	67,8			; formBody[4] @ 32
	.bits	84,8			; formBody[5] @ 40
	.bits	89,8			; formBody[6] @ 48
	.bits	80,8			; formBody[7] @ 56
	.bits	69,8			; formBody[8] @ 64
	.bits	32,8			; formBody[9] @ 72
	.bits	104,8			; formBody[10] @ 80
	.bits	116,8			; formBody[11] @ 88
	.bits	109,8			; formBody[12] @ 96
	.bits	108,8			; formBody[13] @ 104
	.bits	62,8			; formBody[14] @ 112
	.bits	60,8			; formBody[15] @ 120
	.bits	104,8			; formBody[16] @ 128
	.bits	116,8			; formBody[17] @ 136
	.bits	109,8			; formBody[18] @ 144
	.bits	108,8			; formBody[19] @ 152
	.bits	62,8			; formBody[20] @ 160
	.bits	60,8			; formBody[21] @ 168
	.bits	98,8			; formBody[22] @ 176
	.bits	111,8			; formBody[23] @ 184
	.bits	100,8			; formBody[24] @ 192
	.bits	121,8			; formBody[25] @ 200
	.bits	62,8			; formBody[26] @ 208
	.bits	60,8			; formBody[27] @ 216
	.bits	99,8			; formBody[28] @ 224
	.bits	101,8			; formBody[29] @ 232
	.bits	110,8			; formBody[30] @ 240
	.bits	116,8			; formBody[31] @ 248
	.bits	101,8			; formBody[32] @ 256
	.bits	114,8			; formBody[33] @ 264
	.bits	62,8			; formBody[34] @ 272
	.bits	32,8			; formBody[35] @ 280
	.bits	32,8			; formBody[36] @ 288
	.bits	32,8			; formBody[37] @ 296
	.bits	60,8			; formBody[38] @ 304
	.bits	104,8			; formBody[39] @ 312
	.bits	49,8			; formBody[40] @ 320
	.bits	62,8			; formBody[41] @ 328
	.bits	69,8			; formBody[42] @ 336
	.bits	110,8			; formBody[43] @ 344
	.bits	116,8			; formBody[44] @ 352
	.bits	101,8			; formBody[45] @ 360
	.bits	114,8			; formBody[46] @ 368
	.bits	32,8			; formBody[47] @ 376
	.bits	97,8			; formBody[48] @ 384
	.bits	32,8			; formBody[49] @ 392
	.bits	109,8			; formBody[50] @ 400
	.bits	101,8			; formBody[51] @ 408
	.bits	115,8			; formBody[52] @ 416
	.bits	115,8			; formBody[53] @ 424
	.bits	97,8			; formBody[54] @ 432
	.bits	103,8			; formBody[55] @ 440
	.bits	101,8			; formBody[56] @ 448
	.bits	32,8			; formBody[57] @ 456
	.bits	116,8			; formBody[58] @ 464
	.bits	111,8			; formBody[59] @ 472
	.bits	32,8			; formBody[60] @ 480
	.bits	115,8			; formBody[61] @ 488
	.bits	101,8			; formBody[62] @ 496
	.bits	110,8			; formBody[63] @ 504
	.bits	100,8			; formBody[64] @ 512
	.bits	32,8			; formBody[65] @ 520
	.bits	116,8			; formBody[66] @ 528
	.bits	111,8			; formBody[67] @ 536
	.bits	32,8			; formBody[68] @ 544
	.bits	121,8			; formBody[69] @ 552
	.bits	111,8			; formBody[70] @ 560
	.bits	117,8			; formBody[71] @ 568
	.bits	114,8			; formBody[72] @ 576
	.bits	32,8			; formBody[73] @ 584
	.bits	109,8			; formBody[74] @ 592
	.bits	105,8			; formBody[75] @ 600
	.bits	99,8			; formBody[76] @ 608
	.bits	114,8			; formBody[77] @ 616
	.bits	111,8			; formBody[78] @ 624
	.bits	99,8			; formBody[79] @ 632
	.bits	111,8			; formBody[80] @ 640
	.bits	110,8			; formBody[81] @ 648
	.bits	116,8			; formBody[82] @ 656
	.bits	114,8			; formBody[83] @ 664
	.bits	111,8			; formBody[84] @ 672
	.bits	108,8			; formBody[85] @ 680
	.bits	108,8			; formBody[86] @ 688
	.bits	101,8			; formBody[87] @ 696
	.bits	114,8			; formBody[88] @ 704
	.bits	33,8			; formBody[89] @ 712
	.bits	60,8			; formBody[90] @ 720
	.bits	47,8			; formBody[91] @ 728
	.bits	104,8			; formBody[92] @ 736
	.bits	49,8			; formBody[93] @ 744
	.bits	62,8			; formBody[94] @ 752
	.bits	32,8			; formBody[95] @ 760
	.bits	32,8			; formBody[96] @ 768
	.bits	32,8			; formBody[97] @ 776
	.bits	60,8			; formBody[98] @ 784
	.bits	102,8			; formBody[99] @ 792
	.bits	111,8			; formBody[100] @ 800
	.bits	114,8			; formBody[101] @ 808
	.bits	109,8			; formBody[102] @ 816
	.bits	62,8			; formBody[103] @ 824
	.bits	32,8			; formBody[104] @ 832
	.bits	32,8			; formBody[105] @ 840
	.bits	32,8			; formBody[106] @ 848
	.bits	60,8			; formBody[107] @ 856
	.bits	105,8			; formBody[108] @ 864
	.bits	110,8			; formBody[109] @ 872
	.bits	112,8			; formBody[110] @ 880
	.bits	117,8			; formBody[111] @ 888
	.bits	116,8			; formBody[112] @ 896
	.bits	32,8			; formBody[113] @ 904
	.bits	116,8			; formBody[114] @ 912
	.bits	121,8			; formBody[115] @ 920
	.bits	112,8			; formBody[116] @ 928
	.bits	101,8			; formBody[117] @ 936
	.bits	61,8			; formBody[118] @ 944
	.bits	34,8			; formBody[119] @ 952
	.bits	116,8			; formBody[120] @ 960
	.bits	101,8			; formBody[121] @ 968
	.bits	120,8			; formBody[122] @ 976
	.bits	116,8			; formBody[123] @ 984
	.bits	34,8			; formBody[124] @ 992
	.bits	32,8			; formBody[125] @ 1000
	.bits	110,8			; formBody[126] @ 1008
	.bits	97,8			; formBody[127] @ 1016
	.bits	109,8			; formBody[128] @ 1024
	.bits	101,8			; formBody[129] @ 1032
	.bits	61,8			; formBody[130] @ 1040
	.bits	34,8			; formBody[131] @ 1048
	.bits	109,8			; formBody[132] @ 1056
	.bits	101,8			; formBody[133] @ 1064
	.bits	115,8			; formBody[134] @ 1072
	.bits	115,8			; formBody[135] @ 1080
	.bits	97,8			; formBody[136] @ 1088
	.bits	103,8			; formBody[137] @ 1096
	.bits	101,8			; formBody[138] @ 1104
	.bits	34,8			; formBody[139] @ 1112
	.bits	32,8			; formBody[140] @ 1120
	.bits	118,8			; formBody[141] @ 1128
	.bits	97,8			; formBody[142] @ 1136
	.bits	108,8			; formBody[143] @ 1144
	.bits	117,8			; formBody[144] @ 1152
	.bits	101,8			; formBody[145] @ 1160
	.bits	61,8			; formBody[146] @ 1168
	.bits	34,8			; formBody[147] @ 1176
	.bits	72,8			; formBody[148] @ 1184
	.bits	101,8			; formBody[149] @ 1192
	.bits	108,8			; formBody[150] @ 1200
	.bits	108,8			; formBody[151] @ 1208
	.bits	111,8			; formBody[152] @ 1216
	.bits	32,8			; formBody[153] @ 1224
	.bits	69,8			; formBody[154] @ 1232
	.bits	83,8			; formBody[155] @ 1240
	.bits	80,8			; formBody[156] @ 1248
	.bits	56,8			; formBody[157] @ 1256
	.bits	50,8			; formBody[158] @ 1264
	.bits	54,8			; formBody[159] @ 1272
	.bits	54,8			; formBody[160] @ 1280
	.bits	33,8			; formBody[161] @ 1288
	.bits	34,8			; formBody[162] @ 1296
	.bits	62,8			; formBody[163] @ 1304
	.bits	32,8			; formBody[164] @ 1312
	.bits	32,8			; formBody[165] @ 1320
	.bits	32,8			; formBody[166] @ 1328
	.bits	60,8			; formBody[167] @ 1336
	.bits	98,8			; formBody[168] @ 1344
	.bits	114,8			; formBody[169] @ 1352
	.bits	62,8			; formBody[170] @ 1360
	.bits	60,8			; formBody[171] @ 1368
	.bits	105,8			; formBody[172] @ 1376
	.bits	110,8			; formBody[173] @ 1384
	.bits	112,8			; formBody[174] @ 1392
	.bits	117,8			; formBody[175] @ 1400
	.bits	116,8			; formBody[176] @ 1408
	.bits	32,8			; formBody[177] @ 1416
	.bits	116,8			; formBody[178] @ 1424
	.bits	121,8			; formBody[179] @ 1432
	.bits	112,8			; formBody[180] @ 1440
	.bits	101,8			; formBody[181] @ 1448
	.bits	61,8			; formBody[182] @ 1456
	.bits	34,8			; formBody[183] @ 1464
	.bits	115,8			; formBody[184] @ 1472
	.bits	117,8			; formBody[185] @ 1480
	.bits	98,8			; formBody[186] @ 1488
	.bits	109,8			; formBody[187] @ 1496
	.bits	105,8			; formBody[188] @ 1504
	.bits	116,8			; formBody[189] @ 1512
	.bits	34,8			; formBody[190] @ 1520
	.bits	32,8			; formBody[191] @ 1528
	.bits	118,8			; formBody[192] @ 1536
	.bits	97,8			; formBody[193] @ 1544
	.bits	108,8			; formBody[194] @ 1552
	.bits	117,8			; formBody[195] @ 1560
	.bits	101,8			; formBody[196] @ 1568
	.bits	61,8			; formBody[197] @ 1576
	.bits	34,8			; formBody[198] @ 1584
	.bits	71,8			; formBody[199] @ 1592
	.bits	111,8			; formBody[200] @ 1600
	.bits	33,8			; formBody[201] @ 1608
	.bits	34,8			; formBody[202] @ 1616
	.bits	62,8			; formBody[203] @ 1624
	.bits	32,8			; formBody[204] @ 1632
	.bits	32,8			; formBody[205] @ 1640
	.bits	32,8			; formBody[206] @ 1648
	.bits	60,8			; formBody[207] @ 1656
	.bits	47,8			; formBody[208] @ 1664
	.bits	102,8			; formBody[209] @ 1672
	.bits	111,8			; formBody[210] @ 1680
	.bits	114,8			; formBody[211] @ 1688
	.bits	109,8			; formBody[212] @ 1696
	.bits	62,8			; formBody[213] @ 1704
	.bits	60,8			; formBody[214] @ 1712
	.bits	47,8			; formBody[215] @ 1720
	.bits	99,8			; formBody[216] @ 1728
	.bits	101,8			; formBody[217] @ 1736
	.bits	110,8			; formBody[218] @ 1744
	.bits	116,8			; formBody[219] @ 1752
	.bits	101,8			; formBody[220] @ 1760
	.bits	114,8			; formBody[221] @ 1768
	.bits	62,8			; formBody[222] @ 1776
	.bits	60,8			; formBody[223] @ 1784
	.bits	47,8			; formBody[224] @ 1792
	.bits	98,8			; formBody[225] @ 1800
	.bits	111,8			; formBody[226] @ 1808
	.bits	100,8			; formBody[227] @ 1816
	.bits	121,8			; formBody[228] @ 1824
	.bits	62,8			; formBody[229] @ 1832
	.bits	60,8			; formBody[230] @ 1840
	.bits	47,8			; formBody[231] @ 1848
	.bits	104,8			; formBody[232] @ 1856
	.bits	116,8			; formBody[233] @ 1864
	.bits	109,8			; formBody[234] @ 1872
	.bits	108,8			; formBody[235] @ 1880
	.bits	62,8			; formBody[236] @ 1888
	.bits	0,8			; formBody[237] @ 1896

$C$DW$46	.dwtag  DW_TAG_variable, DW_AT_name("formBody")
	.dwattr $C$DW$46, DW_AT_TI_symbol_name("formBody")
	.dwattr $C$DW$46, DW_AT_location[DW_OP_addr formBody]
	.dwattr $C$DW$46, DW_AT_type(*$C$DW$T$109)
	.dwattr $C$DW$46, DW_AT_external
	.dwattr $C$DW$46, DW_AT_decl_file("../esp8266.c")
	.dwattr $C$DW$46, DW_AT_decl_line(0x2db)
	.dwattr $C$DW$46, DW_AT_decl_column(0x0c)
	.sect	".const:.string:$P$T0$1"
	.clink
	.align	1
	.elfsym	||$P$T0$1||,SYM_SIZE(80)
||$P$T0$1||:
	.bits	72,8			; $P$T0$1[0] @ 0
	.bits	84,8			; $P$T0$1[1] @ 8
	.bits	84,8			; $P$T0$1[2] @ 16
	.bits	80,8			; $P$T0$1[3] @ 24
	.bits	47,8			; $P$T0$1[4] @ 32
	.bits	49,8			; $P$T0$1[5] @ 40
	.bits	46,8			; $P$T0$1[6] @ 48
	.bits	49,8			; $P$T0$1[7] @ 56
	.bits	32,8			; $P$T0$1[8] @ 64
	.bits	50,8			; $P$T0$1[9] @ 72
	.bits	48,8			; $P$T0$1[10] @ 80
	.bits	48,8			; $P$T0$1[11] @ 88
	.bits	32,8			; $P$T0$1[12] @ 96
	.bits	79,8			; $P$T0$1[13] @ 104
	.bits	75,8			; $P$T0$1[14] @ 112
	.bits	13,8			; $P$T0$1[15] @ 120
	.bits	10,8			; $P$T0$1[16] @ 128
	.bits	67,8			; $P$T0$1[17] @ 136
	.bits	111,8			; $P$T0$1[18] @ 144
	.bits	110,8			; $P$T0$1[19] @ 152
	.bits	116,8			; $P$T0$1[20] @ 160
	.bits	101,8			; $P$T0$1[21] @ 168
	.bits	110,8			; $P$T0$1[22] @ 176
	.bits	116,8			; $P$T0$1[23] @ 184
	.bits	45,8			; $P$T0$1[24] @ 192
	.bits	84,8			; $P$T0$1[25] @ 200
	.bits	121,8			; $P$T0$1[26] @ 208
	.bits	112,8			; $P$T0$1[27] @ 216
	.bits	101,8			; $P$T0$1[28] @ 224
	.bits	58,8			; $P$T0$1[29] @ 232
	.bits	32,8			; $P$T0$1[30] @ 240
	.bits	116,8			; $P$T0$1[31] @ 248
	.bits	101,8			; $P$T0$1[32] @ 256
	.bits	120,8			; $P$T0$1[33] @ 264
	.bits	116,8			; $P$T0$1[34] @ 272
	.bits	47,8			; $P$T0$1[35] @ 280
	.bits	104,8			; $P$T0$1[36] @ 288
	.bits	116,8			; $P$T0$1[37] @ 296
	.bits	109,8			; $P$T0$1[38] @ 304
	.bits	108,8			; $P$T0$1[39] @ 312
	.bits	13,8			; $P$T0$1[40] @ 320
	.bits	10,8			; $P$T0$1[41] @ 328
	.bits	67,8			; $P$T0$1[42] @ 336
	.bits	111,8			; $P$T0$1[43] @ 344
	.bits	110,8			; $P$T0$1[44] @ 352
	.bits	110,8			; $P$T0$1[45] @ 360
	.bits	101,8			; $P$T0$1[46] @ 368
	.bits	99,8			; $P$T0$1[47] @ 376
	.bits	116,8			; $P$T0$1[48] @ 384
	.bits	105,8			; $P$T0$1[49] @ 392
	.bits	111,8			; $P$T0$1[50] @ 400
	.bits	110,8			; $P$T0$1[51] @ 408
	.bits	58,8			; $P$T0$1[52] @ 416
	.bits	32,8			; $P$T0$1[53] @ 424
	.bits	99,8			; $P$T0$1[54] @ 432
	.bits	108,8			; $P$T0$1[55] @ 440
	.bits	111,8			; $P$T0$1[56] @ 448
	.bits	115,8			; $P$T0$1[57] @ 456
	.bits	101,8			; $P$T0$1[58] @ 464
	.bits	13,8			; $P$T0$1[59] @ 472
	.bits	10,8			; $P$T0$1[60] @ 480
	.bits	67,8			; $P$T0$1[61] @ 488
	.bits	111,8			; $P$T0$1[62] @ 496
	.bits	110,8			; $P$T0$1[63] @ 504
	.bits	116,8			; $P$T0$1[64] @ 512
	.bits	101,8			; $P$T0$1[65] @ 520
	.bits	110,8			; $P$T0$1[66] @ 528
	.bits	116,8			; $P$T0$1[67] @ 536
	.bits	45,8			; $P$T0$1[68] @ 544
	.bits	76,8			; $P$T0$1[69] @ 552
	.bits	101,8			; $P$T0$1[70] @ 560
	.bits	110,8			; $P$T0$1[71] @ 568
	.bits	103,8			; $P$T0$1[72] @ 576
	.bits	116,8			; $P$T0$1[73] @ 584
	.bits	104,8			; $P$T0$1[74] @ 592
	.bits	58,8			; $P$T0$1[75] @ 600
	.bits	32,8			; $P$T0$1[76] @ 608
	.bits	0,8			; $P$T0$1[77] @ 616

$C$DW$47	.dwtag  DW_TAG_variable, DW_AT_name("$P$T0$1")
	.dwattr $C$DW$47, DW_AT_TI_symbol_name("$P$T0$1")
	.dwattr $C$DW$47, DW_AT_type(*$C$DW$T$110)
	.dwattr $C$DW$47, DW_AT_location[DW_OP_addr ||$P$T0$1||]
	.dwattr $C$DW$47, DW_AT_decl_file("../esp8266.c")
	.dwattr $C$DW$47, DW_AT_decl_line(0x2f6)
	.dwattr $C$DW$47, DW_AT_decl_column(0x08)
;	C:\ti\ccsv6\tools\compiler\ti-cgt-arm_5.2.4\bin\armacpia.exe -@C:\\Users\\VALVAN~1\\AppData\\Local\\Temp\\1298012 
	.sect	".text"
	.clink
	.thumbfunc lc
	.thumb
	.global	lc

$C$DW$48	.dwtag  DW_TAG_subprogram, DW_AT_name("lc")
	.dwattr $C$DW$48, DW_AT_low_pc(lc)
	.dwattr $C$DW$48, DW_AT_high_pc(0x00)
	.dwattr $C$DW$48, DW_AT_TI_symbol_name("lc")
	.dwattr $C$DW$48, DW_AT_external
	.dwattr $C$DW$48, DW_AT_type(*$C$DW$T$6)
	.dwattr $C$DW$48, DW_AT_TI_begin_file("../esp8266.c")
	.dwattr $C$DW$48, DW_AT_TI_begin_line(0x76)
	.dwattr $C$DW$48, DW_AT_TI_begin_column(0x06)
	.dwattr $C$DW$48, DW_AT_decl_file("../esp8266.c")
	.dwattr $C$DW$48, DW_AT_decl_line(0x76)
	.dwattr $C$DW$48, DW_AT_decl_column(0x06)
	.dwattr $C$DW$48, DW_AT_TI_max_frame_size(0x08)
	.dwpsn	file "../esp8266.c",line 118,column 21,is_stmt,address lc,isa 1

	.dwfde $C$DW$CIE, lc
$C$DW$49	.dwtag  DW_TAG_formal_parameter, DW_AT_name("letter")
	.dwattr $C$DW$49, DW_AT_TI_symbol_name("letter")
	.dwattr $C$DW$49, DW_AT_type(*$C$DW$T$6)
	.dwattr $C$DW$49, DW_AT_location[DW_OP_reg0]

;*****************************************************************************
;* FUNCTION NAME: lc                                                         *
;*                                                                           *
;*   Regs Modified     : A1,SP,SR                                            *
;*   Regs Used         : A1,SP,LR,SR                                         *
;*   Local Frame Size  : 0 Args + 4 Auto + 0 Save = 4 byte                   *
;*****************************************************************************
lc:
;* --------------------------------------------------------------------------*
	.dwcfi	cfa_offset, 0
        SUB       SP, SP, #8            ; [DPU_3_PIPE] 
	.dwcfi	cfa_offset, 8
$C$DW$50	.dwtag  DW_TAG_variable, DW_AT_name("letter")
	.dwattr $C$DW$50, DW_AT_TI_symbol_name("letter")
	.dwattr $C$DW$50, DW_AT_type(*$C$DW$T$6)
	.dwattr $C$DW$50, DW_AT_location[DW_OP_breg13 0]
;----------------------------------------------------------------------
; 118 | char lc(char letter){                                                  
;----------------------------------------------------------------------
        STRB      A1, [SP, #0]          ; [DPU_3_PIPE] |118| 
	.dwpsn	file "../esp8266.c",line 119,column 3,is_stmt,isa 1
;----------------------------------------------------------------------
; 119 | if((letter>='A')&&(letter<='Z')) letter |= 0x20;                       
;----------------------------------------------------------------------
        LDRB      A1, [SP, #0]          ; [DPU_3_PIPE] |119| 
        CMP       A1, #65               ; [DPU_3_PIPE] |119| 
        BLT       ||$C$L1||             ; [DPU_3_PIPE] |119| 
        ; BRANCHCC OCCURS {||$C$L1||}    ; [] |119| 
;* --------------------------------------------------------------------------*
        LDRB      A1, [SP, #0]          ; [DPU_3_PIPE] |119| 
        CMP       A1, #90               ; [DPU_3_PIPE] |119| 
        BGT       ||$C$L1||             ; [DPU_3_PIPE] |119| 
        ; BRANCHCC OCCURS {||$C$L1||}    ; [] |119| 
;* --------------------------------------------------------------------------*
	.dwpsn	file "../esp8266.c",line 119,column 36,is_stmt,isa 1
        LDRB      A1, [SP, #0]          ; [DPU_3_PIPE] |119| 
        ORR       A1, A1, #32           ; [DPU_3_PIPE] |119| 
        STRB      A1, [SP, #0]          ; [DPU_3_PIPE] |119| 
;* --------------------------------------------------------------------------*
||$C$L1||:    
	.dwpsn	file "../esp8266.c",line 120,column 3,is_stmt,isa 1
;----------------------------------------------------------------------
; 120 | return letter;                                                         
;----------------------------------------------------------------------
        LDRB      A1, [SP, #0]          ; [DPU_3_PIPE] |120| 
	.dwpsn	file "../esp8266.c",line 121,column 1,is_stmt,isa 1
        ADD       SP, SP, #8            ; [DPU_3_PIPE] 
	.dwcfi	cfa_offset, 0
$C$DW$51	.dwtag  DW_TAG_TI_branch
	.dwattr $C$DW$51, DW_AT_low_pc(0x00)
	.dwattr $C$DW$51, DW_AT_TI_return
        BX        LR                    ; [DPU_3_PIPE] 
        ; BRANCH OCCURS                  ; [] 
	.dwattr $C$DW$48, DW_AT_TI_end_file("../esp8266.c")
	.dwattr $C$DW$48, DW_AT_TI_end_line(0x79)
	.dwattr $C$DW$48, DW_AT_TI_end_column(0x01)
	.dwendentry
	.dwendtag $C$DW$48

	.sect	".text"
	.clink
	.thumbfunc SearchStart
	.thumb
	.global	SearchStart

$C$DW$52	.dwtag  DW_TAG_subprogram, DW_AT_name("SearchStart")
	.dwattr $C$DW$52, DW_AT_low_pc(SearchStart)
	.dwattr $C$DW$52, DW_AT_high_pc(0x00)
	.dwattr $C$DW$52, DW_AT_TI_symbol_name("SearchStart")
	.dwattr $C$DW$52, DW_AT_external
	.dwattr $C$DW$52, DW_AT_TI_begin_file("../esp8266.c")
	.dwattr $C$DW$52, DW_AT_TI_begin_line(0x7e)
	.dwattr $C$DW$52, DW_AT_TI_begin_column(0x06)
	.dwattr $C$DW$52, DW_AT_decl_file("../esp8266.c")
	.dwattr $C$DW$52, DW_AT_decl_line(0x7e)
	.dwattr $C$DW$52, DW_AT_decl_column(0x06)
	.dwattr $C$DW$52, DW_AT_TI_max_frame_size(0x08)
	.dwpsn	file "../esp8266.c",line 126,column 27,is_stmt,address SearchStart,isa 1

	.dwfde $C$DW$CIE, SearchStart
$C$DW$53	.dwtag  DW_TAG_formal_parameter, DW_AT_name("pt")
	.dwattr $C$DW$53, DW_AT_TI_symbol_name("pt")
	.dwattr $C$DW$53, DW_AT_type(*$C$DW$T$35)
	.dwattr $C$DW$53, DW_AT_location[DW_OP_reg0]

;*****************************************************************************
;* FUNCTION NAME: SearchStart                                                *
;*                                                                           *
;*   Regs Modified     : A1,A2,A3,A4,V9,SP,LR,SR,D0,D0_hi,D1,D1_hi,D2,D2_hi, *
;*                           D3,D3_hi,D4,D4_hi,D5,D5_hi,D6,D6_hi,D7,D7_hi,   *
;*                           FPEXC,FPSCR                                     *
;*   Regs Used         : A1,A2,A3,A4,V9,SP,LR,SR,D0,D0_hi,D1,D1_hi,D2,D2_hi, *
;*                           D3,D3_hi,D4,D4_hi,D5,D5_hi,D6,D6_hi,D7,D7_hi,   *
;*                           FPEXC,FPSCR                                     *
;*   Local Frame Size  : 0 Args + 4 Auto + 4 Save = 8 byte                   *
;*****************************************************************************
SearchStart:
;* --------------------------------------------------------------------------*
	.dwcfi	cfa_offset, 0
        PUSH      {A4, LR}              ; [DPU_3_PIPE] 
	.dwcfi	cfa_offset, 8
	.dwcfi	save_reg_to_mem, 14, -4
	.dwcfi	save_reg_to_mem, 3, -8
$C$DW$54	.dwtag  DW_TAG_variable, DW_AT_name("pt")
	.dwattr $C$DW$54, DW_AT_TI_symbol_name("pt")
	.dwattr $C$DW$54, DW_AT_type(*$C$DW$T$35)
	.dwattr $C$DW$54, DW_AT_location[DW_OP_breg13 0]
;----------------------------------------------------------------------
; 126 | void SearchStart(char *pt){                                            
;----------------------------------------------------------------------
        STR       A1, [SP, #0]          ; [DPU_3_PIPE] |126| 
	.dwpsn	file "../esp8266.c",line 127,column 3,is_stmt,isa 1
;----------------------------------------------------------------------
; 127 | strcpy(SearchString,pt);                                               
;----------------------------------------------------------------------
        LDR       A1, $C$CON1           ; [DPU_3_PIPE] |127| 
        LDR       A2, [SP, #0]          ; [DPU_3_PIPE] |127| 
$C$DW$55	.dwtag  DW_TAG_TI_branch
	.dwattr $C$DW$55, DW_AT_low_pc(0x00)
	.dwattr $C$DW$55, DW_AT_name("strcpy")
	.dwattr $C$DW$55, DW_AT_TI_call
        BL        strcpy                ; [DPU_3_PIPE] |127| 
        ; CALL OCCURS {strcpy }          ; [] |127| 
	.dwpsn	file "../esp8266.c",line 128,column 3,is_stmt,isa 1
;----------------------------------------------------------------------
; 128 | SearchIndex = 0;                                                       
;----------------------------------------------------------------------
        LDR       A2, $C$CON2           ; [DPU_3_PIPE] |128| 
        MOVS      A1, #0                ; [DPU_3_PIPE] |128| 
        STR       A1, [A2, #0]          ; [DPU_3_PIPE] |128| 
	.dwpsn	file "../esp8266.c",line 129,column 3,is_stmt,isa 1
;----------------------------------------------------------------------
; 129 | SearchFound = false;                                                   
;----------------------------------------------------------------------
        LDR       A2, $C$CON3           ; [DPU_3_PIPE] |129| 
        MOVS      A1, #0                ; [DPU_3_PIPE] |129| 
        STRB      A1, [A2, #0]          ; [DPU_3_PIPE] |129| 
	.dwpsn	file "../esp8266.c",line 130,column 3,is_stmt,isa 1
;----------------------------------------------------------------------
; 130 | SearchLooking = true;                                                  
;----------------------------------------------------------------------
        LDR       A2, $C$CON4           ; [DPU_3_PIPE] |130| 
        MOVS      A1, #1                ; [DPU_3_PIPE] |130| 
        STRB      A1, [A2, #0]          ; [DPU_3_PIPE] |130| 
	.dwpsn	file "../esp8266.c",line 131,column 1,is_stmt,isa 1
$C$DW$56	.dwtag  DW_TAG_TI_branch
	.dwattr $C$DW$56, DW_AT_low_pc(0x00)
	.dwattr $C$DW$56, DW_AT_TI_return
        POP       {A4, PC}              ; [DPU_3_PIPE] 
	.dwcfi	cfa_offset, 0
        ; BRANCH OCCURS                  ; [] 
	.dwattr $C$DW$52, DW_AT_TI_end_file("../esp8266.c")
	.dwattr $C$DW$52, DW_AT_TI_end_line(0x83)
	.dwattr $C$DW$52, DW_AT_TI_end_column(0x01)
	.dwendentry
	.dwendtag $C$DW$52

	.sect	".text"
	.clink
	.thumbfunc SearchCheck
	.thumb
	.global	SearchCheck

$C$DW$57	.dwtag  DW_TAG_subprogram, DW_AT_name("SearchCheck")
	.dwattr $C$DW$57, DW_AT_low_pc(SearchCheck)
	.dwattr $C$DW$57, DW_AT_high_pc(0x00)
	.dwattr $C$DW$57, DW_AT_TI_symbol_name("SearchCheck")
	.dwattr $C$DW$57, DW_AT_external
	.dwattr $C$DW$57, DW_AT_TI_begin_file("../esp8266.c")
	.dwattr $C$DW$57, DW_AT_TI_begin_line(0x88)
	.dwattr $C$DW$57, DW_AT_TI_begin_column(0x06)
	.dwattr $C$DW$57, DW_AT_decl_file("../esp8266.c")
	.dwattr $C$DW$57, DW_AT_decl_line(0x88)
	.dwattr $C$DW$57, DW_AT_decl_column(0x06)
	.dwattr $C$DW$57, DW_AT_TI_max_frame_size(0x08)
	.dwpsn	file "../esp8266.c",line 136,column 30,is_stmt,address SearchCheck,isa 1

	.dwfde $C$DW$CIE, SearchCheck
$C$DW$58	.dwtag  DW_TAG_formal_parameter, DW_AT_name("letter")
	.dwattr $C$DW$58, DW_AT_TI_symbol_name("letter")
	.dwattr $C$DW$58, DW_AT_type(*$C$DW$T$6)
	.dwattr $C$DW$58, DW_AT_location[DW_OP_reg0]

;*****************************************************************************
;* FUNCTION NAME: SearchCheck                                                *
;*                                                                           *
;*   Regs Modified     : A1,A2,A3,A4,SP,LR,SR,FPEXC,FPSCR                    *
;*   Regs Used         : A1,A2,A3,A4,SP,LR,SR,FPEXC,FPSCR                    *
;*   Local Frame Size  : 0 Args + 4 Auto + 4 Save = 8 byte                   *
;*****************************************************************************
SearchCheck:
;* --------------------------------------------------------------------------*
	.dwcfi	cfa_offset, 0
        PUSH      {A4, LR}              ; [DPU_3_PIPE] 
	.dwcfi	cfa_offset, 8
	.dwcfi	save_reg_to_mem, 14, -4
	.dwcfi	save_reg_to_mem, 3, -8
$C$DW$59	.dwtag  DW_TAG_variable, DW_AT_name("letter")
	.dwattr $C$DW$59, DW_AT_TI_symbol_name("letter")
	.dwattr $C$DW$59, DW_AT_type(*$C$DW$T$6)
	.dwattr $C$DW$59, DW_AT_location[DW_OP_breg13 0]
;----------------------------------------------------------------------
; 136 | void SearchCheck(char letter){                                         
;----------------------------------------------------------------------
        STRB      A1, [SP, #0]          ; [DPU_3_PIPE] |136| 
	.dwpsn	file "../esp8266.c",line 137,column 3,is_stmt,isa 1
;----------------------------------------------------------------------
; 137 | if(SearchLooking){                                                     
;----------------------------------------------------------------------
        LDR       A1, $C$CON4           ; [DPU_3_PIPE] |137| 
        LDRB      A1, [A1, #0]          ; [DPU_3_PIPE] |137| 
        CBZ       A1, ||$C$L3||         ; [] 
        ; BRANCHCC OCCURS {||$C$L3||}    ; [] |137| 
;* --------------------------------------------------------------------------*
	.dwpsn	file "../esp8266.c",line 138,column 5,is_stmt,isa 1
;----------------------------------------------------------------------
; 138 | if(SearchString[SearchIndex] == lc(letter)){ // match letter?          
;----------------------------------------------------------------------
        LDRB      A1, [SP, #0]          ; [DPU_3_PIPE] |138| 
$C$DW$60	.dwtag  DW_TAG_TI_branch
	.dwattr $C$DW$60, DW_AT_low_pc(0x00)
	.dwattr $C$DW$60, DW_AT_name("lc")
	.dwattr $C$DW$60, DW_AT_TI_call
        BL        lc                    ; [DPU_3_PIPE] |138| 
        ; CALL OCCURS {lc }              ; [] |138| 
        LDR       A2, $C$CON2           ; [DPU_3_PIPE] |138| 
        LDR       A3, $C$CON1           ; [DPU_3_PIPE] |138| 
        LDR       A2, [A2, #0]          ; [DPU_3_PIPE] |138| 
        LDRB      A2, [A3, +A2]         ; [DPU_3_PIPE] |138| 
        CMP       A1, A2                ; [DPU_3_PIPE] |138| 
        BNE       ||$C$L2||             ; [DPU_3_PIPE] |138| 
        ; BRANCHCC OCCURS {||$C$L2||}    ; [] |138| 
;* --------------------------------------------------------------------------*
	.dwpsn	file "../esp8266.c",line 139,column 7,is_stmt,isa 1
;----------------------------------------------------------------------
; 139 | SearchIndex++;                                                         
;----------------------------------------------------------------------
        LDR       A2, $C$CON2           ; [DPU_3_PIPE] |139| 
        LDR       A1, [A2, #0]          ; [DPU_3_PIPE] |139| 
        ADDS      A1, A1, #1            ; [DPU_3_PIPE] |139| 
        STR       A1, [A2, #0]          ; [DPU_3_PIPE] |139| 
	.dwpsn	file "../esp8266.c",line 140,column 7,is_stmt,isa 1
;----------------------------------------------------------------------
; 140 | if(SearchString[SearchIndex] == 0){ // match string?                   
;----------------------------------------------------------------------
        LDR       A1, $C$CON2           ; [DPU_3_PIPE] |140| 
        LDR       A2, $C$CON1           ; [DPU_3_PIPE] |140| 
        LDR       A1, [A1, #0]          ; [DPU_3_PIPE] |140| 
        LDRB      A1, [A2, +A1]         ; [DPU_3_PIPE] |140| 
        CBNZ      A1, ||$C$L3||         ; [] 
        ; BRANCHCC OCCURS {||$C$L3||}    ; [] |140| 
;* --------------------------------------------------------------------------*
	.dwpsn	file "../esp8266.c",line 141,column 9,is_stmt,isa 1
;----------------------------------------------------------------------
; 141 | SearchFound = true;                                                    
;----------------------------------------------------------------------
        LDR       A2, $C$CON3           ; [DPU_3_PIPE] |141| 
        MOVS      A1, #1                ; [DPU_3_PIPE] |141| 
        STRB      A1, [A2, #0]          ; [DPU_3_PIPE] |141| 
	.dwpsn	file "../esp8266.c",line 142,column 9,is_stmt,isa 1
;----------------------------------------------------------------------
; 142 | SearchLooking = false;                                                 
;----------------------------------------------------------------------
        LDR       A2, $C$CON4           ; [DPU_3_PIPE] |142| 
        MOVS      A1, #0                ; [DPU_3_PIPE] |142| 
        STRB      A1, [A2, #0]          ; [DPU_3_PIPE] |142| 
	.dwpsn	file "../esp8266.c",line 144,column 5,is_stmt,isa 1
;----------------------------------------------------------------------
; 144 | }else{                                                                 
;----------------------------------------------------------------------
        B         ||$C$L3||             ; [DPU_3_PIPE] |144| 
        ; BRANCH OCCURS {||$C$L3||}      ; [] |144| 
;* --------------------------------------------------------------------------*
||$C$L2||:    
	.dwpsn	file "../esp8266.c",line 145,column 7,is_stmt,isa 1
;----------------------------------------------------------------------
; 145 | SearchIndex = 0; // start over                                         
;----------------------------------------------------------------------
        LDR       A2, $C$CON2           ; [DPU_3_PIPE] |145| 
        MOVS      A1, #0                ; [DPU_3_PIPE] |145| 
        STR       A1, [A2, #0]          ; [DPU_3_PIPE] |145| 
	.dwpsn	file "../esp8266.c",line 148,column 1,is_stmt,isa 1
;* --------------------------------------------------------------------------*
||$C$L3||:    
$C$DW$61	.dwtag  DW_TAG_TI_branch
	.dwattr $C$DW$61, DW_AT_low_pc(0x00)
	.dwattr $C$DW$61, DW_AT_TI_return
        POP       {A4, PC}              ; [DPU_3_PIPE] 
	.dwcfi	cfa_offset, 0
        ; BRANCH OCCURS                  ; [] 
	.dwattr $C$DW$57, DW_AT_TI_end_file("../esp8266.c")
	.dwattr $C$DW$57, DW_AT_TI_end_line(0x94)
	.dwattr $C$DW$57, DW_AT_TI_end_column(0x01)
	.dwendentry
	.dwendtag $C$DW$57

	.sect	".text"
	.clink
	.thumbfunc ServerResponseSearchStart
	.thumb
	.global	ServerResponseSearchStart

$C$DW$62	.dwtag  DW_TAG_subprogram, DW_AT_name("ServerResponseSearchStart")
	.dwattr $C$DW$62, DW_AT_low_pc(ServerResponseSearchStart)
	.dwattr $C$DW$62, DW_AT_high_pc(0x00)
	.dwattr $C$DW$62, DW_AT_TI_symbol_name("ServerResponseSearchStart")
	.dwattr $C$DW$62, DW_AT_external
	.dwattr $C$DW$62, DW_AT_TI_begin_file("../esp8266.c")
	.dwattr $C$DW$62, DW_AT_TI_begin_line(0x9f)
	.dwattr $C$DW$62, DW_AT_TI_begin_column(0x06)
	.dwattr $C$DW$62, DW_AT_decl_file("../esp8266.c")
	.dwattr $C$DW$62, DW_AT_decl_line(0x9f)
	.dwattr $C$DW$62, DW_AT_decl_column(0x06)
	.dwattr $C$DW$62, DW_AT_TI_max_frame_size(0x08)
	.dwpsn	file "../esp8266.c",line 159,column 37,is_stmt,address ServerResponseSearchStart,isa 1

	.dwfde $C$DW$CIE, ServerResponseSearchStart
;----------------------------------------------------------------------
; 159 | void ServerResponseSearchStart(void){                                  
;----------------------------------------------------------------------

;*****************************************************************************
;* FUNCTION NAME: ServerResponseSearchStart                                  *
;*                                                                           *
;*   Regs Modified     : A1,A2,A3,A4,V9,SP,LR,SR,D0,D0_hi,D1,D1_hi,D2,D2_hi, *
;*                           D3,D3_hi,D4,D4_hi,D5,D5_hi,D6,D6_hi,D7,D7_hi,   *
;*                           FPEXC,FPSCR                                     *
;*   Regs Used         : A1,A2,A3,A4,V9,SP,LR,SR,D0,D0_hi,D1,D1_hi,D2,D2_hi, *
;*                           D3,D3_hi,D4,D4_hi,D5,D5_hi,D6,D6_hi,D7,D7_hi,   *
;*                           FPEXC,FPSCR                                     *
;*   Local Frame Size  : 0 Args + 0 Auto + 4 Save = 4 byte                   *
;*****************************************************************************
ServerResponseSearchStart:
;* --------------------------------------------------------------------------*
	.dwcfi	cfa_offset, 0
        PUSH      {A4, LR}              ; [DPU_3_PIPE] 
	.dwcfi	cfa_offset, 8
	.dwcfi	save_reg_to_mem, 14, -4
	.dwcfi	save_reg_to_mem, 3, -8
	.dwpsn	file "../esp8266.c",line 160,column 3,is_stmt,isa 1
;----------------------------------------------------------------------
; 160 | strcpy(ServerResponseSearchString,"+ipd,");                            
;----------------------------------------------------------------------
        LDR       A1, $C$CON5           ; [DPU_3_PIPE] |160| 
        ADR       A2, $C$SL1            ; [DPU_3_PIPE] |160| 
$C$DW$63	.dwtag  DW_TAG_TI_branch
	.dwattr $C$DW$63, DW_AT_low_pc(0x00)
	.dwattr $C$DW$63, DW_AT_name("strcpy")
	.dwattr $C$DW$63, DW_AT_TI_call
        BL        strcpy                ; [DPU_3_PIPE] |160| 
        ; CALL OCCURS {strcpy }          ; [] |160| 
	.dwpsn	file "../esp8266.c",line 161,column 3,is_stmt,isa 1
;----------------------------------------------------------------------
; 161 | ServerResponseSearchIndex = 0;                                         
;----------------------------------------------------------------------
        LDR       A2, $C$CON6           ; [DPU_3_PIPE] |161| 
        MOVS      A1, #0                ; [DPU_3_PIPE] |161| 
        STR       A1, [A2, #0]          ; [DPU_3_PIPE] |161| 
	.dwpsn	file "../esp8266.c",line 162,column 3,is_stmt,isa 1
;----------------------------------------------------------------------
; 162 | ServerResponseSearchLooking = 1; // means look for "+IPD"              
;----------------------------------------------------------------------
        LDR       A2, $C$CON7           ; [DPU_3_PIPE] |162| 
        MOVS      A1, #1                ; [DPU_3_PIPE] |162| 
        STR       A1, [A2, #0]          ; [DPU_3_PIPE] |162| 
	.dwpsn	file "../esp8266.c",line 163,column 3,is_stmt,isa 1
;----------------------------------------------------------------------
; 163 | ServerResponseSearchFinished = 0;                                      
;----------------------------------------------------------------------
        LDR       A2, $C$CON8           ; [DPU_3_PIPE] |163| 
        MOVS      A1, #0                ; [DPU_3_PIPE] |163| 
        STR       A1, [A2, #0]          ; [DPU_3_PIPE] |163| 
	.dwpsn	file "../esp8266.c",line 164,column 3,is_stmt,isa 1
;----------------------------------------------------------------------
; 164 | ServerResponseIndex = 0;                                               
;----------------------------------------------------------------------
        LDR       A2, $C$CON9           ; [DPU_3_PIPE] |164| 
        MOVS      A1, #0                ; [DPU_3_PIPE] |164| 
        STR       A1, [A2, #0]          ; [DPU_3_PIPE] |164| 
	.dwpsn	file "../esp8266.c",line 165,column 1,is_stmt,isa 1
$C$DW$64	.dwtag  DW_TAG_TI_branch
	.dwattr $C$DW$64, DW_AT_low_pc(0x00)
	.dwattr $C$DW$64, DW_AT_TI_return
        POP       {A4, PC}              ; [DPU_3_PIPE] 
	.dwcfi	cfa_offset, 0
        ; BRANCH OCCURS                  ; [] 
	.dwattr $C$DW$62, DW_AT_TI_end_file("../esp8266.c")
	.dwattr $C$DW$62, DW_AT_TI_end_line(0xa5)
	.dwattr $C$DW$62, DW_AT_TI_end_column(0x01)
	.dwendentry
	.dwendtag $C$DW$62

	.sect	".text"
	.clink
	.thumbfunc ServerResponseSearchCheck
	.thumb
	.global	ServerResponseSearchCheck

$C$DW$65	.dwtag  DW_TAG_subprogram, DW_AT_name("ServerResponseSearchCheck")
	.dwattr $C$DW$65, DW_AT_low_pc(ServerResponseSearchCheck)
	.dwattr $C$DW$65, DW_AT_high_pc(0x00)
	.dwattr $C$DW$65, DW_AT_TI_symbol_name("ServerResponseSearchCheck")
	.dwattr $C$DW$65, DW_AT_external
	.dwattr $C$DW$65, DW_AT_TI_begin_file("../esp8266.c")
	.dwattr $C$DW$65, DW_AT_TI_begin_line(0xab)
	.dwattr $C$DW$65, DW_AT_TI_begin_column(0x06)
	.dwattr $C$DW$65, DW_AT_decl_file("../esp8266.c")
	.dwattr $C$DW$65, DW_AT_decl_line(0xab)
	.dwattr $C$DW$65, DW_AT_decl_column(0x06)
	.dwattr $C$DW$65, DW_AT_TI_max_frame_size(0x08)
	.dwpsn	file "../esp8266.c",line 171,column 44,is_stmt,address ServerResponseSearchCheck,isa 1

	.dwfde $C$DW$CIE, ServerResponseSearchCheck
$C$DW$66	.dwtag  DW_TAG_formal_parameter, DW_AT_name("letter")
	.dwattr $C$DW$66, DW_AT_TI_symbol_name("letter")
	.dwattr $C$DW$66, DW_AT_type(*$C$DW$T$6)
	.dwattr $C$DW$66, DW_AT_location[DW_OP_reg0]

;*****************************************************************************
;* FUNCTION NAME: ServerResponseSearchCheck                                  *
;*                                                                           *
;*   Regs Modified     : A1,A2,A3,A4,V9,SP,LR,SR,D0,D0_hi,D1,D1_hi,D2,D2_hi, *
;*                           D3,D3_hi,D4,D4_hi,D5,D5_hi,D6,D6_hi,D7,D7_hi,   *
;*                           FPEXC,FPSCR                                     *
;*   Regs Used         : A1,A2,A3,A4,V9,SP,LR,SR,D0,D0_hi,D1,D1_hi,D2,D2_hi, *
;*                           D3,D3_hi,D4,D4_hi,D5,D5_hi,D6,D6_hi,D7,D7_hi,   *
;*                           FPEXC,FPSCR                                     *
;*   Local Frame Size  : 0 Args + 4 Auto + 4 Save = 8 byte                   *
;*****************************************************************************
ServerResponseSearchCheck:
;* --------------------------------------------------------------------------*
	.dwcfi	cfa_offset, 0
        PUSH      {A4, LR}              ; [DPU_3_PIPE] 
	.dwcfi	cfa_offset, 8
	.dwcfi	save_reg_to_mem, 14, -4
	.dwcfi	save_reg_to_mem, 3, -8
$C$DW$67	.dwtag  DW_TAG_variable, DW_AT_name("letter")
	.dwattr $C$DW$67, DW_AT_TI_symbol_name("letter")
	.dwattr $C$DW$67, DW_AT_type(*$C$DW$T$6)
	.dwattr $C$DW$67, DW_AT_location[DW_OP_breg13 0]
;----------------------------------------------------------------------
; 171 | void ServerResponseSearchCheck(char letter){                           
;----------------------------------------------------------------------
        STRB      A1, [SP, #0]          ; [DPU_3_PIPE] |171| 
	.dwpsn	file "../esp8266.c",line 172,column 3,is_stmt,isa 1
;----------------------------------------------------------------------
; 172 | if(ServerResponseSearchLooking==1){                                    
;----------------------------------------------------------------------
        LDR       A1, $C$CON7           ; [DPU_3_PIPE] |172| 
        LDR       A1, [A1, #0]          ; [DPU_3_PIPE] |172| 
        CMP       A1, #1                ; [DPU_3_PIPE] |172| 
        BNE       ||$C$L5||             ; [DPU_3_PIPE] |172| 
        ; BRANCHCC OCCURS {||$C$L5||}    ; [] |172| 
;* --------------------------------------------------------------------------*
	.dwpsn	file "../esp8266.c",line 173,column 5,is_stmt,isa 1
;----------------------------------------------------------------------
; 173 | if(ServerResponseSearchString[ServerResponseSearchIndex] == lc(letter))
;     | { // match letter?                                                     
;----------------------------------------------------------------------
        LDRB      A1, [SP, #0]          ; [DPU_3_PIPE] |173| 
$C$DW$68	.dwtag  DW_TAG_TI_branch
	.dwattr $C$DW$68, DW_AT_low_pc(0x00)
	.dwattr $C$DW$68, DW_AT_name("lc")
	.dwattr $C$DW$68, DW_AT_TI_call
        BL        lc                    ; [DPU_3_PIPE] |173| 
        ; CALL OCCURS {lc }              ; [] |173| 
        LDR       A2, $C$CON6           ; [DPU_3_PIPE] |173| 
        LDR       A3, $C$CON5           ; [DPU_3_PIPE] |173| 
        LDR       A2, [A2, #0]          ; [DPU_3_PIPE] |173| 
        LDRB      A2, [A3, +A2]         ; [DPU_3_PIPE] |173| 
        CMP       A1, A2                ; [DPU_3_PIPE] |173| 
        BNE       ||$C$L4||             ; [DPU_3_PIPE] |173| 
        ; BRANCHCC OCCURS {||$C$L4||}    ; [] |173| 
;* --------------------------------------------------------------------------*
	.dwpsn	file "../esp8266.c",line 174,column 7,is_stmt,isa 1
;----------------------------------------------------------------------
; 174 | ServerResponseSearchIndex++;                                           
;----------------------------------------------------------------------
        LDR       A2, $C$CON6           ; [DPU_3_PIPE] |174| 
        LDR       A1, [A2, #0]          ; [DPU_3_PIPE] |174| 
        ADDS      A1, A1, #1            ; [DPU_3_PIPE] |174| 
        STR       A1, [A2, #0]          ; [DPU_3_PIPE] |174| 
	.dwpsn	file "../esp8266.c",line 175,column 7,is_stmt,isa 1
;----------------------------------------------------------------------
; 175 | if(ServerResponseSearchString[ServerResponseSearchIndex] == 0){ // matc
;     | h string?                                                              
;----------------------------------------------------------------------
        LDR       A1, $C$CON6           ; [DPU_3_PIPE] |175| 
        LDR       A2, $C$CON5           ; [DPU_3_PIPE] |175| 
        LDR       A1, [A1, #0]          ; [DPU_3_PIPE] |175| 
        LDRB      A1, [A2, +A1]         ; [DPU_3_PIPE] |175| 
        CMP       A1, #0                ; [DPU_3_PIPE] |175| 
        BNE       ||$C$L8||             ; [DPU_3_PIPE] |175| 
        ; BRANCHCC OCCURS {||$C$L8||}    ; [] |175| 
;* --------------------------------------------------------------------------*
	.dwpsn	file "../esp8266.c",line 176,column 9,is_stmt,isa 1
;----------------------------------------------------------------------
; 176 | ServerResponseSearchLooking = 2;                                       
;----------------------------------------------------------------------
        LDR       A2, $C$CON7           ; [DPU_3_PIPE] |176| 
        MOVS      A1, #2                ; [DPU_3_PIPE] |176| 
        STR       A1, [A2, #0]          ; [DPU_3_PIPE] |176| 
	.dwpsn	file "../esp8266.c",line 177,column 9,is_stmt,isa 1
;----------------------------------------------------------------------
; 177 | strcpy(ServerResponseSearchString,"\r\nok\r\n");                       
;----------------------------------------------------------------------
        LDR       A1, $C$CON5           ; [DPU_3_PIPE] |177| 
        ADR       A2, $C$SL2            ; [DPU_3_PIPE] |177| 
$C$DW$69	.dwtag  DW_TAG_TI_branch
	.dwattr $C$DW$69, DW_AT_low_pc(0x00)
	.dwattr $C$DW$69, DW_AT_name("strcpy")
	.dwattr $C$DW$69, DW_AT_TI_call
        BL        strcpy                ; [DPU_3_PIPE] |177| 
        ; CALL OCCURS {strcpy }          ; [] |177| 
	.dwpsn	file "../esp8266.c",line 178,column 9,is_stmt,isa 1
;----------------------------------------------------------------------
; 178 | ServerResponseSearchIndex = 0;                                         
;----------------------------------------------------------------------
        LDR       A2, $C$CON6           ; [DPU_3_PIPE] |178| 
        MOVS      A1, #0                ; [DPU_3_PIPE] |178| 
        STR       A1, [A2, #0]          ; [DPU_3_PIPE] |178| 
	.dwpsn	file "../esp8266.c",line 180,column 5,is_stmt,isa 1
;----------------------------------------------------------------------
; 180 | }else{                                                                 
;----------------------------------------------------------------------
        B         ||$C$L8||             ; [DPU_3_PIPE] |180| 
        ; BRANCH OCCURS {||$C$L8||}      ; [] |180| 
;* --------------------------------------------------------------------------*
||$C$L4||:    
	.dwpsn	file "../esp8266.c",line 181,column 7,is_stmt,isa 1
;----------------------------------------------------------------------
; 181 | ServerResponseSearchIndex = 0; // start over                           
;----------------------------------------------------------------------
        LDR       A2, $C$CON6           ; [DPU_3_PIPE] |181| 
        MOVS      A1, #0                ; [DPU_3_PIPE] |181| 
        STR       A1, [A2, #0]          ; [DPU_3_PIPE] |181| 
	.dwpsn	file "../esp8266.c",line 183,column 3,is_stmt,isa 1
;----------------------------------------------------------------------
; 183 | }else if(ServerResponseSearchLooking==2){                              
;----------------------------------------------------------------------
        B         ||$C$L8||             ; [DPU_3_PIPE] |183| 
        ; BRANCH OCCURS {||$C$L8||}      ; [] |183| 
;* --------------------------------------------------------------------------*
||$C$L5||:    
	.dwpsn	file "../esp8266.c",line 183,column 9,is_stmt,isa 1
        LDR       A1, $C$CON7           ; [DPU_3_PIPE] |183| 
        LDR       A1, [A1, #0]          ; [DPU_3_PIPE] |183| 
        CMP       A1, #2                ; [DPU_3_PIPE] |183| 
        BNE       ||$C$L8||             ; [DPU_3_PIPE] |183| 
        ; BRANCHCC OCCURS {||$C$L8||}    ; [] |183| 
;* --------------------------------------------------------------------------*
	.dwpsn	file "../esp8266.c",line 184,column 5,is_stmt,isa 1
;----------------------------------------------------------------------
; 184 | if(ServerResponseIndex < SERVER_RESPONSE_SIZE){                        
;----------------------------------------------------------------------
        LDR       A1, $C$CON9           ; [DPU_3_PIPE] |184| 
        LDR       A1, [A1, #0]          ; [DPU_3_PIPE] |184| 
        LSRS      A1, A1, #10           ; [DPU_3_PIPE] |184| 
        BNE       ||$C$L6||             ; [DPU_3_PIPE] |184| 
        ; BRANCHCC OCCURS {||$C$L6||}    ; [] |184| 
;* --------------------------------------------------------------------------*
	.dwpsn	file "../esp8266.c",line 185,column 7,is_stmt,isa 1
;----------------------------------------------------------------------
; 185 | ServerResponseBuffer[ServerResponseIndex] = lc(letter); // copy data fr
;     | om "+IPD," to "OK"                                                     
;----------------------------------------------------------------------
        LDRB      A1, [SP, #0]          ; [DPU_3_PIPE] |185| 
$C$DW$70	.dwtag  DW_TAG_TI_branch
	.dwattr $C$DW$70, DW_AT_low_pc(0x00)
	.dwattr $C$DW$70, DW_AT_name("lc")
	.dwattr $C$DW$70, DW_AT_TI_call
        BL        lc                    ; [DPU_3_PIPE] |185| 
        ; CALL OCCURS {lc }              ; [] |185| 
        LDR       A2, $C$CON9           ; [DPU_3_PIPE] |185| 
        LDR       A3, $C$CON10          ; [DPU_3_PIPE] |185| 
        LDR       A2, [A2, #0]          ; [DPU_3_PIPE] |185| 
        STRB      A1, [A3, +A2]         ; [DPU_3_PIPE] |185| 
	.dwpsn	file "../esp8266.c",line 186,column 7,is_stmt,isa 1
;----------------------------------------------------------------------
; 186 | ServerResponseIndex++;                                                 
;----------------------------------------------------------------------
        LDR       A2, $C$CON9           ; [DPU_3_PIPE] |186| 
        LDR       A1, [A2, #0]          ; [DPU_3_PIPE] |186| 
        ADDS      A1, A1, #1            ; [DPU_3_PIPE] |186| 
        STR       A1, [A2, #0]          ; [DPU_3_PIPE] |186| 
;* --------------------------------------------------------------------------*
||$C$L6||:    
	.dwpsn	file "../esp8266.c",line 188,column 5,is_stmt,isa 1
;----------------------------------------------------------------------
; 188 | if(ServerResponseSearchString[ServerResponseSearchIndex] == lc(letter))
;     | { // match letter?                                                     
;----------------------------------------------------------------------
        LDRB      A1, [SP, #0]          ; [DPU_3_PIPE] |188| 
$C$DW$71	.dwtag  DW_TAG_TI_branch
	.dwattr $C$DW$71, DW_AT_low_pc(0x00)
	.dwattr $C$DW$71, DW_AT_name("lc")
	.dwattr $C$DW$71, DW_AT_TI_call
        BL        lc                    ; [DPU_3_PIPE] |188| 
        ; CALL OCCURS {lc }              ; [] |188| 
        LDR       A2, $C$CON6           ; [DPU_3_PIPE] |188| 
        LDR       A3, $C$CON5           ; [DPU_3_PIPE] |188| 
        LDR       A2, [A2, #0]          ; [DPU_3_PIPE] |188| 
        LDRB      A2, [A3, +A2]         ; [DPU_3_PIPE] |188| 
        CMP       A1, A2                ; [DPU_3_PIPE] |188| 
        BNE       ||$C$L7||             ; [DPU_3_PIPE] |188| 
        ; BRANCHCC OCCURS {||$C$L7||}    ; [] |188| 
;* --------------------------------------------------------------------------*
	.dwpsn	file "../esp8266.c",line 189,column 7,is_stmt,isa 1
;----------------------------------------------------------------------
; 189 | ServerResponseSearchIndex++;                                           
;----------------------------------------------------------------------
        LDR       A2, $C$CON6           ; [DPU_3_PIPE] |189| 
        LDR       A1, [A2, #0]          ; [DPU_3_PIPE] |189| 
        ADDS      A1, A1, #1            ; [DPU_3_PIPE] |189| 
        STR       A1, [A2, #0]          ; [DPU_3_PIPE] |189| 
	.dwpsn	file "../esp8266.c",line 190,column 7,is_stmt,isa 1
;----------------------------------------------------------------------
; 190 | if(ServerResponseSearchString[ServerResponseSearchIndex] == 0){   // ma
;     | tch OK string?                                                         
;----------------------------------------------------------------------
        LDR       A1, $C$CON6           ; [DPU_3_PIPE] |190| 
        LDR       A2, $C$CON5           ; [DPU_3_PIPE] |190| 
        LDR       A1, [A1, #0]          ; [DPU_3_PIPE] |190| 
        LDRB      A1, [A2, +A1]         ; [DPU_3_PIPE] |190| 
        CBNZ      A1, ||$C$L8||         ; [] 
        ; BRANCHCC OCCURS {||$C$L8||}    ; [] |190| 
;* --------------------------------------------------------------------------*
	.dwpsn	file "../esp8266.c",line 191,column 9,is_stmt,isa 1
;----------------------------------------------------------------------
; 191 | ServerResponseSearchFinished = 1;                                      
;----------------------------------------------------------------------
        LDR       A2, $C$CON8           ; [DPU_3_PIPE] |191| 
        MOVS      A1, #1                ; [DPU_3_PIPE] |191| 
        STR       A1, [A2, #0]          ; [DPU_3_PIPE] |191| 
	.dwpsn	file "../esp8266.c",line 192,column 9,is_stmt,isa 1
;----------------------------------------------------------------------
; 192 | ServerResponseSearchLooking = 0;                                       
;----------------------------------------------------------------------
        LDR       A2, $C$CON7           ; [DPU_3_PIPE] |192| 
        MOVS      A1, #0                ; [DPU_3_PIPE] |192| 
        STR       A1, [A2, #0]          ; [DPU_3_PIPE] |192| 
	.dwpsn	file "../esp8266.c",line 194,column 5,is_stmt,isa 1
;----------------------------------------------------------------------
; 194 | }else{                                                                 
;----------------------------------------------------------------------
        B         ||$C$L8||             ; [DPU_3_PIPE] |194| 
        ; BRANCH OCCURS {||$C$L8||}      ; [] |194| 
;* --------------------------------------------------------------------------*
||$C$L7||:    
	.dwpsn	file "../esp8266.c",line 195,column 7,is_stmt,isa 1
;----------------------------------------------------------------------
; 195 | ServerResponseSearchIndex = 0; // start over                           
;----------------------------------------------------------------------
        LDR       A2, $C$CON6           ; [DPU_3_PIPE] |195| 
        MOVS      A1, #0                ; [DPU_3_PIPE] |195| 
        STR       A1, [A2, #0]          ; [DPU_3_PIPE] |195| 
	.dwpsn	file "../esp8266.c",line 198,column 1,is_stmt,isa 1
;* --------------------------------------------------------------------------*
||$C$L8||:    
$C$DW$72	.dwtag  DW_TAG_TI_branch
	.dwattr $C$DW$72, DW_AT_low_pc(0x00)
	.dwattr $C$DW$72, DW_AT_TI_return
        POP       {A4, PC}              ; [DPU_3_PIPE] 
	.dwcfi	cfa_offset, 0
        ; BRANCH OCCURS                  ; [] 
	.dwattr $C$DW$65, DW_AT_TI_end_file("../esp8266.c")
	.dwattr $C$DW$65, DW_AT_TI_end_line(0xc6)
	.dwattr $C$DW$65, DW_AT_TI_end_column(0x01)
	.dwendentry
	.dwendtag $C$DW$65

	.sect	".text"
	.clink
	.thumbfunc ESP8266_InitUART
	.thumb
	.global	ESP8266_InitUART

$C$DW$73	.dwtag  DW_TAG_subprogram, DW_AT_name("ESP8266_InitUART")
	.dwattr $C$DW$73, DW_AT_low_pc(ESP8266_InitUART)
	.dwattr $C$DW$73, DW_AT_high_pc(0x00)
	.dwattr $C$DW$73, DW_AT_TI_symbol_name("ESP8266_InitUART")
	.dwattr $C$DW$73, DW_AT_external
	.dwattr $C$DW$73, DW_AT_TI_begin_file("../esp8266.c")
	.dwattr $C$DW$73, DW_AT_TI_begin_line(0xd3)
	.dwattr $C$DW$73, DW_AT_TI_begin_column(0x06)
	.dwattr $C$DW$73, DW_AT_decl_file("../esp8266.c")
	.dwattr $C$DW$73, DW_AT_decl_line(0xd3)
	.dwattr $C$DW$73, DW_AT_decl_column(0x06)
	.dwattr $C$DW$73, DW_AT_TI_max_frame_size(0x18)
	.dwpsn	file "../esp8266.c",line 211,column 47,is_stmt,address ESP8266_InitUART,isa 1

	.dwfde $C$DW$CIE, ESP8266_InitUART
$C$DW$74	.dwtag  DW_TAG_formal_parameter, DW_AT_name("baud")
	.dwattr $C$DW$74, DW_AT_TI_symbol_name("baud")
	.dwattr $C$DW$74, DW_AT_type(*$C$DW$T$38)
	.dwattr $C$DW$74, DW_AT_location[DW_OP_reg0]
$C$DW$75	.dwtag  DW_TAG_formal_parameter, DW_AT_name("echo")
	.dwattr $C$DW$75, DW_AT_TI_symbol_name("echo")
	.dwattr $C$DW$75, DW_AT_type(*$C$DW$T$10)
	.dwattr $C$DW$75, DW_AT_location[DW_OP_reg1]

;*****************************************************************************
;* FUNCTION NAME: ESP8266_InitUART                                           *
;*                                                                           *
;*   Regs Modified     : A1,A2,A3,A4,V1,V2,SP,SR                             *
;*   Regs Used         : A1,A2,A3,A4,V1,V2,SP,LR,SR                          *
;*   Local Frame Size  : 0 Args + 8 Auto + 12 Save = 20 byte                 *
;*****************************************************************************
ESP8266_InitUART:
;* --------------------------------------------------------------------------*
	.dwcfi	cfa_offset, 0
        PUSH      {A2, A3, A4, V1, V2, LR} ; [DPU_3_PIPE] 
	.dwcfi	cfa_offset, 24
	.dwcfi	save_reg_to_mem, 14, -4
	.dwcfi	save_reg_to_mem, 5, -8
	.dwcfi	save_reg_to_mem, 4, -12
	.dwcfi	save_reg_to_mem, 3, -16
	.dwcfi	save_reg_to_mem, 2, -20
	.dwcfi	save_reg_to_mem, 1, -24
$C$DW$76	.dwtag  DW_TAG_variable, DW_AT_name("baud")
	.dwattr $C$DW$76, DW_AT_TI_symbol_name("baud")
	.dwattr $C$DW$76, DW_AT_type(*$C$DW$T$38)
	.dwattr $C$DW$76, DW_AT_location[DW_OP_breg13 0]
$C$DW$77	.dwtag  DW_TAG_variable, DW_AT_name("echo")
	.dwattr $C$DW$77, DW_AT_TI_symbol_name("echo")
	.dwattr $C$DW$77, DW_AT_type(*$C$DW$T$10)
	.dwattr $C$DW$77, DW_AT_location[DW_OP_breg13 4]
;----------------------------------------------------------------------
; 211 | void ESP8266_InitUART(uint32_t baud, int echo){ volatile int delay;    
;----------------------------------------------------------------------
        STR       A2, [SP, #4]          ; [DPU_3_PIPE] |211| 
        STR       A1, [SP, #0]          ; [DPU_3_PIPE] |211| 
	.dwpsn	file "../esp8266.c",line 212,column 3,is_stmt,isa 1
;----------------------------------------------------------------------
; 212 | ESP8266_EchoResponse = echo;                                           
;----------------------------------------------------------------------
        LDR       A1, [SP, #4]          ; [DPU_3_PIPE] |212| 
        MOVS      A2, #0                ; [DPU_3_PIPE] |212| 
        CBZ       A1, ||$C$L9||         ; [] 
        ; BRANCHCC OCCURS {||$C$L9||}    ; [] |212| 
;* --------------------------------------------------------------------------*
        MOVS      A2, #1                ; [DPU_3_PIPE] |212| 
;* --------------------------------------------------------------------------*
||$C$L9||:    
        LDR       A1, $C$CON11          ; [DPU_3_PIPE] |212| 
        STRB      A2, [A1, #0]          ; [DPU_3_PIPE] |212| 
	.dwpsn	file "../esp8266.c",line 213,column 3,is_stmt,isa 1
;----------------------------------------------------------------------
; 213 | SYSCTL_RCGCUART_R |= 0x02; // Enable UART1                             
;----------------------------------------------------------------------
        LDR       A2, $C$CON12          ; [DPU_3_PIPE] |213| 
        LDR       A1, [A2, #0]          ; [DPU_3_PIPE] |213| 
        ORR       A1, A1, #2            ; [DPU_3_PIPE] |213| 
        STR       A1, [A2, #0]          ; [DPU_3_PIPE] |213| 
	.dwpsn	file "../esp8266.c",line 214,column 3,is_stmt,isa 1
;----------------------------------------------------------------------
; 214 | while((SYSCTL_PRUART_R&0x02)==0){};                                    
;----------------------------------------------------------------------
;* --------------------------------------------------------------------------*
;*   BEGIN LOOP ||$C$L10||
;*
;*   Loop source line                : 214
;*   Loop closing brace source line  : 214
;*   Known Minimum Trip Count        : 1
;*   Known Maximum Trip Count        : 4294967295
;*   Known Max Trip Count Factor     : 1
;* --------------------------------------------------------------------------*
||$C$L10||:    
	.dwpsn	file "../esp8266.c",line 214,column 9,is_stmt,isa 1
        LDR       A1, $C$CON13          ; [DPU_3_PIPE] |214| 
        LDR       A1, [A1, #0]          ; [DPU_3_PIPE] |214| 
        LSRS      A1, A1, #2            ; [DPU_3_PIPE] |214| 
        BCC       ||$C$L10||            ; [DPU_3_PIPE] |214| 
        ; BRANCHCC OCCURS {||$C$L10||}   ; [] |214| 
;* --------------------------------------------------------------------------*
	.dwpsn	file "../esp8266.c",line 215,column 3,is_stmt,isa 1
;----------------------------------------------------------------------
; 215 | SYSCTL_RCGCGPIO_R |= 0x02; // Enable PORT B clock gating               
;----------------------------------------------------------------------
        LDR       A2, $C$CON14          ; [DPU_3_PIPE] |215| 
        LDR       A1, [A2, #0]          ; [DPU_3_PIPE] |215| 
        ORR       A1, A1, #2            ; [DPU_3_PIPE] |215| 
        STR       A1, [A2, #0]          ; [DPU_3_PIPE] |215| 
	.dwpsn	file "../esp8266.c",line 216,column 3,is_stmt,isa 1
;----------------------------------------------------------------------
; 216 | while((SYSCTL_PRGPIO_R&0x02)==0){};                                    
;----------------------------------------------------------------------
;* --------------------------------------------------------------------------*
;*   BEGIN LOOP ||$C$L11||
;*
;*   Loop source line                : 216
;*   Loop closing brace source line  : 216
;*   Known Minimum Trip Count        : 1
;*   Known Maximum Trip Count        : 4294967295
;*   Known Max Trip Count Factor     : 1
;* --------------------------------------------------------------------------*
||$C$L11||:    
	.dwpsn	file "../esp8266.c",line 216,column 9,is_stmt,isa 1
        LDR       A1, $C$CON15          ; [DPU_3_PIPE] |216| 
        LDR       A1, [A1, #0]          ; [DPU_3_PIPE] |216| 
        LSRS      A1, A1, #2            ; [DPU_3_PIPE] |216| 
        BCC       ||$C$L11||            ; [DPU_3_PIPE] |216| 
        ; BRANCHCC OCCURS {||$C$L11||}   ; [] |216| 
;* --------------------------------------------------------------------------*
	.dwpsn	file "../esp8266.c",line 217,column 3,is_stmt,isa 1
;----------------------------------------------------------------------
; 217 | GPIO_PORTB_AFSEL_R |= 0x03;                                            
;----------------------------------------------------------------------
        LDR       A2, $C$CON16          ; [DPU_3_PIPE] |217| 
        LDR       A1, [A2, #0]          ; [DPU_3_PIPE] |217| 
        ORR       A1, A1, #3            ; [DPU_3_PIPE] |217| 
        STR       A1, [A2, #0]          ; [DPU_3_PIPE] |217| 
	.dwpsn	file "../esp8266.c",line 218,column 3,is_stmt,isa 1
;----------------------------------------------------------------------
; 218 | GPIO_PORTB_DIR_R |= 0x20; // PB5 output to reset                       
;----------------------------------------------------------------------
        LDR       A2, $C$CON17          ; [DPU_3_PIPE] |218| 
        LDR       A1, [A2, #0]          ; [DPU_3_PIPE] |218| 
        ORR       A1, A1, #32           ; [DPU_3_PIPE] |218| 
        STR       A1, [A2, #0]          ; [DPU_3_PIPE] |218| 
	.dwpsn	file "../esp8266.c",line 219,column 3,is_stmt,isa 1
;----------------------------------------------------------------------
; 219 | GPIO_PORTB_PCTL_R =(GPIO_PORTB_PCTL_R&0xFF0FFF00)|0x00000011;          
;----------------------------------------------------------------------
        LDR       A2, $C$CON18          ; [DPU_3_PIPE] |219| 
        LDR       A1, $C$CON19          ; [DPU_3_PIPE] |219| 
        LDR       A3, [A2, #0]          ; [DPU_3_PIPE] |219| 
        LDR       A2, $C$CON18          ; [DPU_3_PIPE] |219| 
        ANDS      A1, A1, A3            ; [DPU_3_PIPE] |219| 
        ORR       A1, A1, #17           ; [DPU_3_PIPE] |219| 
        STR       A1, [A2, #0]          ; [DPU_3_PIPE] |219| 
	.dwpsn	file "../esp8266.c",line 220,column 3,is_stmt,isa 1
;----------------------------------------------------------------------
; 220 | GPIO_PORTB_DEN_R   |= 0x23; //23                                       
;----------------------------------------------------------------------
        LDR       A2, $C$CON20          ; [DPU_3_PIPE] |220| 
        LDR       A1, [A2, #0]          ; [DPU_3_PIPE] |220| 
        ORR       A1, A1, #35           ; [DPU_3_PIPE] |220| 
        STR       A1, [A2, #0]          ; [DPU_3_PIPE] |220| 
	.dwpsn	file "../esp8266.c",line 221,column 3,is_stmt,isa 1
;----------------------------------------------------------------------
; 221 | GPIO_PORTB_DATA_R |= 0x20; // reset high                               
;----------------------------------------------------------------------
        LDR       A2, $C$CON21          ; [DPU_3_PIPE] |221| 
        LDR       A1, [A2, #0]          ; [DPU_3_PIPE] |221| 
        ORR       A1, A1, #32           ; [DPU_3_PIPE] |221| 
        STR       A1, [A2, #0]          ; [DPU_3_PIPE] |221| 
	.dwpsn	file "../esp8266.c",line 222,column 3,is_stmt,isa 1
;----------------------------------------------------------------------
; 222 | UART1_CTL_R &= ~UART_CTL_UARTEN;                  // Clear UART1 enable
;     |  bit during config                                                     
;----------------------------------------------------------------------
        LDR       A2, $C$CON22          ; [DPU_3_PIPE] |222| 
        LDR       A1, [A2, #0]          ; [DPU_3_PIPE] |222| 
        BIC       A1, A1, #1            ; [DPU_3_PIPE] |222| 
        STR       A1, [A2, #0]          ; [DPU_3_PIPE] |222| 
	.dwpsn	file "../esp8266.c",line 223,column 3,is_stmt,isa 1
;----------------------------------------------------------------------
; 223 | UART1_IBRD_R = 5000000/baud;                                           
;----------------------------------------------------------------------
        LDR       A1, $C$CON24          ; [DPU_3_PIPE] |223| 
        LDR       A2, $C$CON23          ; [DPU_3_PIPE] |223| 
        LDR       A3, [SP, #0]          ; [DPU_3_PIPE] |223| 
        UDIV      A1, A1, A3            ; [DPU_3_PIPE] |223| 
        STR       A1, [A2, #0]          ; [DPU_3_PIPE] |223| 
	.dwpsn	file "../esp8266.c",line 224,column 3,is_stmt,isa 1
;----------------------------------------------------------------------
; 224 | UART1_FBRD_R = ((64*(5000000%baud))+baud/2)/baud;                      
; 225 |  // UART1_IBRD_R = 43;       // IBRD = int(80,000,000 / (16 * 115,200))
;     |  = int(43.403)                                                         
; 226 |  // UART1_FBRD_R = 26;       // FBRD = round(0.4028 * 64 ) = 26        
;----------------------------------------------------------------------
        LDR       A2, $C$CON24          ; [DPU_3_PIPE] |224| 
        LDR       A4, $C$CON25          ; [DPU_3_PIPE] |224| 
        LDR       V1, [SP, #0]          ; [DPU_3_PIPE] |224| 
        LDR       A3, [SP, #0]          ; [DPU_3_PIPE] |224| 
        LDR       V2, [SP, #0]          ; [DPU_3_PIPE] |224| 
        UDIV      A1, A2, V1            ; [DPU_3_PIPE] |224| 
        LSRS      A3, A3, #1            ; [DPU_3_PIPE] |224| 
        MULS      A1, A1, V1            ; [DPU_3_PIPE] |224| 
        SUBS      A2, A2, A1            ; [DPU_3_PIPE] |224| 
        ADD       A3, A3, A2, LSL #6    ; [DPU_3_PIPE] |224| 
        UDIV      A1, A3, V2            ; [DPU_3_PIPE] |224| 
        STR       A1, [A4, #0]          ; [DPU_3_PIPE] |224| 
	.dwpsn	file "../esp8266.c",line 228,column 3,is_stmt,isa 1
;----------------------------------------------------------------------
; 228 | UART1_LCRH_R = (UART_LCRH_WLEN_8|UART_LCRH_FEN);  // 8 bit word length,
;     |  1 stop, no parity, FIFOs enabled                                      
;----------------------------------------------------------------------
        LDR       A2, $C$CON26          ; [DPU_3_PIPE] |228| 
        MOVS      A1, #112              ; [DPU_3_PIPE] |228| 
        STR       A1, [A2, #0]          ; [DPU_3_PIPE] |228| 
	.dwpsn	file "../esp8266.c",line 229,column 3,is_stmt,isa 1
;----------------------------------------------------------------------
; 229 | UART1_IFLS_R &= ~0x3F;                            // Clear TX and RX in
;     | terrupt FIFO level fields                                              
;----------------------------------------------------------------------
        LDR       A2, $C$CON27          ; [DPU_3_PIPE] |229| 
        LDR       A1, [A2, #0]          ; [DPU_3_PIPE] |229| 
        BIC       A1, A1, #63           ; [DPU_3_PIPE] |229| 
        STR       A1, [A2, #0]          ; [DPU_3_PIPE] |229| 
	.dwpsn	file "../esp8266.c",line 230,column 3,is_stmt,isa 1
;----------------------------------------------------------------------
; 230 | UART1_IFLS_R += UART_IFLS_RX1_8 ;                 // RX FIFO interrupt
;     | threshold >= 1/8th full                                                
;----------------------------------------------------------------------
        LDR       A2, $C$CON27          ; [DPU_3_PIPE] |230| 
        LDR       A1, [A2, #0]          ; [DPU_3_PIPE] |230| 
        STR       A1, [A2, #0]          ; [DPU_3_PIPE] |230| 
	.dwpsn	file "../esp8266.c",line 231,column 3,is_stmt,isa 1
;----------------------------------------------------------------------
; 231 | UART1_IM_R  |= UART_IM_RXIM | UART_IM_RTIM;       // Enable interupt on
;     |  RX and RX transmission end                                            
;----------------------------------------------------------------------
        LDR       A2, $C$CON28          ; [DPU_3_PIPE] |231| 
        LDR       A1, [A2, #0]          ; [DPU_3_PIPE] |231| 
        ORR       A1, A1, #80           ; [DPU_3_PIPE] |231| 
        STR       A1, [A2, #0]          ; [DPU_3_PIPE] |231| 
	.dwpsn	file "../esp8266.c",line 232,column 3,is_stmt,isa 1
;----------------------------------------------------------------------
; 232 | UART1_CTL_R |= UART_CTL_UARTEN;                   // Set UART1 enable b
;     | it                                                                     
;----------------------------------------------------------------------
        LDR       A2, $C$CON22          ; [DPU_3_PIPE] |232| 
        LDR       A1, [A2, #0]          ; [DPU_3_PIPE] |232| 
        ORR       A1, A1, #1            ; [DPU_3_PIPE] |232| 
        STR       A1, [A2, #0]          ; [DPU_3_PIPE] |232| 
	.dwpsn	file "../esp8266.c",line 233,column 1,is_stmt,isa 1
$C$DW$78	.dwtag  DW_TAG_TI_branch
	.dwattr $C$DW$78, DW_AT_low_pc(0x00)
	.dwattr $C$DW$78, DW_AT_TI_return
        POP       {A2, A3, A4, V1, V2, PC} ; [DPU_3_PIPE] 
	.dwcfi	cfa_offset, 0
        ; BRANCH OCCURS                  ; [] 
	.dwattr $C$DW$73, DW_AT_TI_end_file("../esp8266.c")
	.dwattr $C$DW$73, DW_AT_TI_end_line(0xe9)
	.dwattr $C$DW$73, DW_AT_TI_end_column(0x01)
	.dwendentry
	.dwendtag $C$DW$73

	.sect	".text"
	.clink
	.thumbfunc UART1_Handler
	.thumb
	.global	UART1_Handler

$C$DW$79	.dwtag  DW_TAG_subprogram, DW_AT_name("UART1_Handler")
	.dwattr $C$DW$79, DW_AT_low_pc(UART1_Handler)
	.dwattr $C$DW$79, DW_AT_high_pc(0x00)
	.dwattr $C$DW$79, DW_AT_TI_symbol_name("UART1_Handler")
	.dwattr $C$DW$79, DW_AT_external
	.dwattr $C$DW$79, DW_AT_TI_begin_file("../esp8266.c")
	.dwattr $C$DW$79, DW_AT_TI_begin_line(0xed)
	.dwattr $C$DW$79, DW_AT_TI_begin_column(0x06)
	.dwattr $C$DW$79, DW_AT_decl_file("../esp8266.c")
	.dwattr $C$DW$79, DW_AT_decl_line(0xed)
	.dwattr $C$DW$79, DW_AT_decl_column(0x06)
	.dwattr $C$DW$79, DW_AT_TI_max_frame_size(0x08)
	.dwpsn	file "../esp8266.c",line 237,column 25,is_stmt,address UART1_Handler,isa 1

	.dwfde $C$DW$CIE, UART1_Handler
;----------------------------------------------------------------------
; 237 | void UART1_Handler(void){                                              
;----------------------------------------------------------------------

;*****************************************************************************
;* FUNCTION NAME: UART1_Handler                                              *
;*                                                                           *
;*   Regs Modified     : A1,A2,A3,A4,V9,SP,LR,SR,D0,D0_hi,D1,D1_hi,D2,D2_hi, *
;*                           D3,D3_hi,D4,D4_hi,D5,D5_hi,D6,D6_hi,D7,D7_hi,   *
;*                           FPEXC,FPSCR                                     *
;*   Regs Used         : A1,A2,A3,A4,V9,SP,LR,SR,D0,D0_hi,D1,D1_hi,D2,D2_hi, *
;*                           D3,D3_hi,D4,D4_hi,D5,D5_hi,D6,D6_hi,D7,D7_hi,   *
;*                           FPEXC,FPSCR                                     *
;*   Local Frame Size  : 0 Args + 0 Auto + 4 Save = 4 byte                   *
;*****************************************************************************
UART1_Handler:
;* --------------------------------------------------------------------------*
	.dwcfi	cfa_offset, 0
        PUSH      {A4, LR}              ; [DPU_3_PIPE] 
	.dwcfi	cfa_offset, 8
	.dwcfi	save_reg_to_mem, 14, -4
	.dwcfi	save_reg_to_mem, 3, -8
	.dwpsn	file "../esp8266.c",line 238,column 3,is_stmt,isa 1
;----------------------------------------------------------------------
; 238 | if(UART1_RIS_R & UART_RIS_RXRIS){   // rx fifo >= 1/8 full             
;----------------------------------------------------------------------
        LDR       A1, $C$CON29          ; [DPU_3_PIPE] |238| 
        LDR       A1, [A1, #0]          ; [DPU_3_PIPE] |238| 
        LSRS      A1, A1, #5            ; [DPU_3_PIPE] |238| 
        BCC       ||$C$L12||            ; [DPU_3_PIPE] |238| 
        ; BRANCHCC OCCURS {||$C$L12||}   ; [] |238| 
;* --------------------------------------------------------------------------*
	.dwpsn	file "../esp8266.c",line 239,column 5,is_stmt,isa 1
;----------------------------------------------------------------------
; 239 | UART1_ICR_R = UART_ICR_RXIC;      // acknowledge interrupt             
;----------------------------------------------------------------------
        LDR       A2, $C$CON30          ; [DPU_3_PIPE] |239| 
        MOVS      A1, #16               ; [DPU_3_PIPE] |239| 
        STR       A1, [A2, #0]          ; [DPU_3_PIPE] |239| 
	.dwpsn	file "../esp8266.c",line 240,column 5,is_stmt,isa 1
;----------------------------------------------------------------------
; 240 | ESP8266FIFOtoBuffer();                                                 
;----------------------------------------------------------------------
$C$DW$80	.dwtag  DW_TAG_TI_branch
	.dwattr $C$DW$80, DW_AT_low_pc(0x00)
	.dwattr $C$DW$80, DW_AT_name("ESP8266FIFOtoBuffer")
	.dwattr $C$DW$80, DW_AT_TI_call
        BL        ESP8266FIFOtoBuffer   ; [DPU_3_PIPE] |240| 
        ; CALL OCCURS {ESP8266FIFOtoBuffer }  ; [] |240| 
;* --------------------------------------------------------------------------*
||$C$L12||:    
	.dwpsn	file "../esp8266.c",line 242,column 3,is_stmt,isa 1
;----------------------------------------------------------------------
; 242 | if(UART1_RIS_R & UART_RIS_RTRIS){   // receiver timed out              
;----------------------------------------------------------------------
        LDR       A1, $C$CON29          ; [DPU_3_PIPE] |242| 
        LDR       A1, [A1, #0]          ; [DPU_3_PIPE] |242| 
        LSRS      A1, A1, #7            ; [DPU_3_PIPE] |242| 
        BCC       ||$C$L13||            ; [DPU_3_PIPE] |242| 
        ; BRANCHCC OCCURS {||$C$L13||}   ; [] |242| 
;* --------------------------------------------------------------------------*
	.dwpsn	file "../esp8266.c",line 243,column 5,is_stmt,isa 1
;----------------------------------------------------------------------
; 243 | UART1_ICR_R = UART_ICR_RTIC;      // acknowledge receiver time         
;----------------------------------------------------------------------
        LDR       A2, $C$CON30          ; [DPU_3_PIPE] |243| 
        MOVS      A1, #64               ; [DPU_3_PIPE] |243| 
        STR       A1, [A2, #0]          ; [DPU_3_PIPE] |243| 
	.dwpsn	file "../esp8266.c",line 244,column 5,is_stmt,isa 1
;----------------------------------------------------------------------
; 244 | ESP8266FIFOtoBuffer();                                                 
;----------------------------------------------------------------------
$C$DW$81	.dwtag  DW_TAG_TI_branch
	.dwattr $C$DW$81, DW_AT_low_pc(0x00)
	.dwattr $C$DW$81, DW_AT_name("ESP8266FIFOtoBuffer")
	.dwattr $C$DW$81, DW_AT_TI_call
        BL        ESP8266FIFOtoBuffer   ; [DPU_3_PIPE] |244| 
        ; CALL OCCURS {ESP8266FIFOtoBuffer }  ; [] |244| 
	.dwpsn	file "../esp8266.c",line 246,column 1,is_stmt,isa 1
;* --------------------------------------------------------------------------*
||$C$L13||:    
$C$DW$82	.dwtag  DW_TAG_TI_branch
	.dwattr $C$DW$82, DW_AT_low_pc(0x00)
	.dwattr $C$DW$82, DW_AT_TI_return
        POP       {A4, PC}              ; [DPU_3_PIPE] 
	.dwcfi	cfa_offset, 0
        ; BRANCH OCCURS                  ; [] 
	.dwattr $C$DW$79, DW_AT_TI_end_file("../esp8266.c")
	.dwattr $C$DW$79, DW_AT_TI_end_line(0xf6)
	.dwattr $C$DW$79, DW_AT_TI_end_column(0x01)
	.dwendentry
	.dwendtag $C$DW$79

	.sect	".text"
	.clink
	.thumbfunc ESP8266_EnableRXInterrupt
	.thumb
	.global	ESP8266_EnableRXInterrupt

$C$DW$83	.dwtag  DW_TAG_subprogram, DW_AT_name("ESP8266_EnableRXInterrupt")
	.dwattr $C$DW$83, DW_AT_low_pc(ESP8266_EnableRXInterrupt)
	.dwattr $C$DW$83, DW_AT_high_pc(0x00)
	.dwattr $C$DW$83, DW_AT_TI_symbol_name("ESP8266_EnableRXInterrupt")
	.dwattr $C$DW$83, DW_AT_external
	.dwattr $C$DW$83, DW_AT_TI_begin_file("../esp8266.c")
	.dwattr $C$DW$83, DW_AT_TI_begin_line(0xfb)
	.dwattr $C$DW$83, DW_AT_TI_begin_column(0x06)
	.dwattr $C$DW$83, DW_AT_decl_file("../esp8266.c")
	.dwattr $C$DW$83, DW_AT_decl_line(0xfb)
	.dwattr $C$DW$83, DW_AT_decl_column(0x06)
	.dwattr $C$DW$83, DW_AT_TI_max_frame_size(0x00)
	.dwpsn	file "../esp8266.c",line 251,column 37,is_stmt,address ESP8266_EnableRXInterrupt,isa 1

	.dwfde $C$DW$CIE, ESP8266_EnableRXInterrupt
;----------------------------------------------------------------------
; 251 | void ESP8266_EnableRXInterrupt(void){                                  
;----------------------------------------------------------------------

;*****************************************************************************
;* FUNCTION NAME: ESP8266_EnableRXInterrupt                                  *
;*                                                                           *
;*   Regs Modified     : A1,A2,SR                                            *
;*   Regs Used         : A1,A2,LR,SR                                         *
;*   Local Frame Size  : 0 Args + 0 Auto + 0 Save = 0 byte                   *
;*****************************************************************************
ESP8266_EnableRXInterrupt:
;* --------------------------------------------------------------------------*
	.dwcfi	cfa_offset, 0
	.dwpsn	file "../esp8266.c",line 252,column 3,is_stmt,isa 1
;----------------------------------------------------------------------
; 252 | NVIC_EN0_R = 1<<6; // interrupt 6                                      
;----------------------------------------------------------------------
        LDR       A2, $C$CON31          ; [DPU_3_PIPE] |252| 
        MOVS      A1, #64               ; [DPU_3_PIPE] |252| 
        STR       A1, [A2, #0]          ; [DPU_3_PIPE] |252| 
	.dwpsn	file "../esp8266.c",line 253,column 1,is_stmt,isa 1
$C$DW$84	.dwtag  DW_TAG_TI_branch
	.dwattr $C$DW$84, DW_AT_low_pc(0x00)
	.dwattr $C$DW$84, DW_AT_TI_return
        BX        LR                    ; [DPU_3_PIPE] 
        ; BRANCH OCCURS                  ; [] 
	.dwattr $C$DW$83, DW_AT_TI_end_file("../esp8266.c")
	.dwattr $C$DW$83, DW_AT_TI_end_line(0xfd)
	.dwattr $C$DW$83, DW_AT_TI_end_column(0x01)
	.dwendentry
	.dwendtag $C$DW$83

	.sect	".text"
	.clink
	.thumbfunc ESP8266_DisableRXInterrupt
	.thumb
	.global	ESP8266_DisableRXInterrupt

$C$DW$85	.dwtag  DW_TAG_subprogram, DW_AT_name("ESP8266_DisableRXInterrupt")
	.dwattr $C$DW$85, DW_AT_low_pc(ESP8266_DisableRXInterrupt)
	.dwattr $C$DW$85, DW_AT_high_pc(0x00)
	.dwattr $C$DW$85, DW_AT_TI_symbol_name("ESP8266_DisableRXInterrupt")
	.dwattr $C$DW$85, DW_AT_external
	.dwattr $C$DW$85, DW_AT_TI_begin_file("../esp8266.c")
	.dwattr $C$DW$85, DW_AT_TI_begin_line(0x103)
	.dwattr $C$DW$85, DW_AT_TI_begin_column(0x06)
	.dwattr $C$DW$85, DW_AT_decl_file("../esp8266.c")
	.dwattr $C$DW$85, DW_AT_decl_line(0x103)
	.dwattr $C$DW$85, DW_AT_decl_column(0x06)
	.dwattr $C$DW$85, DW_AT_TI_max_frame_size(0x00)
	.dwpsn	file "../esp8266.c",line 259,column 38,is_stmt,address ESP8266_DisableRXInterrupt,isa 1

	.dwfde $C$DW$CIE, ESP8266_DisableRXInterrupt
;----------------------------------------------------------------------
; 259 | void ESP8266_DisableRXInterrupt(void){                                 
;----------------------------------------------------------------------

;*****************************************************************************
;* FUNCTION NAME: ESP8266_DisableRXInterrupt                                 *
;*                                                                           *
;*   Regs Modified     : A1,A2,SR                                            *
;*   Regs Used         : A1,A2,LR,SR                                         *
;*   Local Frame Size  : 0 Args + 0 Auto + 0 Save = 0 byte                   *
;*****************************************************************************
ESP8266_DisableRXInterrupt:
;* --------------------------------------------------------------------------*
	.dwcfi	cfa_offset, 0
	.dwpsn	file "../esp8266.c",line 260,column 3,is_stmt,isa 1
;----------------------------------------------------------------------
; 260 | NVIC_DIS0_R = 1<<6; // interrupt 6                                     
;----------------------------------------------------------------------
        LDR       A2, $C$CON32          ; [DPU_3_PIPE] |260| 
        MOVS      A1, #64               ; [DPU_3_PIPE] |260| 
        STR       A1, [A2, #0]          ; [DPU_3_PIPE] |260| 
	.dwpsn	file "../esp8266.c",line 261,column 1,is_stmt,isa 1
$C$DW$86	.dwtag  DW_TAG_TI_branch
	.dwattr $C$DW$86, DW_AT_low_pc(0x00)
	.dwattr $C$DW$86, DW_AT_TI_return
        BX        LR                    ; [DPU_3_PIPE] 
        ; BRANCH OCCURS                  ; [] 
	.dwattr $C$DW$85, DW_AT_TI_end_file("../esp8266.c")
	.dwattr $C$DW$85, DW_AT_TI_end_line(0x105)
	.dwattr $C$DW$85, DW_AT_TI_end_column(0x01)
	.dwendentry
	.dwendtag $C$DW$85

	.sect	".text"
	.clink
	.thumbfunc ESP8266_PrintChar
	.thumb
	.global	ESP8266_PrintChar

$C$DW$87	.dwtag  DW_TAG_subprogram, DW_AT_name("ESP8266_PrintChar")
	.dwattr $C$DW$87, DW_AT_low_pc(ESP8266_PrintChar)
	.dwattr $C$DW$87, DW_AT_high_pc(0x00)
	.dwattr $C$DW$87, DW_AT_TI_symbol_name("ESP8266_PrintChar")
	.dwattr $C$DW$87, DW_AT_external
	.dwattr $C$DW$87, DW_AT_TI_begin_file("../esp8266.c")
	.dwattr $C$DW$87, DW_AT_TI_begin_line(0x10c)
	.dwattr $C$DW$87, DW_AT_TI_begin_column(0x06)
	.dwattr $C$DW$87, DW_AT_decl_file("../esp8266.c")
	.dwattr $C$DW$87, DW_AT_decl_line(0x10c)
	.dwattr $C$DW$87, DW_AT_decl_column(0x06)
	.dwattr $C$DW$87, DW_AT_TI_max_frame_size(0x08)
	.dwpsn	file "../esp8266.c",line 268,column 35,is_stmt,address ESP8266_PrintChar,isa 1

	.dwfde $C$DW$CIE, ESP8266_PrintChar
$C$DW$88	.dwtag  DW_TAG_formal_parameter, DW_AT_name("input")
	.dwattr $C$DW$88, DW_AT_TI_symbol_name("input")
	.dwattr $C$DW$88, DW_AT_type(*$C$DW$T$6)
	.dwattr $C$DW$88, DW_AT_location[DW_OP_reg0]

;*****************************************************************************
;* FUNCTION NAME: ESP8266_PrintChar                                          *
;*                                                                           *
;*   Regs Modified     : A1,A2,SP,SR                                         *
;*   Regs Used         : A1,A2,SP,LR,SR                                      *
;*   Local Frame Size  : 0 Args + 4 Auto + 0 Save = 4 byte                   *
;*****************************************************************************
ESP8266_PrintChar:
;* --------------------------------------------------------------------------*
	.dwcfi	cfa_offset, 0
        SUB       SP, SP, #8            ; [DPU_3_PIPE] 
	.dwcfi	cfa_offset, 8
$C$DW$89	.dwtag  DW_TAG_variable, DW_AT_name("input")
	.dwattr $C$DW$89, DW_AT_TI_symbol_name("input")
	.dwattr $C$DW$89, DW_AT_type(*$C$DW$T$6)
	.dwattr $C$DW$89, DW_AT_location[DW_OP_breg13 0]
;----------------------------------------------------------------------
; 268 | void ESP8266_PrintChar(char input){                                    
;----------------------------------------------------------------------
        STRB      A1, [SP, #0]          ; [DPU_3_PIPE] |268| 
	.dwpsn	file "../esp8266.c",line 269,column 3,is_stmt,isa 1
;----------------------------------------------------------------------
; 269 | while((UART1_FR_R&UART_FR_TXFF) != 0) {};                              
;----------------------------------------------------------------------
;* --------------------------------------------------------------------------*
;*   BEGIN LOOP ||$C$L14||
;*
;*   Loop source line                : 269
;*   Loop closing brace source line  : 269
;*   Known Minimum Trip Count        : 1
;*   Known Maximum Trip Count        : 4294967295
;*   Known Max Trip Count Factor     : 1
;* --------------------------------------------------------------------------*
||$C$L14||:    
	.dwpsn	file "../esp8266.c",line 269,column 9,is_stmt,isa 1
        LDR       A1, $C$CON33          ; [DPU_3_PIPE] |269| 
        LDR       A1, [A1, #0]          ; [DPU_3_PIPE] |269| 
        LSRS      A1, A1, #6            ; [DPU_3_PIPE] |269| 
        BCS       ||$C$L14||            ; [DPU_3_PIPE] |269| 
        ; BRANCHCC OCCURS {||$C$L14||}   ; [] |269| 
;* --------------------------------------------------------------------------*
	.dwpsn	file "../esp8266.c",line 270,column 3,is_stmt,isa 1
;----------------------------------------------------------------------
; 270 | UART1_DR_R = input;                                                    
; 271 | //  UART_OutChar(input); // echo debugging                             
;----------------------------------------------------------------------
        LDRB      A1, [SP, #0]          ; [DPU_3_PIPE] |270| 
        LDR       A2, $C$CON34          ; [DPU_3_PIPE] |270| 
        STR       A1, [A2, #0]          ; [DPU_3_PIPE] |270| 
	.dwpsn	file "../esp8266.c",line 272,column 1,is_stmt,isa 1
        ADD       SP, SP, #8            ; [DPU_3_PIPE] 
	.dwcfi	cfa_offset, 0
$C$DW$90	.dwtag  DW_TAG_TI_branch
	.dwattr $C$DW$90, DW_AT_low_pc(0x00)
	.dwattr $C$DW$90, DW_AT_TI_return
        BX        LR                    ; [DPU_3_PIPE] 
        ; BRANCH OCCURS                  ; [] 
	.dwattr $C$DW$87, DW_AT_TI_end_file("../esp8266.c")
	.dwattr $C$DW$87, DW_AT_TI_end_line(0x110)
	.dwattr $C$DW$87, DW_AT_TI_end_column(0x01)
	.dwendentry
	.dwendtag $C$DW$87

	.sect	".text"
	.clink
	.thumbfunc ESP8266FIFOtoBuffer
	.thumb
	.global	ESP8266FIFOtoBuffer

$C$DW$91	.dwtag  DW_TAG_subprogram, DW_AT_name("ESP8266FIFOtoBuffer")
	.dwattr $C$DW$91, DW_AT_low_pc(ESP8266FIFOtoBuffer)
	.dwattr $C$DW$91, DW_AT_high_pc(0x00)
	.dwattr $C$DW$91, DW_AT_TI_symbol_name("ESP8266FIFOtoBuffer")
	.dwattr $C$DW$91, DW_AT_external
	.dwattr $C$DW$91, DW_AT_TI_begin_file("../esp8266.c")
	.dwattr $C$DW$91, DW_AT_TI_begin_line(0x117)
	.dwattr $C$DW$91, DW_AT_TI_begin_column(0x06)
	.dwattr $C$DW$91, DW_AT_decl_file("../esp8266.c")
	.dwattr $C$DW$91, DW_AT_decl_line(0x117)
	.dwattr $C$DW$91, DW_AT_decl_column(0x06)
	.dwattr $C$DW$91, DW_AT_TI_max_frame_size(0x08)
	.dwpsn	file "../esp8266.c",line 279,column 31,is_stmt,address ESP8266FIFOtoBuffer,isa 1

	.dwfde $C$DW$CIE, ESP8266FIFOtoBuffer
;----------------------------------------------------------------------
; 279 | void ESP8266FIFOtoBuffer(void){                                        
; 280 | char letter;                                                           
;----------------------------------------------------------------------

;*****************************************************************************
;* FUNCTION NAME: ESP8266FIFOtoBuffer                                        *
;*                                                                           *
;*   Regs Modified     : A1,A2,A3,A4,V9,SP,LR,SR,D0,D0_hi,D1,D1_hi,D2,D2_hi, *
;*                           D3,D3_hi,D4,D4_hi,D5,D5_hi,D6,D6_hi,D7,D7_hi,   *
;*                           FPEXC,FPSCR                                     *
;*   Regs Used         : A1,A2,A3,A4,V9,SP,LR,SR,D0,D0_hi,D1,D1_hi,D2,D2_hi, *
;*                           D3,D3_hi,D4,D4_hi,D5,D5_hi,D6,D6_hi,D7,D7_hi,   *
;*                           FPEXC,FPSCR                                     *
;*   Local Frame Size  : 0 Args + 4 Auto + 4 Save = 8 byte                   *
;*****************************************************************************
ESP8266FIFOtoBuffer:
;* --------------------------------------------------------------------------*
	.dwcfi	cfa_offset, 0
        PUSH      {A4, LR}              ; [DPU_3_PIPE] 
	.dwcfi	cfa_offset, 8
	.dwcfi	save_reg_to_mem, 14, -4
	.dwcfi	save_reg_to_mem, 3, -8
$C$DW$92	.dwtag  DW_TAG_variable, DW_AT_name("letter")
	.dwattr $C$DW$92, DW_AT_TI_symbol_name("letter")
	.dwattr $C$DW$92, DW_AT_type(*$C$DW$T$6)
	.dwattr $C$DW$92, DW_AT_location[DW_OP_breg13 0]
	.dwpsn	file "../esp8266.c",line 281,column 3,is_stmt,isa 1
;----------------------------------------------------------------------
; 281 | while((UART1_FR_R&UART_FR_RXFE) == 0){                                 
;----------------------------------------------------------------------
        B         ||$C$L18||            ; [DPU_3_PIPE] |281| 
        ; BRANCH OCCURS {||$C$L18||}     ; [] |281| 
;* --------------------------------------------------------------------------*
||$C$L15||:    
	.dwpsn	file "../esp8266.c",line 282,column 5,is_stmt,isa 1
;----------------------------------------------------------------------
; 282 | letter = UART1_DR_R;        // retrieve char from FIFO                 
;----------------------------------------------------------------------
        LDR       A1, $C$CON34          ; [DPU_3_PIPE] |282| 
        LDR       A1, [A1, #0]          ; [DPU_3_PIPE] |282| 
        STRB      A1, [SP, #0]          ; [DPU_3_PIPE] |282| 
	.dwpsn	file "../esp8266.c",line 283,column 5,is_stmt,isa 1
;----------------------------------------------------------------------
; 283 | if(ESP8266_EchoResponse){                                              
;----------------------------------------------------------------------
        LDR       A1, $C$CON11          ; [DPU_3_PIPE] |283| 
        LDRB      A1, [A1, #0]          ; [DPU_3_PIPE] |283| 
        CBZ       A1, ||$C$L16||        ; [] 
        ; BRANCHCC OCCURS {||$C$L16||}   ; [] |283| 
;* --------------------------------------------------------------------------*
	.dwpsn	file "../esp8266.c",line 284,column 7,is_stmt,isa 1
;----------------------------------------------------------------------
; 284 | UART_OutCharNonBlock(letter); // echo                                  
;----------------------------------------------------------------------
        LDRB      A1, [SP, #0]          ; [DPU_3_PIPE] |284| 
$C$DW$93	.dwtag  DW_TAG_TI_branch
	.dwattr $C$DW$93, DW_AT_low_pc(0x00)
	.dwattr $C$DW$93, DW_AT_name("UART_OutCharNonBlock")
	.dwattr $C$DW$93, DW_AT_TI_call
        BL        UART_OutCharNonBlock  ; [DPU_3_PIPE] |284| 
        ; CALL OCCURS {UART_OutCharNonBlock }  ; [] |284| 
;* --------------------------------------------------------------------------*
||$C$L16||:    
	.dwpsn	file "../esp8266.c",line 286,column 5,is_stmt,isa 1
;----------------------------------------------------------------------
; 286 | if(RXBufferIndex >= BUFFER_SIZE){                                      
;----------------------------------------------------------------------
        LDR       A1, $C$CON35          ; [DPU_3_PIPE] |286| 
        LDR       A1, [A1, #0]          ; [DPU_3_PIPE] |286| 
        LSRS      A1, A1, #10           ; [DPU_3_PIPE] |286| 
        BEQ       ||$C$L17||            ; [DPU_3_PIPE] |286| 
        ; BRANCHCC OCCURS {||$C$L17||}   ; [] |286| 
;* --------------------------------------------------------------------------*
	.dwpsn	file "../esp8266.c",line 287,column 7,is_stmt,isa 1
;----------------------------------------------------------------------
; 287 | RXBufferIndex = 0; // store last BUFFER_SIZE received                  
;----------------------------------------------------------------------
        LDR       A2, $C$CON35          ; [DPU_3_PIPE] |287| 
        MOVS      A1, #0                ; [DPU_3_PIPE] |287| 
        STR       A1, [A2, #0]          ; [DPU_3_PIPE] |287| 
;* --------------------------------------------------------------------------*
||$C$L17||:    
	.dwpsn	file "../esp8266.c",line 289,column 5,is_stmt,isa 1
;----------------------------------------------------------------------
; 289 | RXBuffer[RXBufferIndex] = letter; // put char into buffer              
;----------------------------------------------------------------------
        LDR       A2, $C$CON35          ; [DPU_3_PIPE] |289| 
        LDR       A3, $C$CON36          ; [DPU_3_PIPE] |289| 
        LDRB      A1, [SP, #0]          ; [DPU_3_PIPE] |289| 
        LDR       A2, [A2, #0]          ; [DPU_3_PIPE] |289| 
        STRB      A1, [A3, +A2]         ; [DPU_3_PIPE] |289| 
	.dwpsn	file "../esp8266.c",line 290,column 5,is_stmt,isa 1
;----------------------------------------------------------------------
; 290 | RXBufferIndex++; // increment buffer index                             
;----------------------------------------------------------------------
        LDR       A2, $C$CON35          ; [DPU_3_PIPE] |290| 
        LDR       A1, [A2, #0]          ; [DPU_3_PIPE] |290| 
        ADDS      A1, A1, #1            ; [DPU_3_PIPE] |290| 
        STR       A1, [A2, #0]          ; [DPU_3_PIPE] |290| 
	.dwpsn	file "../esp8266.c",line 291,column 5,is_stmt,isa 1
;----------------------------------------------------------------------
; 291 | SearchCheck(letter);               // check for end of command         
;----------------------------------------------------------------------
        LDRB      A1, [SP, #0]          ; [DPU_3_PIPE] |291| 
$C$DW$94	.dwtag  DW_TAG_TI_branch
	.dwattr $C$DW$94, DW_AT_low_pc(0x00)
	.dwattr $C$DW$94, DW_AT_name("SearchCheck")
	.dwattr $C$DW$94, DW_AT_TI_call
        BL        SearchCheck           ; [DPU_3_PIPE] |291| 
        ; CALL OCCURS {SearchCheck }     ; [] |291| 
	.dwpsn	file "../esp8266.c",line 292,column 5,is_stmt,isa 1
;----------------------------------------------------------------------
; 292 | ServerResponseSearchCheck(letter); // check for server response        
;----------------------------------------------------------------------
        LDRB      A1, [SP, #0]          ; [DPU_3_PIPE] |292| 
$C$DW$95	.dwtag  DW_TAG_TI_branch
	.dwattr $C$DW$95, DW_AT_low_pc(0x00)
	.dwattr $C$DW$95, DW_AT_name("ServerResponseSearchCheck")
	.dwattr $C$DW$95, DW_AT_TI_call
        BL        ServerResponseSearchCheck ; [DPU_3_PIPE] |292| 
        ; CALL OCCURS {ServerResponseSearchCheck }  ; [] |292| 
	.dwpsn	file "../esp8266.c",line 293,column 5,is_stmt,isa 1
;----------------------------------------------------------------------
; 293 | if(letter == '\n'){                                                    
;----------------------------------------------------------------------
        LDRB      A1, [SP, #0]          ; [DPU_3_PIPE] |293| 
        CMP       A1, #10               ; [DPU_3_PIPE] |293| 
        BNE       ||$C$L18||            ; [DPU_3_PIPE] |293| 
        ; BRANCHCC OCCURS {||$C$L18||}   ; [] |293| 
;* --------------------------------------------------------------------------*
	.dwpsn	file "../esp8266.c",line 294,column 7,is_stmt,isa 1
;----------------------------------------------------------------------
; 294 | LastReturnIndex = CurrentReturnIndex;                                  
;----------------------------------------------------------------------
        LDR       A1, $C$CON38          ; [DPU_3_PIPE] |294| 
        LDR       A2, $C$CON37          ; [DPU_3_PIPE] |294| 
        LDR       A1, [A1, #0]          ; [DPU_3_PIPE] |294| 
        STR       A1, [A2, #0]          ; [DPU_3_PIPE] |294| 
	.dwpsn	file "../esp8266.c",line 295,column 7,is_stmt,isa 1
;----------------------------------------------------------------------
; 295 | CurrentReturnIndex = RXBufferIndex;                                    
;----------------------------------------------------------------------
        LDR       A1, $C$CON35          ; [DPU_3_PIPE] |295| 
        LDR       A2, $C$CON38          ; [DPU_3_PIPE] |295| 
        LDR       A1, [A1, #0]          ; [DPU_3_PIPE] |295| 
        STR       A1, [A2, #0]          ; [DPU_3_PIPE] |295| 
;* --------------------------------------------------------------------------*
;*   BEGIN LOOP ||$C$L18||
;* --------------------------------------------------------------------------*
||$C$L18||:    
	.dwpsn	file "../esp8266.c",line 281,column 9,is_stmt,isa 1
        LDR       A1, $C$CON33          ; [DPU_3_PIPE] |281| 
        LDR       A1, [A1, #0]          ; [DPU_3_PIPE] |281| 
        LSRS      A1, A1, #5            ; [DPU_3_PIPE] |281| 
        BCC       ||$C$L15||            ; [DPU_3_PIPE] |281| 
        ; BRANCHCC OCCURS {||$C$L15||}   ; [] |281| 
;* --------------------------------------------------------------------------*
	.dwpsn	file "../esp8266.c",line 298,column 1,is_stmt,isa 1
$C$DW$96	.dwtag  DW_TAG_TI_branch
	.dwattr $C$DW$96, DW_AT_low_pc(0x00)
	.dwattr $C$DW$96, DW_AT_TI_return
        POP       {A4, PC}              ; [DPU_3_PIPE] 
	.dwcfi	cfa_offset, 0
        ; BRANCH OCCURS                  ; [] 
	.dwattr $C$DW$91, DW_AT_TI_end_file("../esp8266.c")
	.dwattr $C$DW$91, DW_AT_TI_end_line(0x12a)
	.dwattr $C$DW$91, DW_AT_TI_end_column(0x01)
	.dwendentry
	.dwendtag $C$DW$91

;******************************************************************************
;* CONSTANT TABLE                                                             *
;******************************************************************************
	.sect	".text"
	.align	4
||$C$CON1||:	.bits	SearchString,32
	.sect	".text"
	.clink
	.thumbfunc ESP8266SendCommand
	.thumb
	.global	ESP8266SendCommand

$C$DW$97	.dwtag  DW_TAG_subprogram, DW_AT_name("ESP8266SendCommand")
	.dwattr $C$DW$97, DW_AT_low_pc(ESP8266SendCommand)
	.dwattr $C$DW$97, DW_AT_high_pc(0x00)
	.dwattr $C$DW$97, DW_AT_TI_symbol_name("ESP8266SendCommand")
	.dwattr $C$DW$97, DW_AT_external
	.dwattr $C$DW$97, DW_AT_TI_begin_file("../esp8266.c")
	.dwattr $C$DW$97, DW_AT_TI_begin_line(0x132)
	.dwattr $C$DW$97, DW_AT_TI_begin_column(0x06)
	.dwattr $C$DW$97, DW_AT_decl_file("../esp8266.c")
	.dwattr $C$DW$97, DW_AT_decl_line(0x132)
	.dwattr $C$DW$97, DW_AT_decl_column(0x06)
	.dwattr $C$DW$97, DW_AT_TI_max_frame_size(0x10)
	.dwpsn	file "../esp8266.c",line 306,column 49,is_stmt,address ESP8266SendCommand,isa 1

	.dwfde $C$DW$CIE, ESP8266SendCommand
$C$DW$98	.dwtag  DW_TAG_formal_parameter, DW_AT_name("inputString")
	.dwattr $C$DW$98, DW_AT_TI_symbol_name("inputString")
	.dwattr $C$DW$98, DW_AT_type(*$C$DW$T$42)
	.dwattr $C$DW$98, DW_AT_location[DW_OP_reg0]

;*****************************************************************************
;* FUNCTION NAME: ESP8266SendCommand                                         *
;*                                                                           *
;*   Regs Modified     : A1,A2,A3,A4,SP,LR,SR,FPEXC,FPSCR                    *
;*   Regs Used         : A1,A2,A3,A4,SP,LR,SR,FPEXC,FPSCR                    *
;*   Local Frame Size  : 0 Args + 8 Auto + 4 Save = 12 byte                  *
;*****************************************************************************
ESP8266SendCommand:
;* --------------------------------------------------------------------------*
	.dwcfi	cfa_offset, 0
        PUSH      {A2, A3, A4, LR}      ; [DPU_3_PIPE] 
	.dwcfi	cfa_offset, 16
	.dwcfi	save_reg_to_mem, 14, -4
	.dwcfi	save_reg_to_mem, 3, -8
	.dwcfi	save_reg_to_mem, 2, -12
	.dwcfi	save_reg_to_mem, 1, -16
$C$DW$99	.dwtag  DW_TAG_variable, DW_AT_name("inputString")
	.dwattr $C$DW$99, DW_AT_TI_symbol_name("inputString")
	.dwattr $C$DW$99, DW_AT_type(*$C$DW$T$42)
	.dwattr $C$DW$99, DW_AT_location[DW_OP_breg13 0]
$C$DW$100	.dwtag  DW_TAG_variable, DW_AT_name("index")
	.dwattr $C$DW$100, DW_AT_TI_symbol_name("index")
	.dwattr $C$DW$100, DW_AT_type(*$C$DW$T$10)
	.dwattr $C$DW$100, DW_AT_location[DW_OP_breg13 4]
;----------------------------------------------------------------------
; 306 | void ESP8266SendCommand(const char* inputString){                      
;----------------------------------------------------------------------
        STR       A1, [SP, #0]          ; [DPU_3_PIPE] |306| 
	.dwpsn	file "../esp8266.c",line 307,column 13,is_stmt,isa 1
;----------------------------------------------------------------------
; 307 | int index = 0;                                                         
;----------------------------------------------------------------------
        MOVS      A1, #0                ; [DPU_3_PIPE] |307| 
        STR       A1, [SP, #4]          ; [DPU_3_PIPE] |307| 
	.dwpsn	file "../esp8266.c",line 308,column 3,is_stmt,isa 1
;----------------------------------------------------------------------
; 308 | while(inputString[index] != 0){                                        
;----------------------------------------------------------------------
        B         ||$C$L20||            ; [DPU_3_PIPE] |308| 
        ; BRANCH OCCURS {||$C$L20||}     ; [] |308| 
;* --------------------------------------------------------------------------*
||$C$L19||:    
	.dwpsn	file "../esp8266.c",line 309,column 5,is_stmt,isa 1
;----------------------------------------------------------------------
; 309 | ESP8266_PrintChar(inputString[index++]);                               
;----------------------------------------------------------------------
        LDR       A1, [SP, #4]          ; [DPU_3_PIPE] |309| 
        LDR       A2, [SP, #0]          ; [DPU_3_PIPE] |309| 
        ADDS      A3, A1, #1            ; [DPU_3_PIPE] |309| 
        STR       A3, [SP, #4]          ; [DPU_3_PIPE] |309| 
        LDRB      A1, [A1, +A2]         ; [DPU_3_PIPE] |309| 
$C$DW$101	.dwtag  DW_TAG_TI_branch
	.dwattr $C$DW$101, DW_AT_low_pc(0x00)
	.dwattr $C$DW$101, DW_AT_name("ESP8266_PrintChar")
	.dwattr $C$DW$101, DW_AT_TI_call
        BL        ESP8266_PrintChar     ; [DPU_3_PIPE] |309| 
        ; CALL OCCURS {ESP8266_PrintChar }  ; [] |309| 
;* --------------------------------------------------------------------------*
;*   BEGIN LOOP ||$C$L20||
;* --------------------------------------------------------------------------*
||$C$L20||:    
	.dwpsn	file "../esp8266.c",line 308,column 9,is_stmt,isa 1
        LDR       A1, [SP, #0]          ; [DPU_3_PIPE] |308| 
        LDR       A2, [SP, #4]          ; [DPU_3_PIPE] |308| 
        LDRB      A1, [A2, +A1]         ; [DPU_3_PIPE] |308| 
        CMP       A1, #0                ; [DPU_3_PIPE] |308| 
        BNE       ||$C$L19||            ; [DPU_3_PIPE] |308| 
        ; BRANCHCC OCCURS {||$C$L19||}   ; [] |308| 
;* --------------------------------------------------------------------------*
	.dwpsn	file "../esp8266.c",line 311,column 1,is_stmt,isa 1
$C$DW$102	.dwtag  DW_TAG_TI_branch
	.dwattr $C$DW$102, DW_AT_low_pc(0x00)
	.dwattr $C$DW$102, DW_AT_TI_return
        POP       {A2, A3, A4, PC}      ; [DPU_3_PIPE] 
	.dwcfi	cfa_offset, 0
        ; BRANCH OCCURS                  ; [] 
	.dwattr $C$DW$97, DW_AT_TI_end_file("../esp8266.c")
	.dwattr $C$DW$97, DW_AT_TI_end_line(0x137)
	.dwattr $C$DW$97, DW_AT_TI_end_column(0x01)
	.dwendentry
	.dwendtag $C$DW$97

;******************************************************************************
;* CONSTANT TABLE                                                             *
;******************************************************************************
	.sect	".text"
	.align	4
||$C$CON2||:	.bits	SearchIndex,32
	.align	4
||$C$CON3||:	.bits	SearchFound,32
	.align	4
||$C$CON4||:	.bits	SearchLooking,32
	.sect	".text"
	.clink
	.thumbfunc DelayMs
	.thumb
	.global	DelayMs

$C$DW$103	.dwtag  DW_TAG_subprogram, DW_AT_name("DelayMs")
	.dwattr $C$DW$103, DW_AT_low_pc(DelayMs)
	.dwattr $C$DW$103, DW_AT_high_pc(0x00)
	.dwattr $C$DW$103, DW_AT_TI_symbol_name("DelayMs")
	.dwattr $C$DW$103, DW_AT_external
	.dwattr $C$DW$103, DW_AT_TI_begin_file("../esp8266.c")
	.dwattr $C$DW$103, DW_AT_TI_begin_line(0x13d)
	.dwattr $C$DW$103, DW_AT_TI_begin_column(0x06)
	.dwattr $C$DW$103, DW_AT_decl_file("../esp8266.c")
	.dwattr $C$DW$103, DW_AT_decl_line(0x13d)
	.dwattr $C$DW$103, DW_AT_decl_column(0x06)
	.dwattr $C$DW$103, DW_AT_TI_max_frame_size(0x08)
	.dwpsn	file "../esp8266.c",line 317,column 25,is_stmt,address DelayMs,isa 1

	.dwfde $C$DW$CIE, DelayMs
$C$DW$104	.dwtag  DW_TAG_formal_parameter, DW_AT_name("n")
	.dwattr $C$DW$104, DW_AT_TI_symbol_name("n")
	.dwattr $C$DW$104, DW_AT_type(*$C$DW$T$38)
	.dwattr $C$DW$104, DW_AT_location[DW_OP_reg0]

;*****************************************************************************
;* FUNCTION NAME: DelayMs                                                    *
;*                                                                           *
;*   Regs Modified     : A1,SP,SR                                            *
;*   Regs Used         : A1,SP,LR,SR                                         *
;*   Local Frame Size  : 0 Args + 8 Auto + 0 Save = 8 byte                   *
;*****************************************************************************
DelayMs:
;* --------------------------------------------------------------------------*
	.dwcfi	cfa_offset, 0
        SUB       SP, SP, #8            ; [DPU_3_PIPE] 
	.dwcfi	cfa_offset, 8
$C$DW$105	.dwtag  DW_TAG_variable, DW_AT_name("n")
	.dwattr $C$DW$105, DW_AT_TI_symbol_name("n")
	.dwattr $C$DW$105, DW_AT_type(*$C$DW$T$38)
	.dwattr $C$DW$105, DW_AT_location[DW_OP_breg13 0]
$C$DW$106	.dwtag  DW_TAG_variable, DW_AT_name("time")
	.dwattr $C$DW$106, DW_AT_TI_symbol_name("time")
	.dwattr $C$DW$106, DW_AT_type(*$C$DW$T$88)
	.dwattr $C$DW$106, DW_AT_location[DW_OP_breg13 4]
;----------------------------------------------------------------------
; 317 | void DelayMs(uint32_t n){                                              
; 318 | volatile uint32_t time;                                                
;----------------------------------------------------------------------
        STR       A1, [SP, #0]          ; [DPU_3_PIPE] |317| 
	.dwpsn	file "../esp8266.c",line 319,column 3,is_stmt,isa 1
;----------------------------------------------------------------------
; 319 | while(n){                                                              
;----------------------------------------------------------------------
        LDR       A1, [SP, #0]          ; [DPU_3_PIPE] |319| 
        CBZ       A1, ||$C$L24||        ; [] 
        ; BRANCHCC OCCURS {||$C$L24||}   ; [] |319| 
;* --------------------------------------------------------------------------*
;*   BEGIN LOOP ||$C$L21||
;*
;*   Loop source line                : 319
;*   Loop closing brace source line  : 325
;*   Known Minimum Trip Count        : 1
;*   Known Maximum Trip Count        : 4294967295
;*   Known Max Trip Count Factor     : 1
;* --------------------------------------------------------------------------*
||$C$L21||:    
	.dwpsn	file "../esp8266.c",line 320,column 5,is_stmt,isa 1
;----------------------------------------------------------------------
; 320 | time = 6665;  // 1msec, tuned at 80 MHz                                
;----------------------------------------------------------------------
        MOV       A1, #6665             ; [DPU_3_PIPE] |320| 
        STR       A1, [SP, #4]          ; [DPU_3_PIPE] |320| 
	.dwpsn	file "../esp8266.c",line 321,column 5,is_stmt,isa 1
;----------------------------------------------------------------------
; 321 | while(time){                                                           
;----------------------------------------------------------------------
        LDR       A1, [SP, #4]          ; [DPU_3_PIPE] |321| 
        CBZ       A1, ||$C$L23||        ; [] 
        ; BRANCHCC OCCURS {||$C$L23||}   ; [] |321| 
;* --------------------------------------------------------------------------*
;*   BEGIN LOOP ||$C$L22||
;*
;*   Loop source line                : 321
;*   Loop closing brace source line  : 323
;*   Known Minimum Trip Count        : 1
;*   Known Maximum Trip Count        : 4294967295
;*   Known Max Trip Count Factor     : 1
;* --------------------------------------------------------------------------*
||$C$L22||:    
	.dwpsn	file "../esp8266.c",line 322,column 7,is_stmt,isa 1
;----------------------------------------------------------------------
; 322 | time--;                                                                
;----------------------------------------------------------------------
        LDR       A1, [SP, #4]          ; [DPU_3_PIPE] |322| 
        SUBS      A1, A1, #1            ; [DPU_3_PIPE] |322| 
        STR       A1, [SP, #4]          ; [DPU_3_PIPE] |322| 
	.dwpsn	file "../esp8266.c",line 321,column 5,is_stmt,isa 1
        LDR       A1, [SP, #4]          ; [DPU_3_PIPE] |321| 
        CMP       A1, #0                ; [DPU_3_PIPE] |321| 
        BNE       ||$C$L22||            ; [DPU_3_PIPE] |321| 
        ; BRANCHCC OCCURS {||$C$L22||}   ; [] |321| 
;* --------------------------------------------------------------------------*
||$C$L23||:    
	.dwpsn	file "../esp8266.c",line 324,column 5,is_stmt,isa 1
;----------------------------------------------------------------------
; 324 | n--;                                                                   
;----------------------------------------------------------------------
        LDR       A1, [SP, #0]          ; [DPU_3_PIPE] |324| 
        SUBS      A1, A1, #1            ; [DPU_3_PIPE] |324| 
        STR       A1, [SP, #0]          ; [DPU_3_PIPE] |324| 
	.dwpsn	file "../esp8266.c",line 319,column 3,is_stmt,isa 1
        LDR       A1, [SP, #0]          ; [DPU_3_PIPE] |319| 
        CMP       A1, #0                ; [DPU_3_PIPE] |319| 
        BNE       ||$C$L21||            ; [DPU_3_PIPE] |319| 
        ; BRANCHCC OCCURS {||$C$L21||}   ; [] |319| 
;* --------------------------------------------------------------------------*
	.dwpsn	file "../esp8266.c",line 326,column 1,is_stmt,isa 1
;* --------------------------------------------------------------------------*
||$C$L24||:    
        ADD       SP, SP, #8            ; [DPU_3_PIPE] 
	.dwcfi	cfa_offset, 0
$C$DW$107	.dwtag  DW_TAG_TI_branch
	.dwattr $C$DW$107, DW_AT_low_pc(0x00)
	.dwattr $C$DW$107, DW_AT_TI_return
        BX        LR                    ; [DPU_3_PIPE] 
        ; BRANCH OCCURS                  ; [] 
	.dwattr $C$DW$103, DW_AT_TI_end_file("../esp8266.c")
	.dwattr $C$DW$103, DW_AT_TI_end_line(0x146)
	.dwattr $C$DW$103, DW_AT_TI_end_column(0x01)
	.dwendentry
	.dwendtag $C$DW$103

;******************************************************************************
;* STRINGS                                                                    *
;******************************************************************************
	.sect	".text"
	.align	4
||$C$SL1||:	.string	"+ipd,",0
;******************************************************************************
;* CONSTANT TABLE                                                             *
;******************************************************************************
	.sect	".text"
	.align	4
||$C$CON5||:	.bits	ServerResponseSearchString,32
	.align	4
||$C$CON6||:	.bits	ServerResponseSearchIndex,32
	.align	4
||$C$CON7||:	.bits	ServerResponseSearchLooking,32
	.align	4
||$C$CON8||:	.bits	ServerResponseSearchFinished,32
	.align	4
||$C$CON9||:	.bits	ServerResponseIndex,32
	.sect	".text"
	.clink
	.thumbfunc DelayMsSearching
	.thumb
	.global	DelayMsSearching

$C$DW$108	.dwtag  DW_TAG_subprogram, DW_AT_name("DelayMsSearching")
	.dwattr $C$DW$108, DW_AT_low_pc(DelayMsSearching)
	.dwattr $C$DW$108, DW_AT_high_pc(0x00)
	.dwattr $C$DW$108, DW_AT_TI_symbol_name("DelayMsSearching")
	.dwattr $C$DW$108, DW_AT_external
	.dwattr $C$DW$108, DW_AT_TI_begin_file("../esp8266.c")
	.dwattr $C$DW$108, DW_AT_TI_begin_line(0x147)
	.dwattr $C$DW$108, DW_AT_TI_begin_column(0x06)
	.dwattr $C$DW$108, DW_AT_decl_file("../esp8266.c")
	.dwattr $C$DW$108, DW_AT_decl_line(0x147)
	.dwattr $C$DW$108, DW_AT_decl_column(0x06)
	.dwattr $C$DW$108, DW_AT_TI_max_frame_size(0x08)
	.dwpsn	file "../esp8266.c",line 327,column 34,is_stmt,address DelayMsSearching,isa 1

	.dwfde $C$DW$CIE, DelayMsSearching
$C$DW$109	.dwtag  DW_TAG_formal_parameter, DW_AT_name("n")
	.dwattr $C$DW$109, DW_AT_TI_symbol_name("n")
	.dwattr $C$DW$109, DW_AT_type(*$C$DW$T$38)
	.dwattr $C$DW$109, DW_AT_location[DW_OP_reg0]

;*****************************************************************************
;* FUNCTION NAME: DelayMsSearching                                           *
;*                                                                           *
;*   Regs Modified     : A1,SP,SR                                            *
;*   Regs Used         : A1,SP,LR,SR                                         *
;*   Local Frame Size  : 0 Args + 8 Auto + 0 Save = 8 byte                   *
;*****************************************************************************
DelayMsSearching:
;* --------------------------------------------------------------------------*
	.dwcfi	cfa_offset, 0
        SUB       SP, SP, #8            ; [DPU_3_PIPE] 
	.dwcfi	cfa_offset, 8
$C$DW$110	.dwtag  DW_TAG_variable, DW_AT_name("n")
	.dwattr $C$DW$110, DW_AT_TI_symbol_name("n")
	.dwattr $C$DW$110, DW_AT_type(*$C$DW$T$38)
	.dwattr $C$DW$110, DW_AT_location[DW_OP_breg13 0]
$C$DW$111	.dwtag  DW_TAG_variable, DW_AT_name("time")
	.dwattr $C$DW$111, DW_AT_TI_symbol_name("time")
	.dwattr $C$DW$111, DW_AT_type(*$C$DW$T$88)
	.dwattr $C$DW$111, DW_AT_location[DW_OP_breg13 4]
;----------------------------------------------------------------------
; 327 | void DelayMsSearching(uint32_t n){                                     
; 328 | volatile uint32_t time;                                                
;----------------------------------------------------------------------
        STR       A1, [SP, #0]          ; [DPU_3_PIPE] |327| 
	.dwpsn	file "../esp8266.c",line 329,column 3,is_stmt,isa 1
;----------------------------------------------------------------------
; 329 | while(n){                                                              
;----------------------------------------------------------------------
        LDR       A1, [SP, #0]          ; [DPU_3_PIPE] |329| 
        CBZ       A1, ||$C$L28||        ; [] 
        ; BRANCHCC OCCURS {||$C$L28||}   ; [] |329| 
;* --------------------------------------------------------------------------*
;*   BEGIN LOOP ||$C$L25||
;*
;*   Loop source line                : 329
;*   Loop closing brace source line  : 336
;*   Known Minimum Trip Count        : 1
;*   Known Maximum Trip Count        : 4294967295
;*   Known Max Trip Count Factor     : 1
;* --------------------------------------------------------------------------*
||$C$L25||:    
	.dwpsn	file "../esp8266.c",line 330,column 5,is_stmt,isa 1
;----------------------------------------------------------------------
; 330 | time = 4065;  // 1msec, tuned at 80 MHz                                
;----------------------------------------------------------------------
        MOV       A1, #4065             ; [DPU_3_PIPE] |330| 
        STR       A1, [SP, #4]          ; [DPU_3_PIPE] |330| 
	.dwpsn	file "../esp8266.c",line 331,column 5,is_stmt,isa 1
;----------------------------------------------------------------------
; 331 | while(time){                                                           
;----------------------------------------------------------------------
        LDR       A1, [SP, #4]          ; [DPU_3_PIPE] |331| 
        CBZ       A1, ||$C$L27||        ; [] 
        ; BRANCHCC OCCURS {||$C$L27||}   ; [] |331| 
;* --------------------------------------------------------------------------*
;*   BEGIN LOOP ||$C$L26||
;*
;*   Loop source line                : 331
;*   Loop closing brace source line  : 334
;*   Known Minimum Trip Count        : 1
;*   Known Maximum Trip Count        : 4294967295
;*   Known Max Trip Count Factor     : 1
;* --------------------------------------------------------------------------*
||$C$L26||:    
	.dwpsn	file "../esp8266.c",line 332,column 7,is_stmt,isa 1
;----------------------------------------------------------------------
; 332 | time--;                                                                
;----------------------------------------------------------------------
        LDR       A1, [SP, #4]          ; [DPU_3_PIPE] |332| 
        SUBS      A1, A1, #1            ; [DPU_3_PIPE] |332| 
        STR       A1, [SP, #4]          ; [DPU_3_PIPE] |332| 
	.dwpsn	file "../esp8266.c",line 333,column 7,is_stmt,isa 1
;----------------------------------------------------------------------
; 333 | if(SearchFound) return;                                                
;----------------------------------------------------------------------
        LDR       A1, $C$CON39          ; [DPU_3_PIPE] |333| 
        LDRB      A1, [A1, #0]          ; [DPU_3_PIPE] |333| 
        CBNZ      A1, ||$C$L28||        ; [] 
        ; BRANCHCC OCCURS {||$C$L28||}   ; [] |333| 
;* --------------------------------------------------------------------------*
	.dwpsn	file "../esp8266.c",line 333,column 23,is_stmt,isa 1
	.dwpsn	file "../esp8266.c",line 331,column 5,is_stmt,isa 1
        LDR       A1, [SP, #4]          ; [DPU_3_PIPE] |331| 
        CMP       A1, #0                ; [DPU_3_PIPE] |331| 
        BNE       ||$C$L26||            ; [DPU_3_PIPE] |331| 
        ; BRANCHCC OCCURS {||$C$L26||}   ; [] |331| 
;* --------------------------------------------------------------------------*
||$C$L27||:    
	.dwpsn	file "../esp8266.c",line 335,column 5,is_stmt,isa 1
;----------------------------------------------------------------------
; 335 | n--;                                                                   
;----------------------------------------------------------------------
        LDR       A1, [SP, #0]          ; [DPU_3_PIPE] |335| 
        SUBS      A1, A1, #1            ; [DPU_3_PIPE] |335| 
        STR       A1, [SP, #0]          ; [DPU_3_PIPE] |335| 
	.dwpsn	file "../esp8266.c",line 329,column 3,is_stmt,isa 1
        LDR       A1, [SP, #0]          ; [DPU_3_PIPE] |329| 
        CMP       A1, #0                ; [DPU_3_PIPE] |329| 
        BNE       ||$C$L25||            ; [DPU_3_PIPE] |329| 
        ; BRANCHCC OCCURS {||$C$L25||}   ; [] |329| 
;* --------------------------------------------------------------------------*
	.dwpsn	file "../esp8266.c",line 337,column 1,is_stmt,isa 1
;* --------------------------------------------------------------------------*
||$C$L28||:    
        ADD       SP, SP, #8            ; [DPU_3_PIPE] 
	.dwcfi	cfa_offset, 0
$C$DW$112	.dwtag  DW_TAG_TI_branch
	.dwattr $C$DW$112, DW_AT_low_pc(0x00)
	.dwattr $C$DW$112, DW_AT_TI_return
        BX        LR                    ; [DPU_3_PIPE] 
        ; BRANCH OCCURS                  ; [] 
	.dwattr $C$DW$108, DW_AT_TI_end_file("../esp8266.c")
	.dwattr $C$DW$108, DW_AT_TI_end_line(0x151)
	.dwattr $C$DW$108, DW_AT_TI_end_column(0x01)
	.dwendentry
	.dwendtag $C$DW$108

;******************************************************************************
;* STRINGS                                                                    *
;******************************************************************************
	.sect	".text"
	.align	4
||$C$SL2||:	.string	13,10,"ok",13,10,0
;******************************************************************************
;* CONSTANT TABLE                                                             *
;******************************************************************************
	.sect	".text"
	.align	4
||$C$CON10||:	.bits	ServerResponseBuffer,32
	.align	4
||$C$CON12||:	.bits	1074783768,32
	.align	4
||$C$CON13||:	.bits	1074784792,32
	.align	4
||$C$CON14||:	.bits	1074783752,32
	.align	4
||$C$CON15||:	.bits	1074784776,32
	.align	4
||$C$CON16||:	.bits	1073763360,32
	.align	4
||$C$CON17||:	.bits	1073763328,32
	.align	4
||$C$CON18||:	.bits	1073763628,32
	.align	4
||$C$CON19||:	.bits	-15728896,32
	.align	4
||$C$CON20||:	.bits	1073763612,32
	.align	4
||$C$CON21||:	.bits	1073763324,32
	.align	4
||$C$CON22||:	.bits	1073795120,32
	.align	4
||$C$CON23||:	.bits	1073795108,32
	.align	4
||$C$CON24||:	.bits	5000000,32
	.align	4
||$C$CON25||:	.bits	1073795112,32
	.align	4
||$C$CON26||:	.bits	1073795116,32
	.align	4
||$C$CON27||:	.bits	1073795124,32
	.align	4
||$C$CON28||:	.bits	1073795128,32
	.align	4
||$C$CON29||:	.bits	1073795132,32
	.align	4
||$C$CON30||:	.bits	1073795140,32
	.align	4
||$C$CON31||:	.bits	-536813312,32
	.align	4
||$C$CON32||:	.bits	-536813184,32
	.align	4
||$C$CON33||:	.bits	1073795096,32
	.align	4
||$C$CON34||:	.bits	1073795072,32
	.align	4
||$C$CON35||:	.bits	RXBufferIndex,32
	.align	4
||$C$CON36||:	.bits	RXBuffer,32
	.align	4
||$C$CON37||:	.bits	LastReturnIndex,32
	.align	4
||$C$CON38||:	.bits	CurrentReturnIndex,32
	.sect	".text"
	.clink
	.thumbfunc ESP8266_Init
	.thumb
	.global	ESP8266_Init

$C$DW$113	.dwtag  DW_TAG_subprogram, DW_AT_name("ESP8266_Init")
	.dwattr $C$DW$113, DW_AT_low_pc(ESP8266_Init)
	.dwattr $C$DW$113, DW_AT_high_pc(0x00)
	.dwattr $C$DW$113, DW_AT_TI_symbol_name("ESP8266_Init")
	.dwattr $C$DW$113, DW_AT_external
	.dwattr $C$DW$113, DW_AT_TI_begin_file("../esp8266.c")
	.dwattr $C$DW$113, DW_AT_TI_begin_line(0x15c)
	.dwattr $C$DW$113, DW_AT_TI_begin_column(0x06)
	.dwattr $C$DW$113, DW_AT_decl_file("../esp8266.c")
	.dwattr $C$DW$113, DW_AT_decl_line(0x15c)
	.dwattr $C$DW$113, DW_AT_decl_column(0x06)
	.dwattr $C$DW$113, DW_AT_TI_max_frame_size(0x08)
	.dwpsn	file "../esp8266.c",line 348,column 33,is_stmt,address ESP8266_Init,isa 1

	.dwfde $C$DW$CIE, ESP8266_Init
$C$DW$114	.dwtag  DW_TAG_formal_parameter, DW_AT_name("baud")
	.dwattr $C$DW$114, DW_AT_TI_symbol_name("baud")
	.dwattr $C$DW$114, DW_AT_type(*$C$DW$T$38)
	.dwattr $C$DW$114, DW_AT_location[DW_OP_reg0]

;*****************************************************************************
;* FUNCTION NAME: ESP8266_Init                                               *
;*                                                                           *
;*   Regs Modified     : A1,A2,A3,A4,V9,SP,LR,SR,D0,D0_hi,D1,D1_hi,D2,D2_hi, *
;*                           D3,D3_hi,D4,D4_hi,D5,D5_hi,D6,D6_hi,D7,D7_hi,   *
;*                           FPEXC,FPSCR                                     *
;*   Regs Used         : A1,A2,A3,A4,V9,SP,LR,SR,D0,D0_hi,D1,D1_hi,D2,D2_hi, *
;*                           D3,D3_hi,D4,D4_hi,D5,D5_hi,D6,D6_hi,D7,D7_hi,   *
;*                           FPEXC,FPSCR                                     *
;*   Local Frame Size  : 0 Args + 4 Auto + 4 Save = 8 byte                   *
;*****************************************************************************
ESP8266_Init:
;* --------------------------------------------------------------------------*
	.dwcfi	cfa_offset, 0
        PUSH      {A4, LR}              ; [DPU_3_PIPE] 
	.dwcfi	cfa_offset, 8
	.dwcfi	save_reg_to_mem, 14, -4
	.dwcfi	save_reg_to_mem, 3, -8
$C$DW$115	.dwtag  DW_TAG_variable, DW_AT_name("baud")
	.dwattr $C$DW$115, DW_AT_TI_symbol_name("baud")
	.dwattr $C$DW$115, DW_AT_type(*$C$DW$T$38)
	.dwattr $C$DW$115, DW_AT_location[DW_OP_breg13 0]
;----------------------------------------------------------------------
; 348 | void ESP8266_Init(uint32_t baud){                                      
;----------------------------------------------------------------------
        STR       A1, [SP, #0]          ; [DPU_3_PIPE] |348| 
	.dwpsn	file "../esp8266.c",line 349,column 3,is_stmt,isa 1
;----------------------------------------------------------------------
; 349 | ESP8266_InitUART(baud,true); // baud rate, no echo to UART0            
;----------------------------------------------------------------------
        LDR       A1, [SP, #0]          ; [DPU_3_PIPE] |349| 
        MOVS      A2, #1                ; [DPU_3_PIPE] |349| 
$C$DW$116	.dwtag  DW_TAG_TI_branch
	.dwattr $C$DW$116, DW_AT_low_pc(0x00)
	.dwattr $C$DW$116, DW_AT_name("ESP8266_InitUART")
	.dwattr $C$DW$116, DW_AT_TI_call
        BL        ESP8266_InitUART      ; [DPU_3_PIPE] |349| 
        ; CALL OCCURS {ESP8266_InitUART }  ; [] |349| 
	.dwpsn	file "../esp8266.c",line 350,column 3,is_stmt,isa 1
;----------------------------------------------------------------------
; 350 | ESP8266_EnableRXInterrupt();                                           
;----------------------------------------------------------------------
$C$DW$117	.dwtag  DW_TAG_TI_branch
	.dwattr $C$DW$117, DW_AT_low_pc(0x00)
	.dwattr $C$DW$117, DW_AT_name("ESP8266_EnableRXInterrupt")
	.dwattr $C$DW$117, DW_AT_TI_call
        BL        ESP8266_EnableRXInterrupt ; [DPU_3_PIPE] |350| 
        ; CALL OCCURS {ESP8266_EnableRXInterrupt }  ; [] |350| 
	.dwpsn	file "../esp8266.c",line 351,column 3,is_stmt,isa 1
;----------------------------------------------------------------------
; 351 | SearchLooking = false;                                                 
;----------------------------------------------------------------------
        LDR       A2, $C$CON41          ; [DPU_3_PIPE] |351| 
        MOVS      A1, #0                ; [DPU_3_PIPE] |351| 
        STRB      A1, [A2, #0]          ; [DPU_3_PIPE] |351| 
	.dwpsn	file "../esp8266.c",line 352,column 3,is_stmt,isa 1
;----------------------------------------------------------------------
; 352 | SearchFound = false;                                                   
;----------------------------------------------------------------------
        LDR       A2, $C$CON39          ; [DPU_3_PIPE] |352| 
        MOVS      A1, #0                ; [DPU_3_PIPE] |352| 
        STRB      A1, [A2, #0]          ; [DPU_3_PIPE] |352| 
	.dwpsn	file "../esp8266.c",line 353,column 3,is_stmt,isa 1
;----------------------------------------------------------------------
; 353 | ServerResponseSearchLooking = 0; // not looking for "+IPD"             
;----------------------------------------------------------------------
        LDR       A2, $C$CON42          ; [DPU_3_PIPE] |353| 
        MOVS      A1, #0                ; [DPU_3_PIPE] |353| 
        STR       A1, [A2, #0]          ; [DPU_3_PIPE] |353| 
	.dwpsn	file "../esp8266.c",line 354,column 3,is_stmt,isa 1
;----------------------------------------------------------------------
; 354 | ServerResponseSearchFinished = 0;                                      
;----------------------------------------------------------------------
        LDR       A2, $C$CON43          ; [DPU_3_PIPE] |354| 
        MOVS      A1, #0                ; [DPU_3_PIPE] |354| 
        STR       A1, [A2, #0]          ; [DPU_3_PIPE] |354| 
	.dwpsn	file "../esp8266.c",line 355,column 3,is_stmt,isa 1
;----------------------------------------------------------------------
; 355 | EnableInterrupts();                                                    
; 356 | // step 1: AT+RST reset module                                         
;----------------------------------------------------------------------
$C$DW$118	.dwtag  DW_TAG_TI_branch
	.dwattr $C$DW$118, DW_AT_low_pc(0x00)
	.dwattr $C$DW$118, DW_AT_name("EnableInterrupts")
	.dwattr $C$DW$118, DW_AT_TI_call
        BL        EnableInterrupts      ; [DPU_3_PIPE] |355| 
        ; CALL OCCURS {EnableInterrupts }  ; [] |355| 
	.dwpsn	file "../esp8266.c",line 357,column 3,is_stmt,isa 1
;----------------------------------------------------------------------
; 357 | printf("ESP8266 Initialization:\n\r");                                 
;----------------------------------------------------------------------
        ADR       A1, $C$SL3            ; [DPU_3_PIPE] |357| 
$C$DW$119	.dwtag  DW_TAG_TI_branch
	.dwattr $C$DW$119, DW_AT_low_pc(0x00)
	.dwattr $C$DW$119, DW_AT_name("printf")
	.dwattr $C$DW$119, DW_AT_TI_call
        BL        printf                ; [DPU_3_PIPE] |357| 
        ; CALL OCCURS {printf }          ; [] |357| 
	.dwpsn	file "../esp8266.c",line 358,column 3,is_stmt,isa 1
;----------------------------------------------------------------------
; 358 | ESP8266_EchoResponse = true; // debugging                              
;----------------------------------------------------------------------
        LDR       A2, $C$CON11          ; [DPU_3_PIPE] |358| 
        MOVS      A1, #1                ; [DPU_3_PIPE] |358| 
        STRB      A1, [A2, #0]          ; [DPU_3_PIPE] |358| 
	.dwpsn	file "../esp8266.c",line 359,column 3,is_stmt,isa 1
;----------------------------------------------------------------------
; 359 | if(ESP8266_Reset()==0){                                                
;----------------------------------------------------------------------
$C$DW$120	.dwtag  DW_TAG_TI_branch
	.dwattr $C$DW$120, DW_AT_low_pc(0x00)
	.dwattr $C$DW$120, DW_AT_name("ESP8266_Reset")
	.dwattr $C$DW$120, DW_AT_TI_call
        BL        ESP8266_Reset         ; [DPU_3_PIPE] |359| 
        ; CALL OCCURS {ESP8266_Reset }   ; [] |359| 
        CBNZ      A1, ||$C$L30||        ; [] 
        ; BRANCHCC OCCURS {||$C$L30||}   ; [] |359| 
;* --------------------------------------------------------------------------*
	.dwpsn	file "../esp8266.c",line 360,column 5,is_stmt,isa 1
;----------------------------------------------------------------------
; 360 | printf("Reset failure, could not reset\n\r"); while(1){};              
;----------------------------------------------------------------------
        ADR       A1, $C$SL4            ; [DPU_3_PIPE] |360| 
$C$DW$121	.dwtag  DW_TAG_TI_branch
	.dwattr $C$DW$121, DW_AT_low_pc(0x00)
	.dwattr $C$DW$121, DW_AT_name("printf")
	.dwattr $C$DW$121, DW_AT_TI_call
        BL        printf                ; [DPU_3_PIPE] |360| 
        ; CALL OCCURS {printf }          ; [] |360| 
	.dwpsn	file "../esp8266.c",line 360,column 57,is_stmt,isa 1
;----------------------------------------------------------------------
; 362 | //  ESP8266SendCommand("AT+UART_CUR=115200,8,1,0,0\r\n");              
; 363 | //  UART_InChar();                                                     
; 365 | //  ESP8266_InitUART(115200,true);                                     
; 367 | // step 2: AT+CWMODE=1 set wifi mode to client (not an access point)   
;----------------------------------------------------------------------
;* --------------------------------------------------------------------------*
;*   BEGIN LOOP ||$C$L29||
;*
;*   Loop source line                : 360
;*   Loop closing brace source line  : 360
;*   Known Minimum Trip Count        : 1
;*   Known Maximum Trip Count        : 4294967295
;*   Known Max Trip Count Factor     : 1
;* --------------------------------------------------------------------------*
||$C$L29||:    
        B         ||$C$L29||            ; [DPU_3_PIPE] |360| 
        ; BRANCH OCCURS {||$C$L29||}     ; [] |360| 
;* --------------------------------------------------------------------------*
||$C$L30||:    
	.dwpsn	file "../esp8266.c",line 368,column 3,is_stmt,isa 1
;----------------------------------------------------------------------
; 368 | if(ESP8266_SetWifiMode(ESP8266_WIFI_MODE_CLIENT)==0){                  
;----------------------------------------------------------------------
        MOVS      A1, #1                ; [DPU_3_PIPE] |368| 
$C$DW$122	.dwtag  DW_TAG_TI_branch
	.dwattr $C$DW$122, DW_AT_low_pc(0x00)
	.dwattr $C$DW$122, DW_AT_name("ESP8266_SetWifiMode")
	.dwattr $C$DW$122, DW_AT_TI_call
        BL        ESP8266_SetWifiMode   ; [DPU_3_PIPE] |368| 
        ; CALL OCCURS {ESP8266_SetWifiMode }  ; [] |368| 
        CBNZ      A1, ||$C$L32||        ; [] 
        ; BRANCHCC OCCURS {||$C$L32||}   ; [] |368| 
;* --------------------------------------------------------------------------*
	.dwpsn	file "../esp8266.c",line 369,column 5,is_stmt,isa 1
;----------------------------------------------------------------------
; 369 | printf("SetWifiMode, could not set mode\n\r"); while(1){};             
;----------------------------------------------------------------------
        ADR       A1, $C$SL5            ; [DPU_3_PIPE] |369| 
$C$DW$123	.dwtag  DW_TAG_TI_branch
	.dwattr $C$DW$123, DW_AT_low_pc(0x00)
	.dwattr $C$DW$123, DW_AT_name("printf")
	.dwattr $C$DW$123, DW_AT_TI_call
        BL        printf                ; [DPU_3_PIPE] |369| 
        ; CALL OCCURS {printf }          ; [] |369| 
	.dwpsn	file "../esp8266.c",line 369,column 58,is_stmt,isa 1
;----------------------------------------------------------------------
; 371 | // step 3: AT+CWJAP="ValvanoAP","12345678"  connect to access point    
;----------------------------------------------------------------------
;* --------------------------------------------------------------------------*
;*   BEGIN LOOP ||$C$L31||
;*
;*   Loop source line                : 369
;*   Loop closing brace source line  : 369
;*   Known Minimum Trip Count        : 1
;*   Known Maximum Trip Count        : 4294967295
;*   Known Max Trip Count Factor     : 1
;* --------------------------------------------------------------------------*
||$C$L31||:    
        B         ||$C$L31||            ; [DPU_3_PIPE] |369| 
        ; BRANCH OCCURS {||$C$L31||}     ; [] |369| 
;******************************************************************************
;* CONSTANT TABLE                                                             *
;******************************************************************************
	.sect	".text"
	.align	4
||$C$CON11||:	.bits	ESP8266_EchoResponse,32
;* --------------------------------------------------------------------------*
||$C$L32||:    
	.dwpsn	file "../esp8266.c",line 372,column 3,is_stmt,isa 1
;----------------------------------------------------------------------
; 372 | if(ESP8266_JoinAccessPoint(SSID_NAME,PASSKEY)==0){                     
;----------------------------------------------------------------------
        ADR       A1, $C$SL6            ; [DPU_3_PIPE] |372| 
        ADR       A2, $C$SL7            ; [DPU_3_PIPE] |372| 
$C$DW$124	.dwtag  DW_TAG_TI_branch
	.dwattr $C$DW$124, DW_AT_low_pc(0x00)
	.dwattr $C$DW$124, DW_AT_name("ESP8266_JoinAccessPoint")
	.dwattr $C$DW$124, DW_AT_TI_call
        BL        ESP8266_JoinAccessPoint ; [DPU_3_PIPE] |372| 
        ; CALL OCCURS {ESP8266_JoinAccessPoint }  ; [] |372| 
        CBNZ      A1, ||$C$L34||        ; [] 
        ; BRANCHCC OCCURS {||$C$L34||}   ; [] |372| 
;* --------------------------------------------------------------------------*
	.dwpsn	file "../esp8266.c",line 373,column 5,is_stmt,isa 1
;----------------------------------------------------------------------
; 373 | printf("JoinAccessPoint error, could not join AP\n\r"); while(1){};    
;----------------------------------------------------------------------
        ADR       A1, $C$SL8            ; [DPU_3_PIPE] |373| 
$C$DW$125	.dwtag  DW_TAG_TI_branch
	.dwattr $C$DW$125, DW_AT_low_pc(0x00)
	.dwattr $C$DW$125, DW_AT_name("printf")
	.dwattr $C$DW$125, DW_AT_TI_call
        BL        printf                ; [DPU_3_PIPE] |373| 
        ; CALL OCCURS {printf }          ; [] |373| 
	.dwpsn	file "../esp8266.c",line 373,column 67,is_stmt,isa 1
;----------------------------------------------------------------------
; 375 | // optional step: AT+CIFSR check to see our IP address                 
;----------------------------------------------------------------------
;* --------------------------------------------------------------------------*
;*   BEGIN LOOP ||$C$L33||
;*
;*   Loop source line                : 373
;*   Loop closing brace source line  : 373
;*   Known Minimum Trip Count        : 1
;*   Known Maximum Trip Count        : 4294967295
;*   Known Max Trip Count Factor     : 1
;* --------------------------------------------------------------------------*
||$C$L33||:    
        B         ||$C$L33||            ; [DPU_3_PIPE] |373| 
        ; BRANCH OCCURS {||$C$L33||}     ; [] |373| 
;* --------------------------------------------------------------------------*
||$C$L34||:    
	.dwpsn	file "../esp8266.c",line 376,column 3,is_stmt,isa 1
;----------------------------------------------------------------------
; 376 | if(ESP8266_GetIPAddress()==0){ // data streamed to UART0, OK           
;----------------------------------------------------------------------
$C$DW$126	.dwtag  DW_TAG_TI_branch
	.dwattr $C$DW$126, DW_AT_low_pc(0x00)
	.dwattr $C$DW$126, DW_AT_name("ESP8266_GetIPAddress")
	.dwattr $C$DW$126, DW_AT_TI_call
        BL        ESP8266_GetIPAddress  ; [DPU_3_PIPE] |376| 
        ; CALL OCCURS {ESP8266_GetIPAddress }  ; [] |376| 
        CBNZ      A1, ||$C$L36||        ; [] 
        ; BRANCHCC OCCURS {||$C$L36||}   ; [] |376| 
;* --------------------------------------------------------------------------*
	.dwpsn	file "../esp8266.c",line 377,column 5,is_stmt,isa 1
;----------------------------------------------------------------------
; 377 | printf("GetIPAddress error, could not get IP address\n\r"); while(1){};
;----------------------------------------------------------------------
        ADR       A1, $C$SL9            ; [DPU_3_PIPE] |377| 
$C$DW$127	.dwtag  DW_TAG_TI_branch
	.dwattr $C$DW$127, DW_AT_low_pc(0x00)
	.dwattr $C$DW$127, DW_AT_name("printf")
	.dwattr $C$DW$127, DW_AT_TI_call
        BL        printf                ; [DPU_3_PIPE] |377| 
        ; CALL OCCURS {printf }          ; [] |377| 
	.dwpsn	file "../esp8266.c",line 377,column 71,is_stmt,isa 1
;----------------------------------------------------------------------
; 379 | //// optional step: AT+CIPMUX==0 set mode to single socket             
; 380 | //  if(ESP8266_SetConnectionMux(0)==0){ // single socket               
; 381 | //    printf("SetConnectionMux error, could not set connection mux\n\r"
;     | ); while(1){};                                                         
; 382 | //  }                                                                  
; 383 | // optional step: AT+CWLAP check to see other AP in area               
;----------------------------------------------------------------------
;* --------------------------------------------------------------------------*
;*   BEGIN LOOP ||$C$L35||
;*
;*   Loop source line                : 377
;*   Loop closing brace source line  : 377
;*   Known Minimum Trip Count        : 1
;*   Known Maximum Trip Count        : 4294967295
;*   Known Max Trip Count Factor     : 1
;* --------------------------------------------------------------------------*
||$C$L35||:    
        B         ||$C$L35||            ; [DPU_3_PIPE] |377| 
        ; BRANCH OCCURS {||$C$L35||}     ; [] |377| 
;* --------------------------------------------------------------------------*
||$C$L36||:    
	.dwpsn	file "../esp8266.c",line 384,column 3,is_stmt,isa 1
;----------------------------------------------------------------------
; 384 | if(ESP8266_ListAccessPoints()==0){                                     
;----------------------------------------------------------------------
$C$DW$128	.dwtag  DW_TAG_TI_branch
	.dwattr $C$DW$128, DW_AT_low_pc(0x00)
	.dwattr $C$DW$128, DW_AT_name("ESP8266_ListAccessPoints")
	.dwattr $C$DW$128, DW_AT_TI_call
        BL        ESP8266_ListAccessPoints ; [DPU_3_PIPE] |384| 
        ; CALL OCCURS {ESP8266_ListAccessPoints }  ; [] |384| 
        CBNZ      A1, ||$C$L38||        ; [] 
        ; BRANCHCC OCCURS {||$C$L38||}   ; [] |384| 
;* --------------------------------------------------------------------------*
	.dwpsn	file "../esp8266.c",line 385,column 5,is_stmt,isa 1
;----------------------------------------------------------------------
; 385 | printf("ListAccessPoints, could not list access points\n\r"); while(1){
;     | };                                                                     
;----------------------------------------------------------------------
        ADR       A1, $C$SL10           ; [DPU_3_PIPE] |385| 
$C$DW$129	.dwtag  DW_TAG_TI_branch
	.dwattr $C$DW$129, DW_AT_low_pc(0x00)
	.dwattr $C$DW$129, DW_AT_name("printf")
	.dwattr $C$DW$129, DW_AT_TI_call
        BL        printf                ; [DPU_3_PIPE] |385| 
        ; CALL OCCURS {printf }          ; [] |385| 
	.dwpsn	file "../esp8266.c",line 385,column 73,is_stmt,isa 1
;----------------------------------------------------------------------
; 387 | // step 4: AT+CIPMODE=0 set mode to not data mode                      
;----------------------------------------------------------------------
;* --------------------------------------------------------------------------*
;*   BEGIN LOOP ||$C$L37||
;*
;*   Loop source line                : 385
;*   Loop closing brace source line  : 385
;*   Known Minimum Trip Count        : 1
;*   Known Maximum Trip Count        : 4294967295
;*   Known Max Trip Count Factor     : 1
;* --------------------------------------------------------------------------*
||$C$L37||:    
        B         ||$C$L37||            ; [DPU_3_PIPE] |385| 
        ; BRANCH OCCURS {||$C$L37||}     ; [] |385| 
;* --------------------------------------------------------------------------*
||$C$L38||:    
	.dwpsn	file "../esp8266.c",line 388,column 3,is_stmt,isa 1
;----------------------------------------------------------------------
; 388 | if(ESP8266_SetDataTransmissionMode(0)==0){                             
;----------------------------------------------------------------------
        MOVS      A1, #0                ; [DPU_3_PIPE] |388| 
$C$DW$130	.dwtag  DW_TAG_TI_branch
	.dwattr $C$DW$130, DW_AT_low_pc(0x00)
	.dwattr $C$DW$130, DW_AT_name("ESP8266_SetDataTransmissionMode")
	.dwattr $C$DW$130, DW_AT_TI_call
        BL        ESP8266_SetDataTransmissionMode ; [DPU_3_PIPE] |388| 
        ; CALL OCCURS {ESP8266_SetDataTransmissionMode }  ; [] |388| 
        CBNZ      A1, ||$C$L40||        ; [] 
        ; BRANCHCC OCCURS {||$C$L40||}   ; [] |388| 
;* --------------------------------------------------------------------------*
	.dwpsn	file "../esp8266.c",line 389,column 5,is_stmt,isa 1
;----------------------------------------------------------------------
; 389 | printf("SetDataTransmissionMode, could not make connection\n\r"); while
;     | (1){};                                                                 
;----------------------------------------------------------------------
        ADR       A1, $C$SL11           ; [DPU_3_PIPE] |389| 
$C$DW$131	.dwtag  DW_TAG_TI_branch
	.dwattr $C$DW$131, DW_AT_low_pc(0x00)
	.dwattr $C$DW$131, DW_AT_name("printf")
	.dwattr $C$DW$131, DW_AT_TI_call
        BL        printf                ; [DPU_3_PIPE] |389| 
        ; CALL OCCURS {printf }          ; [] |389| 
	.dwpsn	file "../esp8266.c",line 389,column 77,is_stmt,isa 1
;* --------------------------------------------------------------------------*
;*   BEGIN LOOP ||$C$L39||
;*
;*   Loop source line                : 389
;*   Loop closing brace source line  : 389
;*   Known Minimum Trip Count        : 1
;*   Known Maximum Trip Count        : 4294967295
;*   Known Max Trip Count Factor     : 1
;* --------------------------------------------------------------------------*
||$C$L39||:    
        B         ||$C$L39||            ; [DPU_3_PIPE] |389| 
        ; BRANCH OCCURS {||$C$L39||}     ; [] |389| 
;* --------------------------------------------------------------------------*
||$C$L40||:    
	.dwpsn	file "../esp8266.c",line 391,column 3,is_stmt,isa 1
;----------------------------------------------------------------------
; 391 | ESP8266_InputProcessingEnabled = false; // not a server                
;----------------------------------------------------------------------
        LDR       A2, $C$CON40          ; [DPU_3_PIPE] |391| 
        MOVS      A1, #0                ; [DPU_3_PIPE] |391| 
        STRB      A1, [A2, #0]          ; [DPU_3_PIPE] |391| 
	.dwpsn	file "../esp8266.c",line 392,column 1,is_stmt,isa 1
$C$DW$132	.dwtag  DW_TAG_TI_branch
	.dwattr $C$DW$132, DW_AT_low_pc(0x00)
	.dwattr $C$DW$132, DW_AT_TI_return
        POP       {A4, PC}              ; [DPU_3_PIPE] 
	.dwcfi	cfa_offset, 0
        ; BRANCH OCCURS                  ; [] 
	.dwattr $C$DW$113, DW_AT_TI_end_file("../esp8266.c")
	.dwattr $C$DW$113, DW_AT_TI_end_line(0x188)
	.dwattr $C$DW$113, DW_AT_TI_end_column(0x01)
	.dwendentry
	.dwendtag $C$DW$113

	.sect	".text"
	.clink
	.thumbfunc ESP8266_Reset
	.thumb
	.global	ESP8266_Reset

$C$DW$133	.dwtag  DW_TAG_subprogram, DW_AT_name("ESP8266_Reset")
	.dwattr $C$DW$133, DW_AT_low_pc(ESP8266_Reset)
	.dwattr $C$DW$133, DW_AT_high_pc(0x00)
	.dwattr $C$DW$133, DW_AT_TI_symbol_name("ESP8266_Reset")
	.dwattr $C$DW$133, DW_AT_external
	.dwattr $C$DW$133, DW_AT_type(*$C$DW$T$10)
	.dwattr $C$DW$133, DW_AT_TI_begin_file("../esp8266.c")
	.dwattr $C$DW$133, DW_AT_TI_begin_line(0x18e)
	.dwattr $C$DW$133, DW_AT_TI_begin_column(0x05)
	.dwattr $C$DW$133, DW_AT_decl_file("../esp8266.c")
	.dwattr $C$DW$133, DW_AT_decl_line(0x18e)
	.dwattr $C$DW$133, DW_AT_decl_column(0x05)
	.dwattr $C$DW$133, DW_AT_TI_max_frame_size(0x08)
	.dwpsn	file "../esp8266.c",line 398,column 20,is_stmt,address ESP8266_Reset,isa 1

	.dwfde $C$DW$CIE, ESP8266_Reset

;*****************************************************************************
;* FUNCTION NAME: ESP8266_Reset                                              *
;*                                                                           *
;*   Regs Modified     : A1,A2,A3,A4,V9,SP,LR,SR,D0,D0_hi,D1,D1_hi,D2,D2_hi, *
;*                           D3,D3_hi,D4,D4_hi,D5,D5_hi,D6,D6_hi,D7,D7_hi,   *
;*                           FPEXC,FPSCR                                     *
;*   Regs Used         : A1,A2,A3,A4,V9,SP,LR,SR,D0,D0_hi,D1,D1_hi,D2,D2_hi, *
;*                           D3,D3_hi,D4,D4_hi,D5,D5_hi,D6,D6_hi,D7,D7_hi,   *
;*                           FPEXC,FPSCR                                     *
;*   Local Frame Size  : 0 Args + 4 Auto + 4 Save = 8 byte                   *
;*****************************************************************************
ESP8266_Reset:
;* --------------------------------------------------------------------------*
	.dwcfi	cfa_offset, 0
        PUSH      {A4, LR}              ; [DPU_3_PIPE] 
	.dwcfi	cfa_offset, 8
	.dwcfi	save_reg_to_mem, 14, -4
	.dwcfi	save_reg_to_mem, 3, -8
$C$DW$134	.dwtag  DW_TAG_variable, DW_AT_name("try")
	.dwattr $C$DW$134, DW_AT_TI_symbol_name("try")
	.dwattr $C$DW$134, DW_AT_type(*$C$DW$T$10)
	.dwattr $C$DW$134, DW_AT_location[DW_OP_breg13 0]
	.dwpsn	file "../esp8266.c",line 398,column 28,is_stmt,isa 1
;----------------------------------------------------------------------
; 398 | int ESP8266_Reset(){int try=MAXTRY;                                    
;----------------------------------------------------------------------
        MOVS      A1, #10               ; [DPU_3_PIPE] |398| 
        STR       A1, [SP, #0]          ; [DPU_3_PIPE] |398| 
	.dwpsn	file "../esp8266.c",line 399,column 3,is_stmt,isa 1
;----------------------------------------------------------------------
; 399 | SearchStart("ready");                                                  
;----------------------------------------------------------------------
        ADR       A1, $C$SL12           ; [DPU_3_PIPE] |399| 
$C$DW$135	.dwtag  DW_TAG_TI_branch
	.dwattr $C$DW$135, DW_AT_low_pc(0x00)
	.dwattr $C$DW$135, DW_AT_name("SearchStart")
	.dwattr $C$DW$135, DW_AT_TI_call
        BL        SearchStart           ; [DPU_3_PIPE] |399| 
        ; CALL OCCURS {SearchStart }     ; [] |399| 
	.dwpsn	file "../esp8266.c",line 400,column 3,is_stmt,isa 1
;----------------------------------------------------------------------
; 400 | while(try){                                                            
;----------------------------------------------------------------------
        LDR       A1, [SP, #0]          ; [DPU_3_PIPE] |400| 
        CBZ       A1, ||$C$L43||        ; [] 
        ; BRANCHCC OCCURS {||$C$L43||}   ; [] |400| 
;* --------------------------------------------------------------------------*
;*   BEGIN LOOP ||$C$L41||
;*
;*   Loop source line                : 400
;*   Loop closing brace source line  : 408
;*   Known Minimum Trip Count        : 1
;*   Known Maximum Trip Count        : 4294967295
;*   Known Max Trip Count Factor     : 1
;* --------------------------------------------------------------------------*
||$C$L41||:    
	.dwpsn	file "../esp8266.c",line 401,column 5,is_stmt,isa 1
;----------------------------------------------------------------------
; 401 | GPIO_PORTB_DATA_R &= ~0x20; // reset low                               
;----------------------------------------------------------------------
        LDR       A2, $C$CON44          ; [DPU_3_PIPE] |401| 
        LDR       A1, [A2, #0]          ; [DPU_3_PIPE] |401| 
        BIC       A1, A1, #32           ; [DPU_3_PIPE] |401| 
        STR       A1, [A2, #0]          ; [DPU_3_PIPE] |401| 
	.dwpsn	file "../esp8266.c",line 402,column 5,is_stmt,isa 1
;----------------------------------------------------------------------
; 402 | DelayMs(10);                                                           
;----------------------------------------------------------------------
        MOVS      A1, #10               ; [DPU_3_PIPE] |402| 
$C$DW$136	.dwtag  DW_TAG_TI_branch
	.dwattr $C$DW$136, DW_AT_low_pc(0x00)
	.dwattr $C$DW$136, DW_AT_name("DelayMs")
	.dwattr $C$DW$136, DW_AT_TI_call
        BL        DelayMs               ; [DPU_3_PIPE] |402| 
        ; CALL OCCURS {DelayMs }         ; [] |402| 
	.dwpsn	file "../esp8266.c",line 403,column 5,is_stmt,isa 1
;----------------------------------------------------------------------
; 403 | GPIO_PORTB_DATA_R |= 0x20; // reset high                               
;----------------------------------------------------------------------
        LDR       A2, $C$CON44          ; [DPU_3_PIPE] |403| 
        LDR       A1, [A2, #0]          ; [DPU_3_PIPE] |403| 
        ORR       A1, A1, #32           ; [DPU_3_PIPE] |403| 
        STR       A1, [A2, #0]          ; [DPU_3_PIPE] |403| 
	.dwpsn	file "../esp8266.c",line 404,column 5,is_stmt,isa 1
;----------------------------------------------------------------------
; 404 | ESP8266SendCommand("AT+RST\r\n");                                      
;----------------------------------------------------------------------
        ADR       A1, $C$SL13           ; [DPU_3_PIPE] |404| 
$C$DW$137	.dwtag  DW_TAG_TI_branch
	.dwattr $C$DW$137, DW_AT_low_pc(0x00)
	.dwattr $C$DW$137, DW_AT_name("ESP8266SendCommand")
	.dwattr $C$DW$137, DW_AT_TI_call
        BL        ESP8266SendCommand    ; [DPU_3_PIPE] |404| 
        ; CALL OCCURS {ESP8266SendCommand }  ; [] |404| 
	.dwpsn	file "../esp8266.c",line 405,column 5,is_stmt,isa 1
;----------------------------------------------------------------------
; 405 | DelayMsSearching(500);                                                 
;----------------------------------------------------------------------
        MOV       A1, #500              ; [DPU_3_PIPE] |405| 
$C$DW$138	.dwtag  DW_TAG_TI_branch
	.dwattr $C$DW$138, DW_AT_low_pc(0x00)
	.dwattr $C$DW$138, DW_AT_name("DelayMsSearching")
	.dwattr $C$DW$138, DW_AT_TI_call
        BL        DelayMsSearching      ; [DPU_3_PIPE] |405| 
        ; CALL OCCURS {DelayMsSearching }  ; [] |405| 
	.dwpsn	file "../esp8266.c",line 406,column 5,is_stmt,isa 1
;----------------------------------------------------------------------
; 406 | if(SearchFound) return 1; // success                                   
;----------------------------------------------------------------------
        LDR       A1, $C$CON39          ; [DPU_3_PIPE] |406| 
        LDRB      A1, [A1, #0]          ; [DPU_3_PIPE] |406| 
        CBZ       A1, ||$C$L42||        ; [] 
        ; BRANCHCC OCCURS {||$C$L42||}   ; [] |406| 
;* --------------------------------------------------------------------------*
	.dwpsn	file "../esp8266.c",line 406,column 21,is_stmt,isa 1
        MOVS      A1, #1                ; [DPU_3_PIPE] |406| 
        B         ||$C$L44||            ; [DPU_3_PIPE] |406| 
        ; BRANCH OCCURS {||$C$L44||}     ; [] |406| 
;* --------------------------------------------------------------------------*
||$C$L42||:    
	.dwpsn	file "../esp8266.c",line 407,column 5,is_stmt,isa 1
;----------------------------------------------------------------------
; 407 | try--;                                                                 
;----------------------------------------------------------------------
        LDR       A1, [SP, #0]          ; [DPU_3_PIPE] |407| 
        SUBS      A1, A1, #1            ; [DPU_3_PIPE] |407| 
        STR       A1, [SP, #0]          ; [DPU_3_PIPE] |407| 
	.dwpsn	file "../esp8266.c",line 400,column 3,is_stmt,isa 1
        LDR       A1, [SP, #0]          ; [DPU_3_PIPE] |400| 
        CMP       A1, #0                ; [DPU_3_PIPE] |400| 
        BNE       ||$C$L41||            ; [DPU_3_PIPE] |400| 
        ; BRANCHCC OCCURS {||$C$L41||}   ; [] |400| 
;* --------------------------------------------------------------------------*
||$C$L43||:    
	.dwpsn	file "../esp8266.c",line 409,column 3,is_stmt,isa 1
;----------------------------------------------------------------------
; 409 | return 0; // fail                                                      
;----------------------------------------------------------------------
        MOVS      A1, #0                ; [DPU_3_PIPE] |409| 
;* --------------------------------------------------------------------------*
||$C$L44||:    
	.dwpsn	file "../esp8266.c",line 410,column 1,is_stmt,isa 1
$C$DW$139	.dwtag  DW_TAG_TI_branch
	.dwattr $C$DW$139, DW_AT_low_pc(0x00)
	.dwattr $C$DW$139, DW_AT_TI_return
        POP       {A4, PC}              ; [DPU_3_PIPE] 
	.dwcfi	cfa_offset, 0
        ; BRANCH OCCURS                  ; [] 
	.dwattr $C$DW$133, DW_AT_TI_end_file("../esp8266.c")
	.dwattr $C$DW$133, DW_AT_TI_end_line(0x19a)
	.dwattr $C$DW$133, DW_AT_TI_end_column(0x01)
	.dwendentry
	.dwendtag $C$DW$133

	.sect	".text"
	.clink
	.thumbfunc ESP8266_SetWifiMode
	.thumb
	.global	ESP8266_SetWifiMode

$C$DW$140	.dwtag  DW_TAG_subprogram, DW_AT_name("ESP8266_SetWifiMode")
	.dwattr $C$DW$140, DW_AT_low_pc(ESP8266_SetWifiMode)
	.dwattr $C$DW$140, DW_AT_high_pc(0x00)
	.dwattr $C$DW$140, DW_AT_TI_symbol_name("ESP8266_SetWifiMode")
	.dwattr $C$DW$140, DW_AT_external
	.dwattr $C$DW$140, DW_AT_type(*$C$DW$T$10)
	.dwattr $C$DW$140, DW_AT_TI_begin_file("../esp8266.c")
	.dwattr $C$DW$140, DW_AT_TI_begin_line(0x1a1)
	.dwattr $C$DW$140, DW_AT_TI_begin_column(0x05)
	.dwattr $C$DW$140, DW_AT_decl_file("../esp8266.c")
	.dwattr $C$DW$140, DW_AT_decl_line(0x1a1)
	.dwattr $C$DW$140, DW_AT_decl_column(0x05)
	.dwattr $C$DW$140, DW_AT_TI_max_frame_size(0x10)
	.dwpsn	file "../esp8266.c",line 417,column 38,is_stmt,address ESP8266_SetWifiMode,isa 1

	.dwfde $C$DW$CIE, ESP8266_SetWifiMode
$C$DW$141	.dwtag  DW_TAG_formal_parameter, DW_AT_name("mode")
	.dwattr $C$DW$141, DW_AT_TI_symbol_name("mode")
	.dwattr $C$DW$141, DW_AT_type(*$C$DW$T$53)
	.dwattr $C$DW$141, DW_AT_location[DW_OP_reg0]

;*****************************************************************************
;* FUNCTION NAME: ESP8266_SetWifiMode                                        *
;*                                                                           *
;*   Regs Modified     : A1,A2,A3,A4,V9,SP,LR,SR,D0,D0_hi,D1,D1_hi,D2,D2_hi, *
;*                           D3,D3_hi,D4,D4_hi,D5,D5_hi,D6,D6_hi,D7,D7_hi,   *
;*                           FPEXC,FPSCR                                     *
;*   Regs Used         : A1,A2,A3,A4,V9,SP,LR,SR,D0,D0_hi,D1,D1_hi,D2,D2_hi, *
;*                           D3,D3_hi,D4,D4_hi,D5,D5_hi,D6,D6_hi,D7,D7_hi,   *
;*                           FPEXC,FPSCR                                     *
;*   Local Frame Size  : 0 Args + 8 Auto + 4 Save = 12 byte                  *
;*****************************************************************************
ESP8266_SetWifiMode:
;* --------------------------------------------------------------------------*
	.dwcfi	cfa_offset, 0
        PUSH      {A2, A3, A4, LR}      ; [DPU_3_PIPE] 
	.dwcfi	cfa_offset, 16
	.dwcfi	save_reg_to_mem, 14, -4
	.dwcfi	save_reg_to_mem, 3, -8
	.dwcfi	save_reg_to_mem, 2, -12
	.dwcfi	save_reg_to_mem, 1, -16
$C$DW$142	.dwtag  DW_TAG_variable, DW_AT_name("mode")
	.dwattr $C$DW$142, DW_AT_TI_symbol_name("mode")
	.dwattr $C$DW$142, DW_AT_type(*$C$DW$T$53)
	.dwattr $C$DW$142, DW_AT_location[DW_OP_breg13 0]
$C$DW$143	.dwtag  DW_TAG_variable, DW_AT_name("try")
	.dwattr $C$DW$143, DW_AT_TI_symbol_name("try")
	.dwattr $C$DW$143, DW_AT_type(*$C$DW$T$10)
	.dwattr $C$DW$143, DW_AT_location[DW_OP_breg13 4]
;----------------------------------------------------------------------
; 417 | int ESP8266_SetWifiMode(uint8_t mode){                                 
;----------------------------------------------------------------------
        STRB      A1, [SP, #0]          ; [DPU_3_PIPE] |417| 
	.dwpsn	file "../esp8266.c",line 418,column 10,is_stmt,isa 1
;----------------------------------------------------------------------
; 418 | int try=MAXTRY;                                                        
;----------------------------------------------------------------------
        MOVS      A1, #10               ; [DPU_3_PIPE] |418| 
        STR       A1, [SP, #4]          ; [DPU_3_PIPE] |418| 
	.dwpsn	file "../esp8266.c",line 419,column 3,is_stmt,isa 1
;----------------------------------------------------------------------
; 419 | if(mode > ESP8266_WIFI_MODE_AP_AND_CLIENT)return 0; // fail            
;----------------------------------------------------------------------
        LDRB      A1, [SP, #0]          ; [DPU_3_PIPE] |419| 
        CMP       A1, #3                ; [DPU_3_PIPE] |419| 
        BLE       ||$C$L45||            ; [DPU_3_PIPE] |419| 
        ; BRANCHCC OCCURS {||$C$L45||}   ; [] |419| 
;* --------------------------------------------------------------------------*
	.dwpsn	file "../esp8266.c",line 419,column 45,is_stmt,isa 1
        MOVS      A1, #0                ; [DPU_3_PIPE] |419| 
        B         ||$C$L49||            ; [DPU_3_PIPE] |419| 
        ; BRANCH OCCURS {||$C$L49||}     ; [] |419| 
;* --------------------------------------------------------------------------*
||$C$L45||:    
	.dwpsn	file "../esp8266.c",line 420,column 3,is_stmt,isa 1
;----------------------------------------------------------------------
; 420 | SearchStart("no change");                                              
;----------------------------------------------------------------------
        ADR       A1, $C$SL14           ; [DPU_3_PIPE] |420| 
$C$DW$144	.dwtag  DW_TAG_TI_branch
	.dwattr $C$DW$144, DW_AT_low_pc(0x00)
	.dwattr $C$DW$144, DW_AT_name("SearchStart")
	.dwattr $C$DW$144, DW_AT_TI_call
        BL        SearchStart           ; [DPU_3_PIPE] |420| 
        ; CALL OCCURS {SearchStart }     ; [] |420| 
	.dwpsn	file "../esp8266.c",line 421,column 3,is_stmt,isa 1
;----------------------------------------------------------------------
; 421 | while(try){                                                            
;----------------------------------------------------------------------
        LDR       A1, [SP, #4]          ; [DPU_3_PIPE] |421| 
        CBZ       A1, ||$C$L48||        ; [] 
        ; BRANCHCC OCCURS {||$C$L48||}   ; [] |421| 
;* --------------------------------------------------------------------------*
;*   BEGIN LOOP ||$C$L46||
;*
;*   Loop source line                : 421
;*   Loop closing brace source line  : 427
;*   Known Minimum Trip Count        : 1
;*   Known Maximum Trip Count        : 4294967295
;*   Known Max Trip Count Factor     : 1
;* --------------------------------------------------------------------------*
||$C$L46||:    
	.dwpsn	file "../esp8266.c",line 422,column 5,is_stmt,isa 1
;----------------------------------------------------------------------
; 422 | sprintf((char*)TXBuffer, "AT+CWMODE=%d\r\n", mode);                    
;----------------------------------------------------------------------
        LDRB      A3, [SP, #0]          ; [DPU_3_PIPE] |422| 
        LDR       A1, $C$CON45          ; [DPU_3_PIPE] |422| 
        ADR       A2, $C$SL15           ; [DPU_3_PIPE] |422| 
$C$DW$145	.dwtag  DW_TAG_TI_branch
	.dwattr $C$DW$145, DW_AT_low_pc(0x00)
	.dwattr $C$DW$145, DW_AT_name("sprintf")
	.dwattr $C$DW$145, DW_AT_TI_call
        BL        sprintf               ; [DPU_3_PIPE] |422| 
        ; CALL OCCURS {sprintf }         ; [] |422| 
	.dwpsn	file "../esp8266.c",line 423,column 5,is_stmt,isa 1
;----------------------------------------------------------------------
; 423 | ESP8266SendCommand((const char*)TXBuffer);                             
;----------------------------------------------------------------------
        LDR       A1, $C$CON45          ; [DPU_3_PIPE] |423| 
$C$DW$146	.dwtag  DW_TAG_TI_branch
	.dwattr $C$DW$146, DW_AT_low_pc(0x00)
	.dwattr $C$DW$146, DW_AT_name("ESP8266SendCommand")
	.dwattr $C$DW$146, DW_AT_TI_call
        BL        ESP8266SendCommand    ; [DPU_3_PIPE] |423| 
        ; CALL OCCURS {ESP8266SendCommand }  ; [] |423| 
	.dwpsn	file "../esp8266.c",line 424,column 5,is_stmt,isa 1
;----------------------------------------------------------------------
; 424 | DelayMsSearching(5000);                                                
;----------------------------------------------------------------------
        MOV       A1, #5000             ; [DPU_3_PIPE] |424| 
$C$DW$147	.dwtag  DW_TAG_TI_branch
	.dwattr $C$DW$147, DW_AT_low_pc(0x00)
	.dwattr $C$DW$147, DW_AT_name("DelayMsSearching")
	.dwattr $C$DW$147, DW_AT_TI_call
        BL        DelayMsSearching      ; [DPU_3_PIPE] |424| 
        ; CALL OCCURS {DelayMsSearching }  ; [] |424| 
	.dwpsn	file "../esp8266.c",line 425,column 5,is_stmt,isa 1
;----------------------------------------------------------------------
; 425 | if(SearchFound) return 1; // success                                   
;----------------------------------------------------------------------
        LDR       A1, $C$CON39          ; [DPU_3_PIPE] |425| 
        LDRB      A1, [A1, #0]          ; [DPU_3_PIPE] |425| 
        CBZ       A1, ||$C$L47||        ; [] 
        ; BRANCHCC OCCURS {||$C$L47||}   ; [] |425| 
;* --------------------------------------------------------------------------*
	.dwpsn	file "../esp8266.c",line 425,column 21,is_stmt,isa 1
        MOVS      A1, #1                ; [DPU_3_PIPE] |425| 
        B         ||$C$L49||            ; [DPU_3_PIPE] |425| 
        ; BRANCH OCCURS {||$C$L49||}     ; [] |425| 
;* --------------------------------------------------------------------------*
||$C$L47||:    
	.dwpsn	file "../esp8266.c",line 426,column 5,is_stmt,isa 1
;----------------------------------------------------------------------
; 426 | try--;                                                                 
;----------------------------------------------------------------------
        LDR       A1, [SP, #4]          ; [DPU_3_PIPE] |426| 
        SUBS      A1, A1, #1            ; [DPU_3_PIPE] |426| 
        STR       A1, [SP, #4]          ; [DPU_3_PIPE] |426| 
	.dwpsn	file "../esp8266.c",line 421,column 3,is_stmt,isa 1
        LDR       A1, [SP, #4]          ; [DPU_3_PIPE] |421| 
        CMP       A1, #0                ; [DPU_3_PIPE] |421| 
        BNE       ||$C$L46||            ; [DPU_3_PIPE] |421| 
        ; BRANCHCC OCCURS {||$C$L46||}   ; [] |421| 
;* --------------------------------------------------------------------------*
||$C$L48||:    
	.dwpsn	file "../esp8266.c",line 428,column 3,is_stmt,isa 1
;----------------------------------------------------------------------
; 428 | return 0; // fail                                                      
;----------------------------------------------------------------------
        MOVS      A1, #0                ; [DPU_3_PIPE] |428| 
;* --------------------------------------------------------------------------*
||$C$L49||:    
	.dwpsn	file "../esp8266.c",line 429,column 1,is_stmt,isa 1
$C$DW$148	.dwtag  DW_TAG_TI_branch
	.dwattr $C$DW$148, DW_AT_low_pc(0x00)
	.dwattr $C$DW$148, DW_AT_TI_return
        POP       {A2, A3, A4, PC}      ; [DPU_3_PIPE] 
	.dwcfi	cfa_offset, 0
        ; BRANCH OCCURS                  ; [] 
;******************************************************************************
;* CONSTANT TABLE                                                             *
;******************************************************************************
	.sect	".text"
	.align	4
||$C$CON39||:	.bits	SearchFound,32
	.dwattr $C$DW$140, DW_AT_TI_end_file("../esp8266.c")
	.dwattr $C$DW$140, DW_AT_TI_end_line(0x1ad)
	.dwattr $C$DW$140, DW_AT_TI_end_column(0x01)
	.dwendentry
	.dwendtag $C$DW$140

	.sect	".text"
	.clink
	.thumbfunc ESP8266_SetConnectionMux
	.thumb
	.global	ESP8266_SetConnectionMux

$C$DW$149	.dwtag  DW_TAG_subprogram, DW_AT_name("ESP8266_SetConnectionMux")
	.dwattr $C$DW$149, DW_AT_low_pc(ESP8266_SetConnectionMux)
	.dwattr $C$DW$149, DW_AT_high_pc(0x00)
	.dwattr $C$DW$149, DW_AT_TI_symbol_name("ESP8266_SetConnectionMux")
	.dwattr $C$DW$149, DW_AT_external
	.dwattr $C$DW$149, DW_AT_type(*$C$DW$T$10)
	.dwattr $C$DW$149, DW_AT_TI_begin_file("../esp8266.c")
	.dwattr $C$DW$149, DW_AT_TI_begin_line(0x1b3)
	.dwattr $C$DW$149, DW_AT_TI_begin_column(0x05)
	.dwattr $C$DW$149, DW_AT_decl_file("../esp8266.c")
	.dwattr $C$DW$149, DW_AT_decl_line(0x1b3)
	.dwattr $C$DW$149, DW_AT_decl_column(0x05)
	.dwattr $C$DW$149, DW_AT_TI_max_frame_size(0x10)
	.dwpsn	file "../esp8266.c",line 435,column 46,is_stmt,address ESP8266_SetConnectionMux,isa 1

	.dwfde $C$DW$CIE, ESP8266_SetConnectionMux
$C$DW$150	.dwtag  DW_TAG_formal_parameter, DW_AT_name("enabled")
	.dwattr $C$DW$150, DW_AT_TI_symbol_name("enabled")
	.dwattr $C$DW$150, DW_AT_type(*$C$DW$T$53)
	.dwattr $C$DW$150, DW_AT_location[DW_OP_reg0]

;*****************************************************************************
;* FUNCTION NAME: ESP8266_SetConnectionMux                                   *
;*                                                                           *
;*   Regs Modified     : A1,A2,A3,A4,V9,SP,LR,SR,D0,D0_hi,D1,D1_hi,D2,D2_hi, *
;*                           D3,D3_hi,D4,D4_hi,D5,D5_hi,D6,D6_hi,D7,D7_hi,   *
;*                           FPEXC,FPSCR                                     *
;*   Regs Used         : A1,A2,A3,A4,V9,SP,LR,SR,D0,D0_hi,D1,D1_hi,D2,D2_hi, *
;*                           D3,D3_hi,D4,D4_hi,D5,D5_hi,D6,D6_hi,D7,D7_hi,   *
;*                           FPEXC,FPSCR                                     *
;*   Local Frame Size  : 0 Args + 8 Auto + 4 Save = 12 byte                  *
;*****************************************************************************
ESP8266_SetConnectionMux:
;* --------------------------------------------------------------------------*
	.dwcfi	cfa_offset, 0
        PUSH      {A2, A3, A4, LR}      ; [DPU_3_PIPE] 
	.dwcfi	cfa_offset, 16
	.dwcfi	save_reg_to_mem, 14, -4
	.dwcfi	save_reg_to_mem, 3, -8
	.dwcfi	save_reg_to_mem, 2, -12
	.dwcfi	save_reg_to_mem, 1, -16
$C$DW$151	.dwtag  DW_TAG_variable, DW_AT_name("enabled")
	.dwattr $C$DW$151, DW_AT_TI_symbol_name("enabled")
	.dwattr $C$DW$151, DW_AT_type(*$C$DW$T$53)
	.dwattr $C$DW$151, DW_AT_location[DW_OP_breg13 0]
$C$DW$152	.dwtag  DW_TAG_variable, DW_AT_name("try")
	.dwattr $C$DW$152, DW_AT_TI_symbol_name("try")
	.dwattr $C$DW$152, DW_AT_type(*$C$DW$T$10)
	.dwattr $C$DW$152, DW_AT_location[DW_OP_breg13 4]
;----------------------------------------------------------------------
; 435 | int ESP8266_SetConnectionMux(uint8_t enabled){                         
;----------------------------------------------------------------------
        STRB      A1, [SP, #0]          ; [DPU_3_PIPE] |435| 
	.dwpsn	file "../esp8266.c",line 436,column 10,is_stmt,isa 1
;----------------------------------------------------------------------
; 436 | int try=MAXTRY;                                                        
;----------------------------------------------------------------------
        MOVS      A1, #10               ; [DPU_3_PIPE] |436| 
        STR       A1, [SP, #4]          ; [DPU_3_PIPE] |436| 
	.dwpsn	file "../esp8266.c",line 437,column 3,is_stmt,isa 1
;----------------------------------------------------------------------
; 437 | SearchStart("ok");                                                     
;----------------------------------------------------------------------
        ADR       A1, $C$SL16           ; [DPU_3_PIPE] |437| 
$C$DW$153	.dwtag  DW_TAG_TI_branch
	.dwattr $C$DW$153, DW_AT_low_pc(0x00)
	.dwattr $C$DW$153, DW_AT_name("SearchStart")
	.dwattr $C$DW$153, DW_AT_TI_call
        BL        SearchStart           ; [DPU_3_PIPE] |437| 
        ; CALL OCCURS {SearchStart }     ; [] |437| 
	.dwpsn	file "../esp8266.c",line 438,column 3,is_stmt,isa 1
;----------------------------------------------------------------------
; 438 | while(try){                                                            
;----------------------------------------------------------------------
        LDR       A1, [SP, #4]          ; [DPU_3_PIPE] |438| 
        CBZ       A1, ||$C$L52||        ; [] 
        ; BRANCHCC OCCURS {||$C$L52||}   ; [] |438| 
;* --------------------------------------------------------------------------*
;*   BEGIN LOOP ||$C$L50||
;*
;*   Loop source line                : 438
;*   Loop closing brace source line  : 444
;*   Known Minimum Trip Count        : 1
;*   Known Maximum Trip Count        : 4294967295
;*   Known Max Trip Count Factor     : 1
;* --------------------------------------------------------------------------*
||$C$L50||:    
	.dwpsn	file "../esp8266.c",line 439,column 5,is_stmt,isa 1
;----------------------------------------------------------------------
; 439 | sprintf((char*)TXBuffer, "AT+CIPMUX=%d\r\n", enabled);                 
;----------------------------------------------------------------------
        LDRB      A3, [SP, #0]          ; [DPU_3_PIPE] |439| 
        LDR       A1, $C$CON45          ; [DPU_3_PIPE] |439| 
        ADR       A2, $C$SL17           ; [DPU_3_PIPE] |439| 
$C$DW$154	.dwtag  DW_TAG_TI_branch
	.dwattr $C$DW$154, DW_AT_low_pc(0x00)
	.dwattr $C$DW$154, DW_AT_name("sprintf")
	.dwattr $C$DW$154, DW_AT_TI_call
        BL        sprintf               ; [DPU_3_PIPE] |439| 
        ; CALL OCCURS {sprintf }         ; [] |439| 
	.dwpsn	file "../esp8266.c",line 440,column 5,is_stmt,isa 1
;----------------------------------------------------------------------
; 440 | ESP8266SendCommand((const char*)TXBuffer);                             
;----------------------------------------------------------------------
        LDR       A1, $C$CON45          ; [DPU_3_PIPE] |440| 
$C$DW$155	.dwtag  DW_TAG_TI_branch
	.dwattr $C$DW$155, DW_AT_low_pc(0x00)
	.dwattr $C$DW$155, DW_AT_name("ESP8266SendCommand")
	.dwattr $C$DW$155, DW_AT_TI_call
        BL        ESP8266SendCommand    ; [DPU_3_PIPE] |440| 
        ; CALL OCCURS {ESP8266SendCommand }  ; [] |440| 
	.dwpsn	file "../esp8266.c",line 441,column 5,is_stmt,isa 1
;----------------------------------------------------------------------
; 441 | DelayMsSearching(5000);                                                
;----------------------------------------------------------------------
        MOV       A1, #5000             ; [DPU_3_PIPE] |441| 
$C$DW$156	.dwtag  DW_TAG_TI_branch
	.dwattr $C$DW$156, DW_AT_low_pc(0x00)
	.dwattr $C$DW$156, DW_AT_name("DelayMsSearching")
	.dwattr $C$DW$156, DW_AT_TI_call
        BL        DelayMsSearching      ; [DPU_3_PIPE] |441| 
        ; CALL OCCURS {DelayMsSearching }  ; [] |441| 
	.dwpsn	file "../esp8266.c",line 442,column 5,is_stmt,isa 1
;----------------------------------------------------------------------
; 442 | if(SearchFound) return 1; // success                                   
;----------------------------------------------------------------------
        LDR       A1, $C$CON46          ; [DPU_3_PIPE] |442| 
        LDRB      A1, [A1, #0]          ; [DPU_3_PIPE] |442| 
        CBZ       A1, ||$C$L51||        ; [] 
        ; BRANCHCC OCCURS {||$C$L51||}   ; [] |442| 
;* --------------------------------------------------------------------------*
	.dwpsn	file "../esp8266.c",line 442,column 21,is_stmt,isa 1
        MOVS      A1, #1                ; [DPU_3_PIPE] |442| 
        B         ||$C$L53||            ; [DPU_3_PIPE] |442| 
        ; BRANCH OCCURS {||$C$L53||}     ; [] |442| 
;* --------------------------------------------------------------------------*
||$C$L51||:    
	.dwpsn	file "../esp8266.c",line 443,column 5,is_stmt,isa 1
;----------------------------------------------------------------------
; 443 | try--;                                                                 
;----------------------------------------------------------------------
        LDR       A1, [SP, #4]          ; [DPU_3_PIPE] |443| 
        SUBS      A1, A1, #1            ; [DPU_3_PIPE] |443| 
        STR       A1, [SP, #4]          ; [DPU_3_PIPE] |443| 
	.dwpsn	file "../esp8266.c",line 438,column 3,is_stmt,isa 1
        LDR       A1, [SP, #4]          ; [DPU_3_PIPE] |438| 
        CMP       A1, #0                ; [DPU_3_PIPE] |438| 
        BNE       ||$C$L50||            ; [DPU_3_PIPE] |438| 
        ; BRANCHCC OCCURS {||$C$L50||}   ; [] |438| 
;* --------------------------------------------------------------------------*
||$C$L52||:    
	.dwpsn	file "../esp8266.c",line 445,column 3,is_stmt,isa 1
;----------------------------------------------------------------------
; 445 | return 0; // fail                                                      
;----------------------------------------------------------------------
        MOVS      A1, #0                ; [DPU_3_PIPE] |445| 
;* --------------------------------------------------------------------------*
||$C$L53||:    
	.dwpsn	file "../esp8266.c",line 446,column 1,is_stmt,isa 1
$C$DW$157	.dwtag  DW_TAG_TI_branch
	.dwattr $C$DW$157, DW_AT_low_pc(0x00)
	.dwattr $C$DW$157, DW_AT_TI_return
        POP       {A2, A3, A4, PC}      ; [DPU_3_PIPE] 
	.dwcfi	cfa_offset, 0
        ; BRANCH OCCURS                  ; [] 
	.dwattr $C$DW$149, DW_AT_TI_end_file("../esp8266.c")
	.dwattr $C$DW$149, DW_AT_TI_end_line(0x1be)
	.dwattr $C$DW$149, DW_AT_TI_end_column(0x01)
	.dwendentry
	.dwendtag $C$DW$149

;******************************************************************************
;* CONSTANT TABLE                                                             *
;******************************************************************************
	.sect	".text"
	.align	4
||$C$CON41||:	.bits	SearchLooking,32
	.align	4
||$C$CON42||:	.bits	ServerResponseSearchLooking,32
	.align	4
||$C$CON43||:	.bits	ServerResponseSearchFinished,32
	.sect	".text"
	.clink
	.thumbfunc ESP8266_JoinAccessPoint
	.thumb
	.global	ESP8266_JoinAccessPoint

$C$DW$158	.dwtag  DW_TAG_subprogram, DW_AT_name("ESP8266_JoinAccessPoint")
	.dwattr $C$DW$158, DW_AT_low_pc(ESP8266_JoinAccessPoint)
	.dwattr $C$DW$158, DW_AT_high_pc(0x00)
	.dwattr $C$DW$158, DW_AT_TI_symbol_name("ESP8266_JoinAccessPoint")
	.dwattr $C$DW$158, DW_AT_external
	.dwattr $C$DW$158, DW_AT_type(*$C$DW$T$10)
	.dwattr $C$DW$158, DW_AT_TI_begin_file("../esp8266.c")
	.dwattr $C$DW$158, DW_AT_TI_begin_line(0x1c4)
	.dwattr $C$DW$158, DW_AT_TI_begin_column(0x05)
	.dwattr $C$DW$158, DW_AT_decl_file("../esp8266.c")
	.dwattr $C$DW$158, DW_AT_decl_line(0x1c4)
	.dwattr $C$DW$158, DW_AT_decl_column(0x05)
	.dwattr $C$DW$158, DW_AT_TI_max_frame_size(0x10)
	.dwpsn	file "../esp8266.c",line 452,column 68,is_stmt,address ESP8266_JoinAccessPoint,isa 1

	.dwfde $C$DW$CIE, ESP8266_JoinAccessPoint
$C$DW$159	.dwtag  DW_TAG_formal_parameter, DW_AT_name("ssid")
	.dwattr $C$DW$159, DW_AT_TI_symbol_name("ssid")
	.dwattr $C$DW$159, DW_AT_type(*$C$DW$T$42)
	.dwattr $C$DW$159, DW_AT_location[DW_OP_reg0]
$C$DW$160	.dwtag  DW_TAG_formal_parameter, DW_AT_name("password")
	.dwattr $C$DW$160, DW_AT_TI_symbol_name("password")
	.dwattr $C$DW$160, DW_AT_type(*$C$DW$T$42)
	.dwattr $C$DW$160, DW_AT_location[DW_OP_reg1]

;*****************************************************************************
;* FUNCTION NAME: ESP8266_JoinAccessPoint                                    *
;*                                                                           *
;*   Regs Modified     : A1,A2,A3,A4,V9,SP,LR,SR,D0,D0_hi,D1,D1_hi,D2,D2_hi, *
;*                           D3,D3_hi,D4,D4_hi,D5,D5_hi,D6,D6_hi,D7,D7_hi,   *
;*                           FPEXC,FPSCR                                     *
;*   Regs Used         : A1,A2,A3,A4,V9,SP,LR,SR,D0,D0_hi,D1,D1_hi,D2,D2_hi, *
;*                           D3,D3_hi,D4,D4_hi,D5,D5_hi,D6,D6_hi,D7,D7_hi,   *
;*                           FPEXC,FPSCR                                     *
;*   Local Frame Size  : 0 Args + 12 Auto + 4 Save = 16 byte                 *
;*****************************************************************************
ESP8266_JoinAccessPoint:
;* --------------------------------------------------------------------------*
	.dwcfi	cfa_offset, 0
        PUSH      {A2, A3, A4, LR}      ; [DPU_3_PIPE] 
	.dwcfi	cfa_offset, 16
	.dwcfi	save_reg_to_mem, 14, -4
	.dwcfi	save_reg_to_mem, 3, -8
	.dwcfi	save_reg_to_mem, 2, -12
	.dwcfi	save_reg_to_mem, 1, -16
$C$DW$161	.dwtag  DW_TAG_variable, DW_AT_name("ssid")
	.dwattr $C$DW$161, DW_AT_TI_symbol_name("ssid")
	.dwattr $C$DW$161, DW_AT_type(*$C$DW$T$42)
	.dwattr $C$DW$161, DW_AT_location[DW_OP_breg13 0]
$C$DW$162	.dwtag  DW_TAG_variable, DW_AT_name("password")
	.dwattr $C$DW$162, DW_AT_TI_symbol_name("password")
	.dwattr $C$DW$162, DW_AT_type(*$C$DW$T$42)
	.dwattr $C$DW$162, DW_AT_location[DW_OP_breg13 4]
$C$DW$163	.dwtag  DW_TAG_variable, DW_AT_name("try")
	.dwattr $C$DW$163, DW_AT_TI_symbol_name("try")
	.dwattr $C$DW$163, DW_AT_type(*$C$DW$T$10)
	.dwattr $C$DW$163, DW_AT_location[DW_OP_breg13 8]
;----------------------------------------------------------------------
; 452 | int ESP8266_JoinAccessPoint(const char* ssid, const char* password){   
;----------------------------------------------------------------------
        STR       A2, [SP, #4]          ; [DPU_3_PIPE] |452| 
        STR       A1, [SP, #0]          ; [DPU_3_PIPE] |452| 
	.dwpsn	file "../esp8266.c",line 453,column 10,is_stmt,isa 1
;----------------------------------------------------------------------
; 453 | int try=MAXTRY;                                                        
;----------------------------------------------------------------------
        MOVS      A1, #10               ; [DPU_3_PIPE] |453| 
        STR       A1, [SP, #8]          ; [DPU_3_PIPE] |453| 
	.dwpsn	file "../esp8266.c",line 454,column 3,is_stmt,isa 1
;----------------------------------------------------------------------
; 454 | SearchStart("ok");                                                     
;----------------------------------------------------------------------
        ADR       A1, $C$SL16           ; [DPU_3_PIPE] |454| 
$C$DW$164	.dwtag  DW_TAG_TI_branch
	.dwattr $C$DW$164, DW_AT_low_pc(0x00)
	.dwattr $C$DW$164, DW_AT_name("SearchStart")
	.dwattr $C$DW$164, DW_AT_TI_call
        BL        SearchStart           ; [DPU_3_PIPE] |454| 
        ; CALL OCCURS {SearchStart }     ; [] |454| 
	.dwpsn	file "../esp8266.c",line 455,column 3,is_stmt,isa 1
;----------------------------------------------------------------------
; 455 | while(try){                                                            
;----------------------------------------------------------------------
        LDR       A1, [SP, #8]          ; [DPU_3_PIPE] |455| 
        CBZ       A1, ||$C$L56||        ; [] 
        ; BRANCHCC OCCURS {||$C$L56||}   ; [] |455| 
;* --------------------------------------------------------------------------*
;*   BEGIN LOOP ||$C$L54||
;*
;*   Loop source line                : 455
;*   Loop closing brace source line  : 461
;*   Known Minimum Trip Count        : 1
;*   Known Maximum Trip Count        : 4294967295
;*   Known Max Trip Count Factor     : 1
;* --------------------------------------------------------------------------*
||$C$L54||:    
	.dwpsn	file "../esp8266.c",line 456,column 5,is_stmt,isa 1
;----------------------------------------------------------------------
; 456 | sprintf((char*)TXBuffer, "AT+CWJAP=\"%s\",\"%s\"\r\n", ssid, password);
;----------------------------------------------------------------------
        LDR       A1, $C$CON45          ; [DPU_3_PIPE] |456| 
        LDR       A3, [SP, #0]          ; [DPU_3_PIPE] |456| 
        LDR       A4, [SP, #4]          ; [DPU_3_PIPE] |456| 
        ADR       A2, $C$SL18           ; [DPU_3_PIPE] |456| 
$C$DW$165	.dwtag  DW_TAG_TI_branch
	.dwattr $C$DW$165, DW_AT_low_pc(0x00)
	.dwattr $C$DW$165, DW_AT_name("sprintf")
	.dwattr $C$DW$165, DW_AT_TI_call
        BL        sprintf               ; [DPU_3_PIPE] |456| 
        ; CALL OCCURS {sprintf }         ; [] |456| 
	.dwpsn	file "../esp8266.c",line 457,column 5,is_stmt,isa 1
;----------------------------------------------------------------------
; 457 | ESP8266SendCommand((const char*)TXBuffer);                             
;----------------------------------------------------------------------
        LDR       A1, $C$CON45          ; [DPU_3_PIPE] |457| 
$C$DW$166	.dwtag  DW_TAG_TI_branch
	.dwattr $C$DW$166, DW_AT_low_pc(0x00)
	.dwattr $C$DW$166, DW_AT_name("ESP8266SendCommand")
	.dwattr $C$DW$166, DW_AT_TI_call
        BL        ESP8266SendCommand    ; [DPU_3_PIPE] |457| 
        ; CALL OCCURS {ESP8266SendCommand }  ; [] |457| 
	.dwpsn	file "../esp8266.c",line 458,column 5,is_stmt,isa 1
;----------------------------------------------------------------------
; 458 | DelayMsSearching(4000);                                                
;----------------------------------------------------------------------
        MOV       A1, #4000             ; [DPU_3_PIPE] |458| 
$C$DW$167	.dwtag  DW_TAG_TI_branch
	.dwattr $C$DW$167, DW_AT_low_pc(0x00)
	.dwattr $C$DW$167, DW_AT_name("DelayMsSearching")
	.dwattr $C$DW$167, DW_AT_TI_call
        BL        DelayMsSearching      ; [DPU_3_PIPE] |458| 
        ; CALL OCCURS {DelayMsSearching }  ; [] |458| 
	.dwpsn	file "../esp8266.c",line 459,column 5,is_stmt,isa 1
;----------------------------------------------------------------------
; 459 | if(SearchFound) return 1; // success                                   
;----------------------------------------------------------------------
        LDR       A1, $C$CON46          ; [DPU_3_PIPE] |459| 
        LDRB      A1, [A1, #0]          ; [DPU_3_PIPE] |459| 
        CBZ       A1, ||$C$L55||        ; [] 
        ; BRANCHCC OCCURS {||$C$L55||}   ; [] |459| 
;* --------------------------------------------------------------------------*
	.dwpsn	file "../esp8266.c",line 459,column 21,is_stmt,isa 1
        MOVS      A1, #1                ; [DPU_3_PIPE] |459| 
        B         ||$C$L57||            ; [DPU_3_PIPE] |459| 
        ; BRANCH OCCURS {||$C$L57||}     ; [] |459| 
;* --------------------------------------------------------------------------*
||$C$L55||:    
	.dwpsn	file "../esp8266.c",line 460,column 5,is_stmt,isa 1
;----------------------------------------------------------------------
; 460 | try--;                                                                 
;----------------------------------------------------------------------
        LDR       A1, [SP, #8]          ; [DPU_3_PIPE] |460| 
        SUBS      A1, A1, #1            ; [DPU_3_PIPE] |460| 
        STR       A1, [SP, #8]          ; [DPU_3_PIPE] |460| 
	.dwpsn	file "../esp8266.c",line 455,column 3,is_stmt,isa 1
        LDR       A1, [SP, #8]          ; [DPU_3_PIPE] |455| 
        CMP       A1, #0                ; [DPU_3_PIPE] |455| 
        BNE       ||$C$L54||            ; [DPU_3_PIPE] |455| 
        ; BRANCHCC OCCURS {||$C$L54||}   ; [] |455| 
;* --------------------------------------------------------------------------*
||$C$L56||:    
	.dwpsn	file "../esp8266.c",line 462,column 3,is_stmt,isa 1
;----------------------------------------------------------------------
; 462 | return 0; // fail                                                      
;----------------------------------------------------------------------
        MOVS      A1, #0                ; [DPU_3_PIPE] |462| 
;* --------------------------------------------------------------------------*
||$C$L57||:    
	.dwpsn	file "../esp8266.c",line 463,column 1,is_stmt,isa 1
$C$DW$168	.dwtag  DW_TAG_TI_branch
	.dwattr $C$DW$168, DW_AT_low_pc(0x00)
	.dwattr $C$DW$168, DW_AT_TI_return
        POP       {A2, A3, A4, PC}      ; [DPU_3_PIPE] 
	.dwcfi	cfa_offset, 0
        ; BRANCH OCCURS                  ; [] 
	.dwattr $C$DW$158, DW_AT_TI_end_file("../esp8266.c")
	.dwattr $C$DW$158, DW_AT_TI_end_line(0x1cf)
	.dwattr $C$DW$158, DW_AT_TI_end_column(0x01)
	.dwendentry
	.dwendtag $C$DW$158

;******************************************************************************
;* CONSTANT TABLE                                                             *
;******************************************************************************
	.sect	".text"
	.align	4
||$C$CON40||:	.bits	ESP8266_InputProcessingEnabled,32
	.sect	".text"
	.clink
	.thumbfunc ESP8266_ListAccessPoints
	.thumb
	.global	ESP8266_ListAccessPoints

$C$DW$169	.dwtag  DW_TAG_subprogram, DW_AT_name("ESP8266_ListAccessPoints")
	.dwattr $C$DW$169, DW_AT_low_pc(ESP8266_ListAccessPoints)
	.dwattr $C$DW$169, DW_AT_high_pc(0x00)
	.dwattr $C$DW$169, DW_AT_TI_symbol_name("ESP8266_ListAccessPoints")
	.dwattr $C$DW$169, DW_AT_external
	.dwattr $C$DW$169, DW_AT_type(*$C$DW$T$10)
	.dwattr $C$DW$169, DW_AT_TI_begin_file("../esp8266.c")
	.dwattr $C$DW$169, DW_AT_TI_begin_line(0x1d5)
	.dwattr $C$DW$169, DW_AT_TI_begin_column(0x05)
	.dwattr $C$DW$169, DW_AT_decl_file("../esp8266.c")
	.dwattr $C$DW$169, DW_AT_decl_line(0x1d5)
	.dwattr $C$DW$169, DW_AT_decl_column(0x05)
	.dwattr $C$DW$169, DW_AT_TI_max_frame_size(0x08)
	.dwpsn	file "../esp8266.c",line 469,column 35,is_stmt,address ESP8266_ListAccessPoints,isa 1

	.dwfde $C$DW$CIE, ESP8266_ListAccessPoints
;----------------------------------------------------------------------
; 469 | int ESP8266_ListAccessPoints(void){                                    
;----------------------------------------------------------------------

;*****************************************************************************
;* FUNCTION NAME: ESP8266_ListAccessPoints                                   *
;*                                                                           *
;*   Regs Modified     : A1,A2,A3,A4,V9,SP,LR,SR,D0,D0_hi,D1,D1_hi,D2,D2_hi, *
;*                           D3,D3_hi,D4,D4_hi,D5,D5_hi,D6,D6_hi,D7,D7_hi,   *
;*                           FPEXC,FPSCR                                     *
;*   Regs Used         : A1,A2,A3,A4,V9,SP,LR,SR,D0,D0_hi,D1,D1_hi,D2,D2_hi, *
;*                           D3,D3_hi,D4,D4_hi,D5,D5_hi,D6,D6_hi,D7,D7_hi,   *
;*                           FPEXC,FPSCR                                     *
;*   Local Frame Size  : 0 Args + 4 Auto + 4 Save = 8 byte                   *
;*****************************************************************************
ESP8266_ListAccessPoints:
;* --------------------------------------------------------------------------*
	.dwcfi	cfa_offset, 0
        PUSH      {A4, LR}              ; [DPU_3_PIPE] 
	.dwcfi	cfa_offset, 8
	.dwcfi	save_reg_to_mem, 14, -4
	.dwcfi	save_reg_to_mem, 3, -8
$C$DW$170	.dwtag  DW_TAG_variable, DW_AT_name("try")
	.dwattr $C$DW$170, DW_AT_TI_symbol_name("try")
	.dwattr $C$DW$170, DW_AT_type(*$C$DW$T$10)
	.dwattr $C$DW$170, DW_AT_location[DW_OP_breg13 0]
	.dwpsn	file "../esp8266.c",line 470,column 10,is_stmt,isa 1
;----------------------------------------------------------------------
; 470 | int try=MAXTRY;                                                        
;----------------------------------------------------------------------
        MOVS      A1, #10               ; [DPU_3_PIPE] |470| 
        STR       A1, [SP, #0]          ; [DPU_3_PIPE] |470| 
	.dwpsn	file "../esp8266.c",line 471,column 3,is_stmt,isa 1
;----------------------------------------------------------------------
; 471 | SearchStart("ok");                                                     
;----------------------------------------------------------------------
        ADR       A1, $C$SL16           ; [DPU_3_PIPE] |471| 
$C$DW$171	.dwtag  DW_TAG_TI_branch
	.dwattr $C$DW$171, DW_AT_low_pc(0x00)
	.dwattr $C$DW$171, DW_AT_name("SearchStart")
	.dwattr $C$DW$171, DW_AT_TI_call
        BL        SearchStart           ; [DPU_3_PIPE] |471| 
        ; CALL OCCURS {SearchStart }     ; [] |471| 
	.dwpsn	file "../esp8266.c",line 472,column 3,is_stmt,isa 1
;----------------------------------------------------------------------
; 472 | while(try){                                                            
;----------------------------------------------------------------------
        LDR       A1, [SP, #0]          ; [DPU_3_PIPE] |472| 
        CBZ       A1, ||$C$L60||        ; [] 
        ; BRANCHCC OCCURS {||$C$L60||}   ; [] |472| 
;* --------------------------------------------------------------------------*
;*   BEGIN LOOP ||$C$L58||
;*
;*   Loop source line                : 472
;*   Loop closing brace source line  : 477
;*   Known Minimum Trip Count        : 1
;*   Known Maximum Trip Count        : 4294967295
;*   Known Max Trip Count Factor     : 1
;* --------------------------------------------------------------------------*
||$C$L58||:    
	.dwpsn	file "../esp8266.c",line 473,column 5,is_stmt,isa 1
;----------------------------------------------------------------------
; 473 | ESP8266SendCommand("AT+CWLAP\r\n");                                    
;----------------------------------------------------------------------
        ADR       A1, $C$SL19           ; [DPU_3_PIPE] |473| 
$C$DW$172	.dwtag  DW_TAG_TI_branch
	.dwattr $C$DW$172, DW_AT_low_pc(0x00)
	.dwattr $C$DW$172, DW_AT_name("ESP8266SendCommand")
	.dwattr $C$DW$172, DW_AT_TI_call
        BL        ESP8266SendCommand    ; [DPU_3_PIPE] |473| 
        ; CALL OCCURS {ESP8266SendCommand }  ; [] |473| 
	.dwpsn	file "../esp8266.c",line 474,column 5,is_stmt,isa 1
;----------------------------------------------------------------------
; 474 | DelayMsSearching(8000);                                                
;----------------------------------------------------------------------
        MOV       A1, #8000             ; [DPU_3_PIPE] |474| 
$C$DW$173	.dwtag  DW_TAG_TI_branch
	.dwattr $C$DW$173, DW_AT_low_pc(0x00)
	.dwattr $C$DW$173, DW_AT_name("DelayMsSearching")
	.dwattr $C$DW$173, DW_AT_TI_call
        BL        DelayMsSearching      ; [DPU_3_PIPE] |474| 
        ; CALL OCCURS {DelayMsSearching }  ; [] |474| 
	.dwpsn	file "../esp8266.c",line 475,column 5,is_stmt,isa 1
;----------------------------------------------------------------------
; 475 | if(SearchFound) return 1; // success                                   
;----------------------------------------------------------------------
        LDR       A1, $C$CON46          ; [DPU_3_PIPE] |475| 
        LDRB      A1, [A1, #0]          ; [DPU_3_PIPE] |475| 
        CBZ       A1, ||$C$L59||        ; [] 
        ; BRANCHCC OCCURS {||$C$L59||}   ; [] |475| 
;* --------------------------------------------------------------------------*
	.dwpsn	file "../esp8266.c",line 475,column 21,is_stmt,isa 1
        MOVS      A1, #1                ; [DPU_3_PIPE] |475| 
        B         ||$C$L61||            ; [DPU_3_PIPE] |475| 
        ; BRANCH OCCURS {||$C$L61||}     ; [] |475| 
;* --------------------------------------------------------------------------*
||$C$L59||:    
	.dwpsn	file "../esp8266.c",line 476,column 5,is_stmt,isa 1
;----------------------------------------------------------------------
; 476 | try--;                                                                 
;----------------------------------------------------------------------
        LDR       A1, [SP, #0]          ; [DPU_3_PIPE] |476| 
        SUBS      A1, A1, #1            ; [DPU_3_PIPE] |476| 
        STR       A1, [SP, #0]          ; [DPU_3_PIPE] |476| 
	.dwpsn	file "../esp8266.c",line 472,column 3,is_stmt,isa 1
        LDR       A1, [SP, #0]          ; [DPU_3_PIPE] |472| 
        CMP       A1, #0                ; [DPU_3_PIPE] |472| 
        BNE       ||$C$L58||            ; [DPU_3_PIPE] |472| 
        ; BRANCHCC OCCURS {||$C$L58||}   ; [] |472| 
;* --------------------------------------------------------------------------*
||$C$L60||:    
	.dwpsn	file "../esp8266.c",line 478,column 3,is_stmt,isa 1
;----------------------------------------------------------------------
; 478 | return 0; // fail                                                      
;----------------------------------------------------------------------
        MOVS      A1, #0                ; [DPU_3_PIPE] |478| 
;* --------------------------------------------------------------------------*
||$C$L61||:    
	.dwpsn	file "../esp8266.c",line 479,column 1,is_stmt,isa 1
$C$DW$174	.dwtag  DW_TAG_TI_branch
	.dwattr $C$DW$174, DW_AT_low_pc(0x00)
	.dwattr $C$DW$174, DW_AT_TI_return
        POP       {A4, PC}              ; [DPU_3_PIPE] 
	.dwcfi	cfa_offset, 0
        ; BRANCH OCCURS                  ; [] 
	.dwattr $C$DW$169, DW_AT_TI_end_file("../esp8266.c")
	.dwattr $C$DW$169, DW_AT_TI_end_line(0x1df)
	.dwattr $C$DW$169, DW_AT_TI_end_column(0x01)
	.dwendentry
	.dwendtag $C$DW$169

;******************************************************************************
;* CONSTANT TABLE                                                             *
;******************************************************************************
	.sect	".text"
	.align	4
||$C$CON44||:	.bits	1073763324,32
	.sect	".text"
	.clink
	.thumbfunc ESP8266_QuitAccessPoint
	.thumb
	.global	ESP8266_QuitAccessPoint

$C$DW$175	.dwtag  DW_TAG_subprogram, DW_AT_name("ESP8266_QuitAccessPoint")
	.dwattr $C$DW$175, DW_AT_low_pc(ESP8266_QuitAccessPoint)
	.dwattr $C$DW$175, DW_AT_high_pc(0x00)
	.dwattr $C$DW$175, DW_AT_TI_symbol_name("ESP8266_QuitAccessPoint")
	.dwattr $C$DW$175, DW_AT_external
	.dwattr $C$DW$175, DW_AT_type(*$C$DW$T$10)
	.dwattr $C$DW$175, DW_AT_TI_begin_file("../esp8266.c")
	.dwattr $C$DW$175, DW_AT_TI_begin_line(0x1e5)
	.dwattr $C$DW$175, DW_AT_TI_begin_column(0x05)
	.dwattr $C$DW$175, DW_AT_decl_file("../esp8266.c")
	.dwattr $C$DW$175, DW_AT_decl_line(0x1e5)
	.dwattr $C$DW$175, DW_AT_decl_column(0x05)
	.dwattr $C$DW$175, DW_AT_TI_max_frame_size(0x08)
	.dwpsn	file "../esp8266.c",line 485,column 34,is_stmt,address ESP8266_QuitAccessPoint,isa 1

	.dwfde $C$DW$CIE, ESP8266_QuitAccessPoint
;----------------------------------------------------------------------
; 485 | int ESP8266_QuitAccessPoint(void){                                     
;----------------------------------------------------------------------

;*****************************************************************************
;* FUNCTION NAME: ESP8266_QuitAccessPoint                                    *
;*                                                                           *
;*   Regs Modified     : A1,A2,A3,A4,V9,SP,LR,SR,D0,D0_hi,D1,D1_hi,D2,D2_hi, *
;*                           D3,D3_hi,D4,D4_hi,D5,D5_hi,D6,D6_hi,D7,D7_hi,   *
;*                           FPEXC,FPSCR                                     *
;*   Regs Used         : A1,A2,A3,A4,V9,SP,LR,SR,D0,D0_hi,D1,D1_hi,D2,D2_hi, *
;*                           D3,D3_hi,D4,D4_hi,D5,D5_hi,D6,D6_hi,D7,D7_hi,   *
;*                           FPEXC,FPSCR                                     *
;*   Local Frame Size  : 0 Args + 4 Auto + 4 Save = 8 byte                   *
;*****************************************************************************
ESP8266_QuitAccessPoint:
;* --------------------------------------------------------------------------*
	.dwcfi	cfa_offset, 0
        PUSH      {A4, LR}              ; [DPU_3_PIPE] 
	.dwcfi	cfa_offset, 8
	.dwcfi	save_reg_to_mem, 14, -4
	.dwcfi	save_reg_to_mem, 3, -8
$C$DW$176	.dwtag  DW_TAG_variable, DW_AT_name("try")
	.dwattr $C$DW$176, DW_AT_TI_symbol_name("try")
	.dwattr $C$DW$176, DW_AT_type(*$C$DW$T$10)
	.dwattr $C$DW$176, DW_AT_location[DW_OP_breg13 0]
	.dwpsn	file "../esp8266.c",line 486,column 10,is_stmt,isa 1
;----------------------------------------------------------------------
; 486 | int try=MAXTRY;                                                        
;----------------------------------------------------------------------
        MOVS      A1, #10               ; [DPU_3_PIPE] |486| 
        STR       A1, [SP, #0]          ; [DPU_3_PIPE] |486| 
	.dwpsn	file "../esp8266.c",line 487,column 3,is_stmt,isa 1
;----------------------------------------------------------------------
; 487 | SearchStart("ok");                                                     
;----------------------------------------------------------------------
        ADR       A1, $C$SL16           ; [DPU_3_PIPE] |487| 
$C$DW$177	.dwtag  DW_TAG_TI_branch
	.dwattr $C$DW$177, DW_AT_low_pc(0x00)
	.dwattr $C$DW$177, DW_AT_name("SearchStart")
	.dwattr $C$DW$177, DW_AT_TI_call
        BL        SearchStart           ; [DPU_3_PIPE] |487| 
        ; CALL OCCURS {SearchStart }     ; [] |487| 
	.dwpsn	file "../esp8266.c",line 488,column 3,is_stmt,isa 1
;----------------------------------------------------------------------
; 488 | while(try){                                                            
;----------------------------------------------------------------------
        LDR       A1, [SP, #0]          ; [DPU_3_PIPE] |488| 
        CBZ       A1, ||$C$L64||        ; [] 
        ; BRANCHCC OCCURS {||$C$L64||}   ; [] |488| 
;* --------------------------------------------------------------------------*
;*   BEGIN LOOP ||$C$L62||
;*
;*   Loop source line                : 488
;*   Loop closing brace source line  : 493
;*   Known Minimum Trip Count        : 1
;*   Known Maximum Trip Count        : 4294967295
;*   Known Max Trip Count Factor     : 1
;* --------------------------------------------------------------------------*
||$C$L62||:    
	.dwpsn	file "../esp8266.c",line 489,column 5,is_stmt,isa 1
;----------------------------------------------------------------------
; 489 | ESP8266SendCommand("AT+CWQAP\r\n");                                    
;----------------------------------------------------------------------
        ADR       A1, $C$SL20           ; [DPU_3_PIPE] |489| 
$C$DW$178	.dwtag  DW_TAG_TI_branch
	.dwattr $C$DW$178, DW_AT_low_pc(0x00)
	.dwattr $C$DW$178, DW_AT_name("ESP8266SendCommand")
	.dwattr $C$DW$178, DW_AT_TI_call
        BL        ESP8266SendCommand    ; [DPU_3_PIPE] |489| 
        ; CALL OCCURS {ESP8266SendCommand }  ; [] |489| 
	.dwpsn	file "../esp8266.c",line 490,column 5,is_stmt,isa 1
;----------------------------------------------------------------------
; 490 | DelayMsSearching(8000);                                                
;----------------------------------------------------------------------
        MOV       A1, #8000             ; [DPU_3_PIPE] |490| 
$C$DW$179	.dwtag  DW_TAG_TI_branch
	.dwattr $C$DW$179, DW_AT_low_pc(0x00)
	.dwattr $C$DW$179, DW_AT_name("DelayMsSearching")
	.dwattr $C$DW$179, DW_AT_TI_call
        BL        DelayMsSearching      ; [DPU_3_PIPE] |490| 
        ; CALL OCCURS {DelayMsSearching }  ; [] |490| 
	.dwpsn	file "../esp8266.c",line 491,column 5,is_stmt,isa 1
;----------------------------------------------------------------------
; 491 | if(SearchFound) return 1; // success                                   
;----------------------------------------------------------------------
        LDR       A1, $C$CON46          ; [DPU_3_PIPE] |491| 
        LDRB      A1, [A1, #0]          ; [DPU_3_PIPE] |491| 
        CBZ       A1, ||$C$L63||        ; [] 
        ; BRANCHCC OCCURS {||$C$L63||}   ; [] |491| 
;* --------------------------------------------------------------------------*
	.dwpsn	file "../esp8266.c",line 491,column 21,is_stmt,isa 1
        MOVS      A1, #1                ; [DPU_3_PIPE] |491| 
        B         ||$C$L65||            ; [DPU_3_PIPE] |491| 
        ; BRANCH OCCURS {||$C$L65||}     ; [] |491| 
;* --------------------------------------------------------------------------*
||$C$L63||:    
	.dwpsn	file "../esp8266.c",line 492,column 5,is_stmt,isa 1
;----------------------------------------------------------------------
; 492 | try--;                                                                 
;----------------------------------------------------------------------
        LDR       A1, [SP, #0]          ; [DPU_3_PIPE] |492| 
        SUBS      A1, A1, #1            ; [DPU_3_PIPE] |492| 
        STR       A1, [SP, #0]          ; [DPU_3_PIPE] |492| 
	.dwpsn	file "../esp8266.c",line 488,column 3,is_stmt,isa 1
        LDR       A1, [SP, #0]          ; [DPU_3_PIPE] |488| 
        CMP       A1, #0                ; [DPU_3_PIPE] |488| 
        BNE       ||$C$L62||            ; [DPU_3_PIPE] |488| 
        ; BRANCHCC OCCURS {||$C$L62||}   ; [] |488| 
;* --------------------------------------------------------------------------*
||$C$L64||:    
	.dwpsn	file "../esp8266.c",line 494,column 3,is_stmt,isa 1
;----------------------------------------------------------------------
; 494 | return 0; // fail                                                      
;----------------------------------------------------------------------
        MOVS      A1, #0                ; [DPU_3_PIPE] |494| 
;* --------------------------------------------------------------------------*
||$C$L65||:    
	.dwpsn	file "../esp8266.c",line 495,column 1,is_stmt,isa 1
$C$DW$180	.dwtag  DW_TAG_TI_branch
	.dwattr $C$DW$180, DW_AT_low_pc(0x00)
	.dwattr $C$DW$180, DW_AT_TI_return
        POP       {A4, PC}              ; [DPU_3_PIPE] 
	.dwcfi	cfa_offset, 0
        ; BRANCH OCCURS                  ; [] 
	.dwattr $C$DW$175, DW_AT_TI_end_file("../esp8266.c")
	.dwattr $C$DW$175, DW_AT_TI_end_line(0x1ef)
	.dwattr $C$DW$175, DW_AT_TI_end_column(0x01)
	.dwendentry
	.dwendtag $C$DW$175

;******************************************************************************
;* STRINGS                                                                    *
;******************************************************************************
	.sect	".text"
	.align	4
||$C$SL3||:	.string	"ESP8266 Initialization:",10,13,0
	.align	4
||$C$SL4||:	.string	"Reset failure, could not reset",10,13,0
	.align	4
||$C$SL5||:	.string	"SetWifiMode, could not set mode",10,13,0
	.align	4
||$C$SL6||:	.string	"ValvanoAP",0
	.align	4
||$C$SL7||:	.string	"12345678",0
	.align	4
||$C$SL8||:	.string	"JoinAccessPoint error, could not join AP",10,13,0
	.align	4
||$C$SL9||:	.string	"GetIPAddress error, could not get IP address",10,13,0
	.align	4
||$C$SL10||:	.string	"ListAccessPoints, could not list access points",10,13,0
	.align	4
||$C$SL11||:	.string	"SetDataTransmissionMode, could not make connection",10,13,0
	.align	4
||$C$SL12||:	.string	"ready",0
	.align	4
||$C$SL13||:	.string	"AT+RST",13,10,0
	.align	4
||$C$SL14||:	.string	"no change",0
	.align	4
||$C$SL15||:	.string	"AT+CWMODE=%d",13,10,0
	.sect	".text"
	.clink
	.thumbfunc ESP8266_ConfigureAccessPoint
	.thumb
	.global	ESP8266_ConfigureAccessPoint

$C$DW$181	.dwtag  DW_TAG_subprogram, DW_AT_name("ESP8266_ConfigureAccessPoint")
	.dwattr $C$DW$181, DW_AT_low_pc(ESP8266_ConfigureAccessPoint)
	.dwattr $C$DW$181, DW_AT_high_pc(0x00)
	.dwattr $C$DW$181, DW_AT_TI_symbol_name("ESP8266_ConfigureAccessPoint")
	.dwattr $C$DW$181, DW_AT_external
	.dwattr $C$DW$181, DW_AT_type(*$C$DW$T$10)
	.dwattr $C$DW$181, DW_AT_TI_begin_file("../esp8266.c")
	.dwattr $C$DW$181, DW_AT_TI_begin_line(0x1f6)
	.dwattr $C$DW$181, DW_AT_TI_begin_column(0x05)
	.dwattr $C$DW$181, DW_AT_decl_file("../esp8266.c")
	.dwattr $C$DW$181, DW_AT_decl_line(0x1f6)
	.dwattr $C$DW$181, DW_AT_decl_column(0x05)
	.dwattr $C$DW$181, DW_AT_TI_max_frame_size(0x20)
	.dwpsn	file "../esp8266.c",line 502,column 111,is_stmt,address ESP8266_ConfigureAccessPoint,isa 1

	.dwfde $C$DW$CIE, ESP8266_ConfigureAccessPoint
$C$DW$182	.dwtag  DW_TAG_formal_parameter, DW_AT_name("ssid")
	.dwattr $C$DW$182, DW_AT_TI_symbol_name("ssid")
	.dwattr $C$DW$182, DW_AT_type(*$C$DW$T$42)
	.dwattr $C$DW$182, DW_AT_location[DW_OP_reg0]
$C$DW$183	.dwtag  DW_TAG_formal_parameter, DW_AT_name("password")
	.dwattr $C$DW$183, DW_AT_TI_symbol_name("password")
	.dwattr $C$DW$183, DW_AT_type(*$C$DW$T$42)
	.dwattr $C$DW$183, DW_AT_location[DW_OP_reg1]
$C$DW$184	.dwtag  DW_TAG_formal_parameter, DW_AT_name("channel")
	.dwattr $C$DW$184, DW_AT_TI_symbol_name("channel")
	.dwattr $C$DW$184, DW_AT_type(*$C$DW$T$53)
	.dwattr $C$DW$184, DW_AT_location[DW_OP_reg2]
$C$DW$185	.dwtag  DW_TAG_formal_parameter, DW_AT_name("encryptMode")
	.dwattr $C$DW$185, DW_AT_TI_symbol_name("encryptMode")
	.dwattr $C$DW$185, DW_AT_type(*$C$DW$T$53)
	.dwattr $C$DW$185, DW_AT_location[DW_OP_reg3]

;*****************************************************************************
;* FUNCTION NAME: ESP8266_ConfigureAccessPoint                               *
;*                                                                           *
;*   Regs Modified     : A1,A2,A3,A4,V9,SP,LR,SR,D0,D0_hi,D1,D1_hi,D2,D2_hi, *
;*                           D3,D3_hi,D4,D4_hi,D5,D5_hi,D6,D6_hi,D7,D7_hi,   *
;*                           FPEXC,FPSCR                                     *
;*   Regs Used         : A1,A2,A3,A4,V9,SP,LR,SR,D0,D0_hi,D1,D1_hi,D2,D2_hi, *
;*                           D3,D3_hi,D4,D4_hi,D5,D5_hi,D6,D6_hi,D7,D7_hi,   *
;*                           FPEXC,FPSCR                                     *
;*   Local Frame Size  : 8 Args + 16 Auto + 4 Save = 28 byte                 *
;*****************************************************************************
ESP8266_ConfigureAccessPoint:
;* --------------------------------------------------------------------------*
	.dwcfi	cfa_offset, 0
        PUSH      {LR}                  ; [DPU_3_PIPE] 
	.dwcfi	cfa_offset, 4
	.dwcfi	save_reg_to_mem, 14, -4
        SUB       SP, SP, #28           ; [DPU_3_PIPE] 
	.dwcfi	cfa_offset, 32
$C$DW$186	.dwtag  DW_TAG_variable, DW_AT_name("ssid")
	.dwattr $C$DW$186, DW_AT_TI_symbol_name("ssid")
	.dwattr $C$DW$186, DW_AT_type(*$C$DW$T$42)
	.dwattr $C$DW$186, DW_AT_location[DW_OP_breg13 8]
$C$DW$187	.dwtag  DW_TAG_variable, DW_AT_name("password")
	.dwattr $C$DW$187, DW_AT_TI_symbol_name("password")
	.dwattr $C$DW$187, DW_AT_type(*$C$DW$T$42)
	.dwattr $C$DW$187, DW_AT_location[DW_OP_breg13 12]
$C$DW$188	.dwtag  DW_TAG_variable, DW_AT_name("channel")
	.dwattr $C$DW$188, DW_AT_TI_symbol_name("channel")
	.dwattr $C$DW$188, DW_AT_type(*$C$DW$T$53)
	.dwattr $C$DW$188, DW_AT_location[DW_OP_breg13 16]
$C$DW$189	.dwtag  DW_TAG_variable, DW_AT_name("encryptMode")
	.dwattr $C$DW$189, DW_AT_TI_symbol_name("encryptMode")
	.dwattr $C$DW$189, DW_AT_type(*$C$DW$T$53)
	.dwattr $C$DW$189, DW_AT_location[DW_OP_breg13 17]
$C$DW$190	.dwtag  DW_TAG_variable, DW_AT_name("try")
	.dwattr $C$DW$190, DW_AT_TI_symbol_name("try")
	.dwattr $C$DW$190, DW_AT_type(*$C$DW$T$10)
	.dwattr $C$DW$190, DW_AT_location[DW_OP_breg13 20]
;----------------------------------------------------------------------
; 502 | int ESP8266_ConfigureAccessPoint(const char* ssid, const char* password
;     | , uint8_t channel, uint8_t encryptMode){                               
;----------------------------------------------------------------------
        STRB      A4, [SP, #17]         ; [DPU_3_PIPE] |502| 
        STRB      A3, [SP, #16]         ; [DPU_3_PIPE] |502| 
        STR       A2, [SP, #12]         ; [DPU_3_PIPE] |502| 
        STR       A1, [SP, #8]          ; [DPU_3_PIPE] |502| 
	.dwpsn	file "../esp8266.c",line 503,column 10,is_stmt,isa 1
;----------------------------------------------------------------------
; 503 | int try=MAXTRY;                                                        
;----------------------------------------------------------------------
        MOVS      A1, #10               ; [DPU_3_PIPE] |503| 
        STR       A1, [SP, #20]         ; [DPU_3_PIPE] |503| 
	.dwpsn	file "../esp8266.c",line 504,column 3,is_stmt,isa 1
;----------------------------------------------------------------------
; 504 | SearchStart("ok");                                                     
;----------------------------------------------------------------------
        ADR       A1, $C$SL16           ; [DPU_3_PIPE] |504| 
$C$DW$191	.dwtag  DW_TAG_TI_branch
	.dwattr $C$DW$191, DW_AT_low_pc(0x00)
	.dwattr $C$DW$191, DW_AT_name("SearchStart")
	.dwattr $C$DW$191, DW_AT_TI_call
        BL        SearchStart           ; [DPU_3_PIPE] |504| 
        ; CALL OCCURS {SearchStart }     ; [] |504| 
	.dwpsn	file "../esp8266.c",line 505,column 3,is_stmt,isa 1
;----------------------------------------------------------------------
; 505 | while(try){                                                            
;----------------------------------------------------------------------
        LDR       A1, [SP, #20]         ; [DPU_3_PIPE] |505| 
        CBZ       A1, ||$C$L69||        ; [] 
        ; BRANCHCC OCCURS {||$C$L69||}   ; [] |505| 
;* --------------------------------------------------------------------------*
;*   BEGIN LOOP ||$C$L66||
;*
;*   Loop source line                : 505
;*   Loop closing brace source line  : 511
;*   Known Minimum Trip Count        : 1
;*   Known Maximum Trip Count        : 4294967295
;*   Known Max Trip Count Factor     : 1
;* --------------------------------------------------------------------------*
||$C$L66||:    
	.dwpsn	file "../esp8266.c",line 506,column 5,is_stmt,isa 1
;----------------------------------------------------------------------
; 506 | sprintf((char*)TXBuffer, "AT+CWSAP=\"%s\",\"%s\",%d,%d\r\n", ssid, pass
;     | word, channel, encryptMode);                                           
;----------------------------------------------------------------------
        LDRB      A1, [SP, #16]         ; [] |506| 
        STR       A1, [SP, #0]          ; [] |506| 
        LDRB      A1, [SP, #17]         ; [] |506| 
        STR       A1, [SP, #4]          ; [] |506| 
        LDR       A1, $C$CON45          ; [] |506| 
        LDR       A3, [SP, #8]          ; [] |506| 
        LDR       A4, [SP, #12]         ; [] |506| 
        ADR       A2, $C$SL21           ; [] |506| 
$C$DW$192	.dwtag  DW_TAG_TI_branch
	.dwattr $C$DW$192, DW_AT_low_pc(0x00)
	.dwattr $C$DW$192, DW_AT_name("sprintf")
	.dwattr $C$DW$192, DW_AT_TI_call
        BL        sprintf               ; [] |506| 
        ; CALL OCCURS {sprintf }         ; [] |506| 
        B         ||$C$L67||            ; [] 
        ; BRANCH OCCURS {||$C$L67||}     ; [] 
	.dwpsn	file "../esp8266.c",line 507,column 5,is_stmt,isa 1
;----------------------------------------------------------------------
; 507 | ESP8266SendCommand((const char*)TXBuffer);                             
;----------------------------------------------------------------------
;******************************************************************************
;* CONSTANT TABLE                                                             *
;******************************************************************************
	.sect	".text"
	.align	4
||$C$CON45||:	.bits	TXBuffer,32
;* --------------------------------------------------------------------------*
||$C$L67||:    
        LDR       A1, $C$CON47          ; [] |507| 
$C$DW$193	.dwtag  DW_TAG_TI_branch
	.dwattr $C$DW$193, DW_AT_low_pc(0x00)
	.dwattr $C$DW$193, DW_AT_name("ESP8266SendCommand")
	.dwattr $C$DW$193, DW_AT_TI_call
        BL        ESP8266SendCommand    ; [] |507| 
        ; CALL OCCURS {ESP8266SendCommand }  ; [] |507| 
	.dwpsn	file "../esp8266.c",line 508,column 5,is_stmt,isa 1
;----------------------------------------------------------------------
; 508 | DelayMsSearching(4000);                                                
;----------------------------------------------------------------------
        MOV       A1, #4000             ; [] |508| 
$C$DW$194	.dwtag  DW_TAG_TI_branch
	.dwattr $C$DW$194, DW_AT_low_pc(0x00)
	.dwattr $C$DW$194, DW_AT_name("DelayMsSearching")
	.dwattr $C$DW$194, DW_AT_TI_call
        BL        DelayMsSearching      ; [] |508| 
        ; CALL OCCURS {DelayMsSearching }  ; [] |508| 
	.dwpsn	file "../esp8266.c",line 509,column 5,is_stmt,isa 1
;----------------------------------------------------------------------
; 509 | if(SearchFound) return 1; // success                                   
;----------------------------------------------------------------------
        LDR       A1, $C$CON46          ; [] |509| 
        LDRB      A1, [A1, #0]          ; [] |509| 
        CBZ       A1, ||$C$L68||        ; [] 
        ; BRANCHCC OCCURS {||$C$L68||}   ; [] |509| 
;* --------------------------------------------------------------------------*
	.dwpsn	file "../esp8266.c",line 509,column 21,is_stmt,isa 1
        MOVS      A1, #1                ; [DPU_3_PIPE] |509| 
        B         ||$C$L70||            ; [DPU_3_PIPE] |509| 
        ; BRANCH OCCURS {||$C$L70||}     ; [] |509| 
;* --------------------------------------------------------------------------*
||$C$L68||:    
	.dwpsn	file "../esp8266.c",line 510,column 5,is_stmt,isa 1
;----------------------------------------------------------------------
; 510 | try--;                                                                 
;----------------------------------------------------------------------
        LDR       A1, [SP, #20]         ; [DPU_3_PIPE] |510| 
        SUBS      A1, A1, #1            ; [DPU_3_PIPE] |510| 
        STR       A1, [SP, #20]         ; [DPU_3_PIPE] |510| 
	.dwpsn	file "../esp8266.c",line 505,column 3,is_stmt,isa 1
        LDR       A1, [SP, #20]         ; [DPU_3_PIPE] |505| 
        CMP       A1, #0                ; [DPU_3_PIPE] |505| 
        BNE       ||$C$L66||            ; [DPU_3_PIPE] |505| 
        ; BRANCHCC OCCURS {||$C$L66||}   ; [] |505| 
;* --------------------------------------------------------------------------*
||$C$L69||:    
	.dwpsn	file "../esp8266.c",line 512,column 3,is_stmt,isa 1
;----------------------------------------------------------------------
; 512 | return 0; // fail                                                      
;----------------------------------------------------------------------
        MOVS      A1, #0                ; [DPU_3_PIPE] |512| 
;* --------------------------------------------------------------------------*
||$C$L70||:    
	.dwpsn	file "../esp8266.c",line 513,column 1,is_stmt,isa 1
        ADD       SP, SP, #28           ; [DPU_3_PIPE] 
	.dwcfi	cfa_offset, 4
$C$DW$195	.dwtag  DW_TAG_TI_branch
	.dwattr $C$DW$195, DW_AT_low_pc(0x00)
	.dwattr $C$DW$195, DW_AT_TI_return
        POP       {PC}                  ; [DPU_3_PIPE] 
	.dwcfi	cfa_offset, 0
        ; BRANCH OCCURS                  ; [] 
	.dwattr $C$DW$181, DW_AT_TI_end_file("../esp8266.c")
	.dwattr $C$DW$181, DW_AT_TI_end_line(0x201)
	.dwattr $C$DW$181, DW_AT_TI_end_column(0x01)
	.dwendentry
	.dwendtag $C$DW$181

;******************************************************************************
;* STRINGS                                                                    *
;******************************************************************************
	.sect	".text"
	.align	4
||$C$SL16||:	.string	"ok",0
	.align	4
||$C$SL17||:	.string	"AT+CIPMUX=%d",13,10,0
	.sect	".text"
	.clink
	.thumbfunc ESP8266_GetIPAddress
	.thumb
	.global	ESP8266_GetIPAddress

$C$DW$196	.dwtag  DW_TAG_subprogram, DW_AT_name("ESP8266_GetIPAddress")
	.dwattr $C$DW$196, DW_AT_low_pc(ESP8266_GetIPAddress)
	.dwattr $C$DW$196, DW_AT_high_pc(0x00)
	.dwattr $C$DW$196, DW_AT_TI_symbol_name("ESP8266_GetIPAddress")
	.dwattr $C$DW$196, DW_AT_external
	.dwattr $C$DW$196, DW_AT_type(*$C$DW$T$10)
	.dwattr $C$DW$196, DW_AT_TI_begin_file("../esp8266.c")
	.dwattr $C$DW$196, DW_AT_TI_begin_line(0x207)
	.dwattr $C$DW$196, DW_AT_TI_begin_column(0x05)
	.dwattr $C$DW$196, DW_AT_decl_file("../esp8266.c")
	.dwattr $C$DW$196, DW_AT_decl_line(0x207)
	.dwattr $C$DW$196, DW_AT_decl_column(0x05)
	.dwattr $C$DW$196, DW_AT_TI_max_frame_size(0x08)
	.dwpsn	file "../esp8266.c",line 519,column 31,is_stmt,address ESP8266_GetIPAddress,isa 1

	.dwfde $C$DW$CIE, ESP8266_GetIPAddress
;----------------------------------------------------------------------
; 519 | int ESP8266_GetIPAddress(void){                                        
;----------------------------------------------------------------------

;*****************************************************************************
;* FUNCTION NAME: ESP8266_GetIPAddress                                       *
;*                                                                           *
;*   Regs Modified     : A1,A2,A3,A4,V9,SP,LR,SR,D0,D0_hi,D1,D1_hi,D2,D2_hi, *
;*                           D3,D3_hi,D4,D4_hi,D5,D5_hi,D6,D6_hi,D7,D7_hi,   *
;*                           FPEXC,FPSCR                                     *
;*   Regs Used         : A1,A2,A3,A4,V9,SP,LR,SR,D0,D0_hi,D1,D1_hi,D2,D2_hi, *
;*                           D3,D3_hi,D4,D4_hi,D5,D5_hi,D6,D6_hi,D7,D7_hi,   *
;*                           FPEXC,FPSCR                                     *
;*   Local Frame Size  : 0 Args + 4 Auto + 4 Save = 8 byte                   *
;*****************************************************************************
ESP8266_GetIPAddress:
;* --------------------------------------------------------------------------*
	.dwcfi	cfa_offset, 0
        PUSH      {A4, LR}              ; [DPU_3_PIPE] 
	.dwcfi	cfa_offset, 8
	.dwcfi	save_reg_to_mem, 14, -4
	.dwcfi	save_reg_to_mem, 3, -8
$C$DW$197	.dwtag  DW_TAG_variable, DW_AT_name("try")
	.dwattr $C$DW$197, DW_AT_TI_symbol_name("try")
	.dwattr $C$DW$197, DW_AT_type(*$C$DW$T$10)
	.dwattr $C$DW$197, DW_AT_location[DW_OP_breg13 0]
	.dwpsn	file "../esp8266.c",line 520,column 10,is_stmt,isa 1
;----------------------------------------------------------------------
; 520 | int try=MAXTRY;                                                        
;----------------------------------------------------------------------
        MOVS      A1, #10               ; [DPU_3_PIPE] |520| 
        STR       A1, [SP, #0]          ; [DPU_3_PIPE] |520| 
	.dwpsn	file "../esp8266.c",line 521,column 3,is_stmt,isa 1
;----------------------------------------------------------------------
; 521 | SearchStart("ok");                                                     
;----------------------------------------------------------------------
        LDR       A1, $C$CON48          ; [] |521| 
$C$DW$198	.dwtag  DW_TAG_TI_branch
	.dwattr $C$DW$198, DW_AT_low_pc(0x00)
	.dwattr $C$DW$198, DW_AT_name("SearchStart")
	.dwattr $C$DW$198, DW_AT_TI_call
        BL        SearchStart           ; [DPU_3_PIPE] |521| 
        ; CALL OCCURS {SearchStart }     ; [] |521| 
	.dwpsn	file "../esp8266.c",line 522,column 3,is_stmt,isa 1
;----------------------------------------------------------------------
; 522 | while(try){                                                            
;----------------------------------------------------------------------
        LDR       A1, [SP, #0]          ; [DPU_3_PIPE] |522| 
        CBZ       A1, ||$C$L73||        ; [] 
        ; BRANCHCC OCCURS {||$C$L73||}   ; [] |522| 
;* --------------------------------------------------------------------------*
        B         ||$C$L71||            ; [] 
        ; BRANCH OCCURS {||$C$L71||}     ; [] 
;* --------------------------------------------------------------------------*
;*   BEGIN LOOP ||$C$L71||
;*
;*   Loop source line                : 522
;*   Loop closing brace source line  : 527
;*   Known Minimum Trip Count        : 1
;*   Known Maximum Trip Count        : 4294967295
;*   Known Max Trip Count Factor     : 1
;* --------------------------------------------------------------------------*
||$C$L71||:    
	.dwpsn	file "../esp8266.c",line 523,column 5,is_stmt,isa 1
;----------------------------------------------------------------------
; 523 | ESP8266SendCommand("AT+CIFSR\r\n");                                    
;----------------------------------------------------------------------
        ADR       A1, $C$SL22           ; [DPU_3_PIPE] |523| 
$C$DW$199	.dwtag  DW_TAG_TI_branch
	.dwattr $C$DW$199, DW_AT_low_pc(0x00)
	.dwattr $C$DW$199, DW_AT_name("ESP8266SendCommand")
	.dwattr $C$DW$199, DW_AT_TI_call
        BL        ESP8266SendCommand    ; [DPU_3_PIPE] |523| 
        ; CALL OCCURS {ESP8266SendCommand }  ; [] |523| 
	.dwpsn	file "../esp8266.c",line 524,column 5,is_stmt,isa 1
;----------------------------------------------------------------------
; 524 | DelayMsSearching(5000);                                                
;----------------------------------------------------------------------
        MOV       A1, #5000             ; [DPU_3_PIPE] |524| 
$C$DW$200	.dwtag  DW_TAG_TI_branch
	.dwattr $C$DW$200, DW_AT_low_pc(0x00)
	.dwattr $C$DW$200, DW_AT_name("DelayMsSearching")
	.dwattr $C$DW$200, DW_AT_TI_call
        BL        DelayMsSearching      ; [DPU_3_PIPE] |524| 
        ; CALL OCCURS {DelayMsSearching }  ; [] |524| 
	.dwpsn	file "../esp8266.c",line 525,column 5,is_stmt,isa 1
;----------------------------------------------------------------------
; 525 | if(SearchFound) return 1; // success                                   
;----------------------------------------------------------------------
        LDR       A1, $C$CON49          ; [DPU_3_PIPE] |525| 
        LDRB      A1, [A1, #0]          ; [DPU_3_PIPE] |525| 
        CBZ       A1, ||$C$L72||        ; [] 
        ; BRANCHCC OCCURS {||$C$L72||}   ; [] |525| 
;* --------------------------------------------------------------------------*
	.dwpsn	file "../esp8266.c",line 525,column 21,is_stmt,isa 1
        MOVS      A1, #1                ; [DPU_3_PIPE] |525| 
        B         ||$C$L74||            ; [DPU_3_PIPE] |525| 
        ; BRANCH OCCURS {||$C$L74||}     ; [] |525| 
;******************************************************************************
;* CONSTANT TABLE                                                             *
;******************************************************************************
	.sect	".text"
	.align	4
||$C$CON46||:	.bits	SearchFound,32
;* --------------------------------------------------------------------------*
||$C$L72||:    
	.dwpsn	file "../esp8266.c",line 526,column 5,is_stmt,isa 1
;----------------------------------------------------------------------
; 526 | try--;                                                                 
;----------------------------------------------------------------------
        LDR       A1, [SP, #0]          ; [DPU_3_PIPE] |526| 
        SUBS      A1, A1, #1            ; [DPU_3_PIPE] |526| 
        STR       A1, [SP, #0]          ; [DPU_3_PIPE] |526| 
	.dwpsn	file "../esp8266.c",line 522,column 3,is_stmt,isa 1
        LDR       A1, [SP, #0]          ; [DPU_3_PIPE] |522| 
        CMP       A1, #0                ; [DPU_3_PIPE] |522| 
        BNE       ||$C$L71||            ; [DPU_3_PIPE] |522| 
        ; BRANCHCC OCCURS {||$C$L71||}   ; [] |522| 
;* --------------------------------------------------------------------------*
||$C$L73||:    
	.dwpsn	file "../esp8266.c",line 528,column 3,is_stmt,isa 1
;----------------------------------------------------------------------
; 528 | return 0; // fail                                                      
;----------------------------------------------------------------------
        MOVS      A1, #0                ; [DPU_3_PIPE] |528| 
;* --------------------------------------------------------------------------*
||$C$L74||:    
	.dwpsn	file "../esp8266.c",line 529,column 1,is_stmt,isa 1
$C$DW$201	.dwtag  DW_TAG_TI_branch
	.dwattr $C$DW$201, DW_AT_low_pc(0x00)
	.dwattr $C$DW$201, DW_AT_TI_return
        POP       {A4, PC}              ; [DPU_3_PIPE] 
	.dwcfi	cfa_offset, 0
        ; BRANCH OCCURS                  ; [] 
	.dwattr $C$DW$196, DW_AT_TI_end_file("../esp8266.c")
	.dwattr $C$DW$196, DW_AT_TI_end_line(0x211)
	.dwattr $C$DW$196, DW_AT_TI_end_column(0x01)
	.dwendentry
	.dwendtag $C$DW$196

;******************************************************************************
;* STRINGS                                                                    *
;******************************************************************************
	.sect	".text"
	.align	4
||$C$SL18||:	.string	"AT+CWJAP=",34,"%s",34,",",34,"%s",34,13,10,0
	.sect	".text"
	.clink
	.thumbfunc ESP8266_MakeTCPConnection
	.thumb
	.global	ESP8266_MakeTCPConnection

$C$DW$202	.dwtag  DW_TAG_subprogram, DW_AT_name("ESP8266_MakeTCPConnection")
	.dwattr $C$DW$202, DW_AT_low_pc(ESP8266_MakeTCPConnection)
	.dwattr $C$DW$202, DW_AT_high_pc(0x00)
	.dwattr $C$DW$202, DW_AT_TI_symbol_name("ESP8266_MakeTCPConnection")
	.dwattr $C$DW$202, DW_AT_external
	.dwattr $C$DW$202, DW_AT_type(*$C$DW$T$10)
	.dwattr $C$DW$202, DW_AT_TI_begin_file("../esp8266.c")
	.dwattr $C$DW$202, DW_AT_TI_begin_line(0x217)
	.dwattr $C$DW$202, DW_AT_TI_begin_column(0x05)
	.dwattr $C$DW$202, DW_AT_decl_file("../esp8266.c")
	.dwattr $C$DW$202, DW_AT_decl_line(0x217)
	.dwattr $C$DW$202, DW_AT_decl_column(0x05)
	.dwattr $C$DW$202, DW_AT_TI_max_frame_size(0x10)
	.dwpsn	file "../esp8266.c",line 535,column 47,is_stmt,address ESP8266_MakeTCPConnection,isa 1

	.dwfde $C$DW$CIE, ESP8266_MakeTCPConnection
$C$DW$203	.dwtag  DW_TAG_formal_parameter, DW_AT_name("IPaddress")
	.dwattr $C$DW$203, DW_AT_TI_symbol_name("IPaddress")
	.dwattr $C$DW$203, DW_AT_type(*$C$DW$T$35)
	.dwattr $C$DW$203, DW_AT_location[DW_OP_reg0]

;*****************************************************************************
;* FUNCTION NAME: ESP8266_MakeTCPConnection                                  *
;*                                                                           *
;*   Regs Modified     : A1,A2,A3,A4,V9,SP,LR,SR,D0,D0_hi,D1,D1_hi,D2,D2_hi, *
;*                           D3,D3_hi,D4,D4_hi,D5,D5_hi,D6,D6_hi,D7,D7_hi,   *
;*                           FPEXC,FPSCR                                     *
;*   Regs Used         : A1,A2,A3,A4,V9,SP,LR,SR,D0,D0_hi,D1,D1_hi,D2,D2_hi, *
;*                           D3,D3_hi,D4,D4_hi,D5,D5_hi,D6,D6_hi,D7,D7_hi,   *
;*                           FPEXC,FPSCR                                     *
;*   Local Frame Size  : 0 Args + 8 Auto + 4 Save = 12 byte                  *
;*****************************************************************************
ESP8266_MakeTCPConnection:
;* --------------------------------------------------------------------------*
	.dwcfi	cfa_offset, 0
        PUSH      {A2, A3, A4, LR}      ; [DPU_3_PIPE] 
	.dwcfi	cfa_offset, 16
	.dwcfi	save_reg_to_mem, 14, -4
	.dwcfi	save_reg_to_mem, 3, -8
	.dwcfi	save_reg_to_mem, 2, -12
	.dwcfi	save_reg_to_mem, 1, -16
$C$DW$204	.dwtag  DW_TAG_variable, DW_AT_name("IPaddress")
	.dwattr $C$DW$204, DW_AT_TI_symbol_name("IPaddress")
	.dwattr $C$DW$204, DW_AT_type(*$C$DW$T$35)
	.dwattr $C$DW$204, DW_AT_location[DW_OP_breg13 0]
$C$DW$205	.dwtag  DW_TAG_variable, DW_AT_name("try")
	.dwattr $C$DW$205, DW_AT_TI_symbol_name("try")
	.dwattr $C$DW$205, DW_AT_type(*$C$DW$T$10)
	.dwattr $C$DW$205, DW_AT_location[DW_OP_breg13 4]
;----------------------------------------------------------------------
; 535 | int ESP8266_MakeTCPConnection(char *IPaddress){                        
;----------------------------------------------------------------------
        STR       A1, [SP, #0]          ; [DPU_3_PIPE] |535| 
	.dwpsn	file "../esp8266.c",line 536,column 10,is_stmt,isa 1
;----------------------------------------------------------------------
; 536 | int try=MAXTRY;                                                        
;----------------------------------------------------------------------
        MOVS      A1, #10               ; [DPU_3_PIPE] |536| 
        STR       A1, [SP, #4]          ; [DPU_3_PIPE] |536| 
	.dwpsn	file "../esp8266.c",line 537,column 3,is_stmt,isa 1
;----------------------------------------------------------------------
; 537 | SearchStart("ok");                                                     
;----------------------------------------------------------------------
        LDR       A1, $C$CON48          ; [] |537| 
$C$DW$206	.dwtag  DW_TAG_TI_branch
	.dwattr $C$DW$206, DW_AT_low_pc(0x00)
	.dwattr $C$DW$206, DW_AT_name("SearchStart")
	.dwattr $C$DW$206, DW_AT_TI_call
        BL        SearchStart           ; [DPU_3_PIPE] |537| 
        ; CALL OCCURS {SearchStart }     ; [] |537| 
	.dwpsn	file "../esp8266.c",line 538,column 3,is_stmt,isa 1
;----------------------------------------------------------------------
; 538 | while(try){                                                            
;----------------------------------------------------------------------
        LDR       A1, [SP, #4]          ; [DPU_3_PIPE] |538| 
        CBZ       A1, ||$C$L77||        ; [] 
        ; BRANCHCC OCCURS {||$C$L77||}   ; [] |538| 
;* --------------------------------------------------------------------------*
;*   BEGIN LOOP ||$C$L75||
;*
;*   Loop source line                : 538
;*   Loop closing brace source line  : 544
;*   Known Minimum Trip Count        : 1
;*   Known Maximum Trip Count        : 4294967295
;*   Known Max Trip Count Factor     : 1
;* --------------------------------------------------------------------------*
||$C$L75||:    
	.dwpsn	file "../esp8266.c",line 539,column 5,is_stmt,isa 1
;----------------------------------------------------------------------
; 539 | sprintf((char*)TXBuffer, "AT+CIPSTART=\"TCP\",\"%s\",80\r\n", IPaddress
;     | );                                                                     
;----------------------------------------------------------------------
        LDR       A1, $C$CON47          ; [DPU_3_PIPE] |539| 
        LDR       A3, [SP, #0]          ; [DPU_3_PIPE] |539| 
        ADR       A2, $C$SL23           ; [DPU_3_PIPE] |539| 
$C$DW$207	.dwtag  DW_TAG_TI_branch
	.dwattr $C$DW$207, DW_AT_low_pc(0x00)
	.dwattr $C$DW$207, DW_AT_name("sprintf")
	.dwattr $C$DW$207, DW_AT_TI_call
        BL        sprintf               ; [DPU_3_PIPE] |539| 
        ; CALL OCCURS {sprintf }         ; [] |539| 
	.dwpsn	file "../esp8266.c",line 540,column 5,is_stmt,isa 1
;----------------------------------------------------------------------
; 540 | ESP8266SendCommand(TXBuffer);   // open and connect to a socket        
;----------------------------------------------------------------------
        LDR       A1, $C$CON47          ; [DPU_3_PIPE] |540| 
$C$DW$208	.dwtag  DW_TAG_TI_branch
	.dwattr $C$DW$208, DW_AT_low_pc(0x00)
	.dwattr $C$DW$208, DW_AT_name("ESP8266SendCommand")
	.dwattr $C$DW$208, DW_AT_TI_call
        BL        ESP8266SendCommand    ; [DPU_3_PIPE] |540| 
        ; CALL OCCURS {ESP8266SendCommand }  ; [] |540| 
	.dwpsn	file "../esp8266.c",line 541,column 5,is_stmt,isa 1
;----------------------------------------------------------------------
; 541 | DelayMsSearching(8000);                                                
;----------------------------------------------------------------------
        MOV       A1, #8000             ; [DPU_3_PIPE] |541| 
$C$DW$209	.dwtag  DW_TAG_TI_branch
	.dwattr $C$DW$209, DW_AT_low_pc(0x00)
	.dwattr $C$DW$209, DW_AT_name("DelayMsSearching")
	.dwattr $C$DW$209, DW_AT_TI_call
        BL        DelayMsSearching      ; [DPU_3_PIPE] |541| 
        ; CALL OCCURS {DelayMsSearching }  ; [] |541| 
	.dwpsn	file "../esp8266.c",line 542,column 5,is_stmt,isa 1
;----------------------------------------------------------------------
; 542 | if(SearchFound) return 1; // success                                   
;----------------------------------------------------------------------
        LDR       A1, $C$CON49          ; [DPU_3_PIPE] |542| 
        LDRB      A1, [A1, #0]          ; [DPU_3_PIPE] |542| 
        CBZ       A1, ||$C$L76||        ; [] 
        ; BRANCHCC OCCURS {||$C$L76||}   ; [] |542| 
;* --------------------------------------------------------------------------*
	.dwpsn	file "../esp8266.c",line 542,column 21,is_stmt,isa 1
        MOVS      A1, #1                ; [DPU_3_PIPE] |542| 
        B         ||$C$L78||            ; [DPU_3_PIPE] |542| 
        ; BRANCH OCCURS {||$C$L78||}     ; [] |542| 
;* --------------------------------------------------------------------------*
||$C$L76||:    
	.dwpsn	file "../esp8266.c",line 543,column 5,is_stmt,isa 1
;----------------------------------------------------------------------
; 543 | try--;                                                                 
;----------------------------------------------------------------------
        LDR       A1, [SP, #4]          ; [DPU_3_PIPE] |543| 
        SUBS      A1, A1, #1            ; [DPU_3_PIPE] |543| 
        STR       A1, [SP, #4]          ; [DPU_3_PIPE] |543| 
	.dwpsn	file "../esp8266.c",line 538,column 3,is_stmt,isa 1
        LDR       A1, [SP, #4]          ; [DPU_3_PIPE] |538| 
        CMP       A1, #0                ; [DPU_3_PIPE] |538| 
        BNE       ||$C$L75||            ; [DPU_3_PIPE] |538| 
        ; BRANCHCC OCCURS {||$C$L75||}   ; [] |538| 
;* --------------------------------------------------------------------------*
||$C$L77||:    
	.dwpsn	file "../esp8266.c",line 545,column 3,is_stmt,isa 1
;----------------------------------------------------------------------
; 545 | return 0; // fail                                                      
;----------------------------------------------------------------------
        MOVS      A1, #0                ; [DPU_3_PIPE] |545| 
;* --------------------------------------------------------------------------*
||$C$L78||:    
	.dwpsn	file "../esp8266.c",line 546,column 1,is_stmt,isa 1
$C$DW$210	.dwtag  DW_TAG_TI_branch
	.dwattr $C$DW$210, DW_AT_low_pc(0x00)
	.dwattr $C$DW$210, DW_AT_TI_return
        POP       {A2, A3, A4, PC}      ; [DPU_3_PIPE] 
	.dwcfi	cfa_offset, 0
        ; BRANCH OCCURS                  ; [] 
	.dwattr $C$DW$202, DW_AT_TI_end_file("../esp8266.c")
	.dwattr $C$DW$202, DW_AT_TI_end_line(0x222)
	.dwattr $C$DW$202, DW_AT_TI_end_column(0x01)
	.dwendentry
	.dwendtag $C$DW$202

;******************************************************************************
;* STRINGS                                                                    *
;******************************************************************************
	.sect	".text"
	.align	4
||$C$SL19||:	.string	"AT+CWLAP",13,10,0
	.align	4
||$C$SL20||:	.string	"AT+CWQAP",13,10,0
	.sect	".text"
	.clink
	.thumbfunc ESP8266_SendTCP
	.thumb
	.global	ESP8266_SendTCP

$C$DW$211	.dwtag  DW_TAG_subprogram, DW_AT_name("ESP8266_SendTCP")
	.dwattr $C$DW$211, DW_AT_low_pc(ESP8266_SendTCP)
	.dwattr $C$DW$211, DW_AT_high_pc(0x00)
	.dwattr $C$DW$211, DW_AT_TI_symbol_name("ESP8266_SendTCP")
	.dwattr $C$DW$211, DW_AT_external
	.dwattr $C$DW$211, DW_AT_type(*$C$DW$T$10)
	.dwattr $C$DW$211, DW_AT_TI_begin_file("../esp8266.c")
	.dwattr $C$DW$211, DW_AT_TI_begin_line(0x228)
	.dwattr $C$DW$211, DW_AT_TI_begin_column(0x05)
	.dwattr $C$DW$211, DW_AT_decl_file("../esp8266.c")
	.dwattr $C$DW$211, DW_AT_decl_line(0x228)
	.dwattr $C$DW$211, DW_AT_decl_column(0x05)
	.dwattr $C$DW$211, DW_AT_TI_max_frame_size(0x10)
	.dwpsn	file "../esp8266.c",line 552,column 33,is_stmt,address ESP8266_SendTCP,isa 1

	.dwfde $C$DW$CIE, ESP8266_SendTCP
$C$DW$212	.dwtag  DW_TAG_formal_parameter, DW_AT_name("fetch")
	.dwattr $C$DW$212, DW_AT_TI_symbol_name("fetch")
	.dwattr $C$DW$212, DW_AT_type(*$C$DW$T$35)
	.dwattr $C$DW$212, DW_AT_location[DW_OP_reg0]

;*****************************************************************************
;* FUNCTION NAME: ESP8266_SendTCP                                            *
;*                                                                           *
;*   Regs Modified     : A1,A2,A3,A4,V9,SP,LR,SR,D0,D0_hi,D1,D1_hi,D2,D2_hi, *
;*                           D3,D3_hi,D4,D4_hi,D5,D5_hi,D6,D6_hi,D7,D7_hi,   *
;*                           FPEXC,FPSCR                                     *
;*   Regs Used         : A1,A2,A3,A4,V9,SP,LR,SR,D0,D0_hi,D1,D1_hi,D2,D2_hi, *
;*                           D3,D3_hi,D4,D4_hi,D5,D5_hi,D6,D6_hi,D7,D7_hi,   *
;*                           FPEXC,FPSCR                                     *
;*   Local Frame Size  : 0 Args + 12 Auto + 4 Save = 16 byte                 *
;*****************************************************************************
ESP8266_SendTCP:
;* --------------------------------------------------------------------------*
	.dwcfi	cfa_offset, 0
        PUSH      {A2, A3, A4, LR}      ; [DPU_3_PIPE] 
	.dwcfi	cfa_offset, 16
	.dwcfi	save_reg_to_mem, 14, -4
	.dwcfi	save_reg_to_mem, 3, -8
	.dwcfi	save_reg_to_mem, 2, -12
	.dwcfi	save_reg_to_mem, 1, -16
$C$DW$213	.dwtag  DW_TAG_variable, DW_AT_name("fetch")
	.dwattr $C$DW$213, DW_AT_TI_symbol_name("fetch")
	.dwattr $C$DW$213, DW_AT_type(*$C$DW$T$35)
	.dwattr $C$DW$213, DW_AT_location[DW_OP_breg13 0]
$C$DW$214	.dwtag  DW_TAG_variable, DW_AT_name("time")
	.dwattr $C$DW$214, DW_AT_TI_symbol_name("time")
	.dwattr $C$DW$214, DW_AT_type(*$C$DW$T$88)
	.dwattr $C$DW$214, DW_AT_location[DW_OP_breg13 4]
$C$DW$215	.dwtag  DW_TAG_variable, DW_AT_name("n")
	.dwattr $C$DW$215, DW_AT_TI_symbol_name("n")
	.dwattr $C$DW$215, DW_AT_type(*$C$DW$T$88)
	.dwattr $C$DW$215, DW_AT_location[DW_OP_breg13 8]
;----------------------------------------------------------------------
; 552 | int ESP8266_SendTCP(char* fetch){                                      
; 553 | volatile uint32_t time,n;                                              
;----------------------------------------------------------------------
        STR       A1, [SP, #0]          ; [DPU_3_PIPE] |552| 
	.dwpsn	file "../esp8266.c",line 554,column 3,is_stmt,isa 1
;----------------------------------------------------------------------
; 554 | sprintf((char*)TXBuffer, "AT+CIPSEND=%d\r\n", strlen(fetch));          
;----------------------------------------------------------------------
        LDR       A1, [SP, #0]          ; [DPU_3_PIPE] |554| 
$C$DW$216	.dwtag  DW_TAG_TI_branch
	.dwattr $C$DW$216, DW_AT_low_pc(0x00)
	.dwattr $C$DW$216, DW_AT_name("strlen")
	.dwattr $C$DW$216, DW_AT_TI_call
        BL        strlen                ; [DPU_3_PIPE] |554| 
        ; CALL OCCURS {strlen }          ; [] |554| 
        MOV       A3, A1                ; [DPU_3_PIPE] |554| 
        LDR       A1, $C$CON47          ; [DPU_3_PIPE] |554| 
        ADR       A2, $C$SL24           ; [DPU_3_PIPE] |554| 
$C$DW$217	.dwtag  DW_TAG_TI_branch
	.dwattr $C$DW$217, DW_AT_low_pc(0x00)
	.dwattr $C$DW$217, DW_AT_name("sprintf")
	.dwattr $C$DW$217, DW_AT_TI_call
        BL        sprintf               ; [DPU_3_PIPE] |554| 
        ; CALL OCCURS {sprintf }         ; [] |554| 
	.dwpsn	file "../esp8266.c",line 555,column 3,is_stmt,isa 1
;----------------------------------------------------------------------
; 555 | ESP8266SendCommand(TXBuffer);                                          
;----------------------------------------------------------------------
        LDR       A1, $C$CON47          ; [DPU_3_PIPE] |555| 
$C$DW$218	.dwtag  DW_TAG_TI_branch
	.dwattr $C$DW$218, DW_AT_low_pc(0x00)
	.dwattr $C$DW$218, DW_AT_name("ESP8266SendCommand")
	.dwattr $C$DW$218, DW_AT_TI_call
        BL        ESP8266SendCommand    ; [DPU_3_PIPE] |555| 
        ; CALL OCCURS {ESP8266SendCommand }  ; [] |555| 
	.dwpsn	file "../esp8266.c",line 556,column 3,is_stmt,isa 1
;----------------------------------------------------------------------
; 556 | DelayMs(50);                                                           
;----------------------------------------------------------------------
        MOVS      A1, #50               ; [DPU_3_PIPE] |556| 
$C$DW$219	.dwtag  DW_TAG_TI_branch
	.dwattr $C$DW$219, DW_AT_low_pc(0x00)
	.dwattr $C$DW$219, DW_AT_name("DelayMs")
	.dwattr $C$DW$219, DW_AT_TI_call
        BL        DelayMs               ; [DPU_3_PIPE] |556| 
        ; CALL OCCURS {DelayMs }         ; [] |556| 
	.dwpsn	file "../esp8266.c",line 557,column 3,is_stmt,isa 1
;----------------------------------------------------------------------
; 557 | ESP8266SendCommand(fetch);                                             
;----------------------------------------------------------------------
        LDR       A1, [SP, #0]          ; [DPU_3_PIPE] |557| 
$C$DW$220	.dwtag  DW_TAG_TI_branch
	.dwattr $C$DW$220, DW_AT_low_pc(0x00)
	.dwattr $C$DW$220, DW_AT_name("ESP8266SendCommand")
	.dwattr $C$DW$220, DW_AT_TI_call
        BL        ESP8266SendCommand    ; [DPU_3_PIPE] |557| 
        ; CALL OCCURS {ESP8266SendCommand }  ; [] |557| 
	.dwpsn	file "../esp8266.c",line 558,column 3,is_stmt,isa 1
;----------------------------------------------------------------------
; 558 | ServerResponseSearchStart();                                           
;----------------------------------------------------------------------
$C$DW$221	.dwtag  DW_TAG_TI_branch
	.dwattr $C$DW$221, DW_AT_low_pc(0x00)
	.dwattr $C$DW$221, DW_AT_name("ServerResponseSearchStart")
	.dwattr $C$DW$221, DW_AT_TI_call
        BL        ServerResponseSearchStart ; [DPU_3_PIPE] |558| 
        ; CALL OCCURS {ServerResponseSearchStart }  ; [] |558| 
	.dwpsn	file "../esp8266.c",line 559,column 3,is_stmt,isa 1
;----------------------------------------------------------------------
; 559 | n = 8000;                                                              
;----------------------------------------------------------------------
        MOV       A1, #8000             ; [DPU_3_PIPE] |559| 
        STR       A1, [SP, #8]          ; [DPU_3_PIPE] |559| 
	.dwpsn	file "../esp8266.c",line 560,column 3,is_stmt,isa 1
;----------------------------------------------------------------------
; 560 | while(n&&(ServerResponseSearchFinished==0)){                           
;----------------------------------------------------------------------
        B         ||$C$L82||            ; [DPU_3_PIPE] |560| 
        ; BRANCH OCCURS {||$C$L82||}     ; [] |560| 
;* --------------------------------------------------------------------------*
||$C$L79||:    
	.dwpsn	file "../esp8266.c",line 561,column 5,is_stmt,isa 1
;----------------------------------------------------------------------
; 561 | time = (75825*8)/91;  // 1msec, tuned at 80 MHz                        
;----------------------------------------------------------------------
        MOV       A1, #6665             ; [DPU_3_PIPE] |561| 
        STR       A1, [SP, #4]          ; [DPU_3_PIPE] |561| 
	.dwpsn	file "../esp8266.c",line 562,column 5,is_stmt,isa 1
;----------------------------------------------------------------------
; 562 | while(time){                                                           
;----------------------------------------------------------------------
        LDR       A1, [SP, #4]          ; [DPU_3_PIPE] |562| 
        CBZ       A1, ||$C$L81||        ; [] 
        ; BRANCHCC OCCURS {||$C$L81||}   ; [] |562| 
;* --------------------------------------------------------------------------*
;*   BEGIN LOOP ||$C$L80||
;*
;*   Loop source line                : 562
;*   Loop closing brace source line  : 564
;*   Known Minimum Trip Count        : 1
;*   Known Maximum Trip Count        : 4294967295
;*   Known Max Trip Count Factor     : 1
;* --------------------------------------------------------------------------*
||$C$L80||:    
	.dwpsn	file "../esp8266.c",line 563,column 7,is_stmt,isa 1
;----------------------------------------------------------------------
; 563 | time--;                                                                
;----------------------------------------------------------------------
        LDR       A1, [SP, #4]          ; [DPU_3_PIPE] |563| 
        SUBS      A1, A1, #1            ; [DPU_3_PIPE] |563| 
        STR       A1, [SP, #4]          ; [DPU_3_PIPE] |563| 
	.dwpsn	file "../esp8266.c",line 562,column 5,is_stmt,isa 1
        LDR       A1, [SP, #4]          ; [DPU_3_PIPE] |562| 
        CMP       A1, #0                ; [DPU_3_PIPE] |562| 
        BNE       ||$C$L80||            ; [DPU_3_PIPE] |562| 
        ; BRANCHCC OCCURS {||$C$L80||}   ; [] |562| 
;* --------------------------------------------------------------------------*
||$C$L81||:    
	.dwpsn	file "../esp8266.c",line 565,column 5,is_stmt,isa 1
;----------------------------------------------------------------------
; 565 | n--;                                                                   
;----------------------------------------------------------------------
        LDR       A1, [SP, #8]          ; [DPU_3_PIPE] |565| 
        SUBS      A1, A1, #1            ; [DPU_3_PIPE] |565| 
        STR       A1, [SP, #8]          ; [DPU_3_PIPE] |565| 
;* --------------------------------------------------------------------------*
;*   BEGIN LOOP ||$C$L82||
;* --------------------------------------------------------------------------*
||$C$L82||:    
	.dwpsn	file "../esp8266.c",line 560,column 9,is_stmt,isa 1
        LDR       A1, [SP, #8]          ; [DPU_3_PIPE] |560| 
        CBZ       A1, ||$C$L83||        ; [] 
        ; BRANCHCC OCCURS {||$C$L83||}   ; [] |560| 
;* --------------------------------------------------------------------------*
        LDR       A1, $C$CON50          ; [DPU_3_PIPE] |560| 
        LDR       A1, [A1, #0]          ; [DPU_3_PIPE] |560| 
        CMP       A1, #0                ; [DPU_3_PIPE] |560| 
        BEQ       ||$C$L79||            ; [DPU_3_PIPE] |560| 
        ; BRANCHCC OCCURS {||$C$L79||}   ; [] |560| 
;* --------------------------------------------------------------------------*
||$C$L83||:    
	.dwpsn	file "../esp8266.c",line 567,column 3,is_stmt,isa 1
;----------------------------------------------------------------------
; 567 | if(ServerResponseSearchFinished==0) return 0; // no response           
;----------------------------------------------------------------------
        LDR       A1, $C$CON50          ; [DPU_3_PIPE] |567| 
        LDR       A1, [A1, #0]          ; [DPU_3_PIPE] |567| 
        CBNZ      A1, ||$C$L84||        ; [] 
        ; BRANCHCC OCCURS {||$C$L84||}   ; [] |567| 
;* --------------------------------------------------------------------------*
	.dwpsn	file "../esp8266.c",line 567,column 39,is_stmt,isa 1
        MOVS      A1, #0                ; [DPU_3_PIPE] |567| 
        B         ||$C$L85||            ; [DPU_3_PIPE] |567| 
        ; BRANCH OCCURS {||$C$L85||}     ; [] |567| 
;* --------------------------------------------------------------------------*
||$C$L84||:    
	.dwpsn	file "../esp8266.c",line 568,column 3,is_stmt,isa 1
;----------------------------------------------------------------------
; 568 | return 1; // success                                                   
;----------------------------------------------------------------------
        MOVS      A1, #1                ; [DPU_3_PIPE] |568| 
;* --------------------------------------------------------------------------*
||$C$L85||:    
	.dwpsn	file "../esp8266.c",line 569,column 1,is_stmt,isa 1
$C$DW$222	.dwtag  DW_TAG_TI_branch
	.dwattr $C$DW$222, DW_AT_low_pc(0x00)
	.dwattr $C$DW$222, DW_AT_TI_return
        POP       {A2, A3, A4, PC}      ; [DPU_3_PIPE] 
	.dwcfi	cfa_offset, 0
        ; BRANCH OCCURS                  ; [] 
	.dwattr $C$DW$211, DW_AT_TI_end_file("../esp8266.c")
	.dwattr $C$DW$211, DW_AT_TI_end_line(0x239)
	.dwattr $C$DW$211, DW_AT_TI_end_column(0x01)
	.dwendentry
	.dwendtag $C$DW$211

	.sect	".text"
	.clink
	.thumbfunc ESP8266_CloseTCPConnection
	.thumb
	.global	ESP8266_CloseTCPConnection

$C$DW$223	.dwtag  DW_TAG_subprogram, DW_AT_name("ESP8266_CloseTCPConnection")
	.dwattr $C$DW$223, DW_AT_low_pc(ESP8266_CloseTCPConnection)
	.dwattr $C$DW$223, DW_AT_high_pc(0x00)
	.dwattr $C$DW$223, DW_AT_TI_symbol_name("ESP8266_CloseTCPConnection")
	.dwattr $C$DW$223, DW_AT_external
	.dwattr $C$DW$223, DW_AT_type(*$C$DW$T$10)
	.dwattr $C$DW$223, DW_AT_TI_begin_file("../esp8266.c")
	.dwattr $C$DW$223, DW_AT_TI_begin_line(0x23f)
	.dwattr $C$DW$223, DW_AT_TI_begin_column(0x05)
	.dwattr $C$DW$223, DW_AT_decl_file("../esp8266.c")
	.dwattr $C$DW$223, DW_AT_decl_line(0x23f)
	.dwattr $C$DW$223, DW_AT_decl_column(0x05)
	.dwattr $C$DW$223, DW_AT_TI_max_frame_size(0x08)
	.dwpsn	file "../esp8266.c",line 575,column 37,is_stmt,address ESP8266_CloseTCPConnection,isa 1

	.dwfde $C$DW$CIE, ESP8266_CloseTCPConnection
;----------------------------------------------------------------------
; 575 | int ESP8266_CloseTCPConnection(void){                                  
;----------------------------------------------------------------------

;*****************************************************************************
;* FUNCTION NAME: ESP8266_CloseTCPConnection                                 *
;*                                                                           *
;*   Regs Modified     : A1,A2,A3,A4,V9,SP,LR,SR,D0,D0_hi,D1,D1_hi,D2,D2_hi, *
;*                           D3,D3_hi,D4,D4_hi,D5,D5_hi,D6,D6_hi,D7,D7_hi,   *
;*                           FPEXC,FPSCR                                     *
;*   Regs Used         : A1,A2,A3,A4,V9,SP,LR,SR,D0,D0_hi,D1,D1_hi,D2,D2_hi, *
;*                           D3,D3_hi,D4,D4_hi,D5,D5_hi,D6,D6_hi,D7,D7_hi,   *
;*                           FPEXC,FPSCR                                     *
;*   Local Frame Size  : 0 Args + 4 Auto + 4 Save = 8 byte                   *
;*****************************************************************************
ESP8266_CloseTCPConnection:
;* --------------------------------------------------------------------------*
	.dwcfi	cfa_offset, 0
        PUSH      {A4, LR}              ; [DPU_3_PIPE] 
	.dwcfi	cfa_offset, 8
	.dwcfi	save_reg_to_mem, 14, -4
	.dwcfi	save_reg_to_mem, 3, -8
$C$DW$224	.dwtag  DW_TAG_variable, DW_AT_name("try")
	.dwattr $C$DW$224, DW_AT_TI_symbol_name("try")
	.dwattr $C$DW$224, DW_AT_type(*$C$DW$T$10)
	.dwattr $C$DW$224, DW_AT_location[DW_OP_breg13 0]
	.dwpsn	file "../esp8266.c",line 576,column 10,is_stmt,isa 1
;----------------------------------------------------------------------
; 576 | int try=1;                                                             
;----------------------------------------------------------------------
        MOVS      A1, #1                ; [DPU_3_PIPE] |576| 
        STR       A1, [SP, #0]          ; [DPU_3_PIPE] |576| 
	.dwpsn	file "../esp8266.c",line 577,column 3,is_stmt,isa 1
;----------------------------------------------------------------------
; 577 | SearchStart("ok");                                                     
;----------------------------------------------------------------------
        LDR       A1, $C$CON48          ; [] |577| 
$C$DW$225	.dwtag  DW_TAG_TI_branch
	.dwattr $C$DW$225, DW_AT_low_pc(0x00)
	.dwattr $C$DW$225, DW_AT_name("SearchStart")
	.dwattr $C$DW$225, DW_AT_TI_call
        BL        SearchStart           ; [DPU_3_PIPE] |577| 
        ; CALL OCCURS {SearchStart }     ; [] |577| 
	.dwpsn	file "../esp8266.c",line 578,column 3,is_stmt,isa 1
;----------------------------------------------------------------------
; 578 | while(try){                                                            
;----------------------------------------------------------------------
        LDR       A1, [SP, #0]          ; [DPU_3_PIPE] |578| 
        CBZ       A1, ||$C$L88||        ; [] 
        ; BRANCHCC OCCURS {||$C$L88||}   ; [] |578| 
;* --------------------------------------------------------------------------*
;*   BEGIN LOOP ||$C$L86||
;*
;*   Loop source line                : 578
;*   Loop closing brace source line  : 583
;*   Known Minimum Trip Count        : 1
;*   Known Maximum Trip Count        : 4294967295
;*   Known Max Trip Count Factor     : 1
;* --------------------------------------------------------------------------*
||$C$L86||:    
	.dwpsn	file "../esp8266.c",line 579,column 5,is_stmt,isa 1
;----------------------------------------------------------------------
; 579 | ESP8266SendCommand("AT+CIPCLOSE\r\n");                                 
;----------------------------------------------------------------------
        ADR       A1, $C$SL25           ; [DPU_3_PIPE] |579| 
$C$DW$226	.dwtag  DW_TAG_TI_branch
	.dwattr $C$DW$226, DW_AT_low_pc(0x00)
	.dwattr $C$DW$226, DW_AT_name("ESP8266SendCommand")
	.dwattr $C$DW$226, DW_AT_TI_call
        BL        ESP8266SendCommand    ; [DPU_3_PIPE] |579| 
        ; CALL OCCURS {ESP8266SendCommand }  ; [] |579| 
	.dwpsn	file "../esp8266.c",line 580,column 5,is_stmt,isa 1
;----------------------------------------------------------------------
; 580 | DelayMsSearching(4000);                                                
;----------------------------------------------------------------------
        MOV       A1, #4000             ; [DPU_3_PIPE] |580| 
$C$DW$227	.dwtag  DW_TAG_TI_branch
	.dwattr $C$DW$227, DW_AT_low_pc(0x00)
	.dwattr $C$DW$227, DW_AT_name("DelayMsSearching")
	.dwattr $C$DW$227, DW_AT_TI_call
        BL        DelayMsSearching      ; [DPU_3_PIPE] |580| 
        ; CALL OCCURS {DelayMsSearching }  ; [] |580| 
	.dwpsn	file "../esp8266.c",line 581,column 5,is_stmt,isa 1
;----------------------------------------------------------------------
; 581 | if(SearchFound) return 1; // success                                   
;----------------------------------------------------------------------
        LDR       A1, $C$CON49          ; [DPU_3_PIPE] |581| 
        LDRB      A1, [A1, #0]          ; [DPU_3_PIPE] |581| 
        CBZ       A1, ||$C$L87||        ; [] 
        ; BRANCHCC OCCURS {||$C$L87||}   ; [] |581| 
;* --------------------------------------------------------------------------*
	.dwpsn	file "../esp8266.c",line 581,column 21,is_stmt,isa 1
        MOVS      A1, #1                ; [DPU_3_PIPE] |581| 
        B         ||$C$L89||            ; [DPU_3_PIPE] |581| 
        ; BRANCH OCCURS {||$C$L89||}     ; [] |581| 
;* --------------------------------------------------------------------------*
||$C$L87||:    
	.dwpsn	file "../esp8266.c",line 582,column 5,is_stmt,isa 1
;----------------------------------------------------------------------
; 582 | try--;                                                                 
;----------------------------------------------------------------------
        LDR       A1, [SP, #0]          ; [DPU_3_PIPE] |582| 
        SUBS      A1, A1, #1            ; [DPU_3_PIPE] |582| 
        STR       A1, [SP, #0]          ; [DPU_3_PIPE] |582| 
	.dwpsn	file "../esp8266.c",line 578,column 3,is_stmt,isa 1
        LDR       A1, [SP, #0]          ; [DPU_3_PIPE] |578| 
        CMP       A1, #0                ; [DPU_3_PIPE] |578| 
        BNE       ||$C$L86||            ; [DPU_3_PIPE] |578| 
        ; BRANCHCC OCCURS {||$C$L86||}   ; [] |578| 
;* --------------------------------------------------------------------------*
||$C$L88||:    
	.dwpsn	file "../esp8266.c",line 584,column 3,is_stmt,isa 1
;----------------------------------------------------------------------
; 584 | return 0; // fail                                                      
;----------------------------------------------------------------------
        MOVS      A1, #0                ; [DPU_3_PIPE] |584| 
;* --------------------------------------------------------------------------*
||$C$L89||:    
	.dwpsn	file "../esp8266.c",line 585,column 1,is_stmt,isa 1
$C$DW$228	.dwtag  DW_TAG_TI_branch
	.dwattr $C$DW$228, DW_AT_low_pc(0x00)
	.dwattr $C$DW$228, DW_AT_TI_return
        POP       {A4, PC}              ; [DPU_3_PIPE] 
	.dwcfi	cfa_offset, 0
        ; BRANCH OCCURS                  ; [] 
	.dwattr $C$DW$223, DW_AT_TI_end_file("../esp8266.c")
	.dwattr $C$DW$223, DW_AT_TI_end_line(0x249)
	.dwattr $C$DW$223, DW_AT_TI_end_column(0x01)
	.dwendentry
	.dwendtag $C$DW$223

	.sect	".text"
	.clink
	.thumbfunc ESP8266_SetDataTransmissionMode
	.thumb
	.global	ESP8266_SetDataTransmissionMode

$C$DW$229	.dwtag  DW_TAG_subprogram, DW_AT_name("ESP8266_SetDataTransmissionMode")
	.dwattr $C$DW$229, DW_AT_low_pc(ESP8266_SetDataTransmissionMode)
	.dwattr $C$DW$229, DW_AT_high_pc(0x00)
	.dwattr $C$DW$229, DW_AT_TI_symbol_name("ESP8266_SetDataTransmissionMode")
	.dwattr $C$DW$229, DW_AT_external
	.dwattr $C$DW$229, DW_AT_type(*$C$DW$T$10)
	.dwattr $C$DW$229, DW_AT_TI_begin_file("../esp8266.c")
	.dwattr $C$DW$229, DW_AT_TI_begin_line(0x24e)
	.dwattr $C$DW$229, DW_AT_TI_begin_column(0x05)
	.dwattr $C$DW$229, DW_AT_decl_file("../esp8266.c")
	.dwattr $C$DW$229, DW_AT_decl_line(0x24e)
	.dwattr $C$DW$229, DW_AT_decl_column(0x05)
	.dwattr $C$DW$229, DW_AT_TI_max_frame_size(0x10)
	.dwpsn	file "../esp8266.c",line 590,column 50,is_stmt,address ESP8266_SetDataTransmissionMode,isa 1

	.dwfde $C$DW$CIE, ESP8266_SetDataTransmissionMode
$C$DW$230	.dwtag  DW_TAG_formal_parameter, DW_AT_name("mode")
	.dwattr $C$DW$230, DW_AT_TI_symbol_name("mode")
	.dwattr $C$DW$230, DW_AT_type(*$C$DW$T$53)
	.dwattr $C$DW$230, DW_AT_location[DW_OP_reg0]

;*****************************************************************************
;* FUNCTION NAME: ESP8266_SetDataTransmissionMode                            *
;*                                                                           *
;*   Regs Modified     : A1,A2,A3,A4,V9,SP,LR,SR,D0,D0_hi,D1,D1_hi,D2,D2_hi, *
;*                           D3,D3_hi,D4,D4_hi,D5,D5_hi,D6,D6_hi,D7,D7_hi,   *
;*                           FPEXC,FPSCR                                     *
;*   Regs Used         : A1,A2,A3,A4,V9,SP,LR,SR,D0,D0_hi,D1,D1_hi,D2,D2_hi, *
;*                           D3,D3_hi,D4,D4_hi,D5,D5_hi,D6,D6_hi,D7,D7_hi,   *
;*                           FPEXC,FPSCR                                     *
;*   Local Frame Size  : 0 Args + 8 Auto + 4 Save = 12 byte                  *
;*****************************************************************************
ESP8266_SetDataTransmissionMode:
;* --------------------------------------------------------------------------*
	.dwcfi	cfa_offset, 0
        PUSH      {A2, A3, A4, LR}      ; [DPU_3_PIPE] 
	.dwcfi	cfa_offset, 16
	.dwcfi	save_reg_to_mem, 14, -4
	.dwcfi	save_reg_to_mem, 3, -8
	.dwcfi	save_reg_to_mem, 2, -12
	.dwcfi	save_reg_to_mem, 1, -16
$C$DW$231	.dwtag  DW_TAG_variable, DW_AT_name("mode")
	.dwattr $C$DW$231, DW_AT_TI_symbol_name("mode")
	.dwattr $C$DW$231, DW_AT_type(*$C$DW$T$53)
	.dwattr $C$DW$231, DW_AT_location[DW_OP_breg13 0]
$C$DW$232	.dwtag  DW_TAG_variable, DW_AT_name("try")
	.dwattr $C$DW$232, DW_AT_TI_symbol_name("try")
	.dwattr $C$DW$232, DW_AT_type(*$C$DW$T$10)
	.dwattr $C$DW$232, DW_AT_location[DW_OP_breg13 4]
;----------------------------------------------------------------------
; 590 | int ESP8266_SetDataTransmissionMode(uint8_t mode){                     
;----------------------------------------------------------------------
        STRB      A1, [SP, #0]          ; [DPU_3_PIPE] |590| 
	.dwpsn	file "../esp8266.c",line 591,column 10,is_stmt,isa 1
;----------------------------------------------------------------------
; 591 | int try=MAXTRY;                                                        
;----------------------------------------------------------------------
        MOVS      A1, #10               ; [DPU_3_PIPE] |591| 
        STR       A1, [SP, #4]          ; [DPU_3_PIPE] |591| 
	.dwpsn	file "../esp8266.c",line 592,column 3,is_stmt,isa 1
;----------------------------------------------------------------------
; 592 | SearchStart("ok");                                                     
;----------------------------------------------------------------------
        LDR       A1, $C$CON48          ; [] |592| 
$C$DW$233	.dwtag  DW_TAG_TI_branch
	.dwattr $C$DW$233, DW_AT_low_pc(0x00)
	.dwattr $C$DW$233, DW_AT_name("SearchStart")
	.dwattr $C$DW$233, DW_AT_TI_call
        BL        SearchStart           ; [DPU_3_PIPE] |592| 
        ; CALL OCCURS {SearchStart }     ; [] |592| 
	.dwpsn	file "../esp8266.c",line 593,column 3,is_stmt,isa 1
;----------------------------------------------------------------------
; 593 | while(try){                                                            
;----------------------------------------------------------------------
        LDR       A1, [SP, #4]          ; [DPU_3_PIPE] |593| 
        CBZ       A1, ||$C$L92||        ; [] 
        ; BRANCHCC OCCURS {||$C$L92||}   ; [] |593| 
;* --------------------------------------------------------------------------*
;*   BEGIN LOOP ||$C$L90||
;*
;*   Loop source line                : 593
;*   Loop closing brace source line  : 599
;*   Known Minimum Trip Count        : 1
;*   Known Maximum Trip Count        : 4294967295
;*   Known Max Trip Count Factor     : 1
;* --------------------------------------------------------------------------*
||$C$L90||:    
	.dwpsn	file "../esp8266.c",line 594,column 5,is_stmt,isa 1
;----------------------------------------------------------------------
; 594 | sprintf((char*)TXBuffer, "AT+CIPMODE=%d\r\n", mode);                   
;----------------------------------------------------------------------
        LDRB      A3, [SP, #0]          ; [DPU_3_PIPE] |594| 
        LDR       A1, $C$CON47          ; [DPU_3_PIPE] |594| 
        ADR       A2, $C$SL26           ; [DPU_3_PIPE] |594| 
$C$DW$234	.dwtag  DW_TAG_TI_branch
	.dwattr $C$DW$234, DW_AT_low_pc(0x00)
	.dwattr $C$DW$234, DW_AT_name("sprintf")
	.dwattr $C$DW$234, DW_AT_TI_call
        BL        sprintf               ; [DPU_3_PIPE] |594| 
        ; CALL OCCURS {sprintf }         ; [] |594| 
	.dwpsn	file "../esp8266.c",line 595,column 5,is_stmt,isa 1
;----------------------------------------------------------------------
; 595 | ESP8266SendCommand((const char*)TXBuffer);                             
;----------------------------------------------------------------------
        LDR       A1, $C$CON47          ; [DPU_3_PIPE] |595| 
$C$DW$235	.dwtag  DW_TAG_TI_branch
	.dwattr $C$DW$235, DW_AT_low_pc(0x00)
	.dwattr $C$DW$235, DW_AT_name("ESP8266SendCommand")
	.dwattr $C$DW$235, DW_AT_TI_call
        BL        ESP8266SendCommand    ; [DPU_3_PIPE] |595| 
        ; CALL OCCURS {ESP8266SendCommand }  ; [] |595| 
	.dwpsn	file "../esp8266.c",line 596,column 5,is_stmt,isa 1
;----------------------------------------------------------------------
; 596 | DelayMsSearching(5000);                                                
;----------------------------------------------------------------------
        MOV       A1, #5000             ; [DPU_3_PIPE] |596| 
$C$DW$236	.dwtag  DW_TAG_TI_branch
	.dwattr $C$DW$236, DW_AT_low_pc(0x00)
	.dwattr $C$DW$236, DW_AT_name("DelayMsSearching")
	.dwattr $C$DW$236, DW_AT_TI_call
        BL        DelayMsSearching      ; [DPU_3_PIPE] |596| 
        ; CALL OCCURS {DelayMsSearching }  ; [] |596| 
	.dwpsn	file "../esp8266.c",line 597,column 5,is_stmt,isa 1
;----------------------------------------------------------------------
; 597 | if(SearchFound) return 1; // success                                   
;----------------------------------------------------------------------
        LDR       A1, $C$CON49          ; [DPU_3_PIPE] |597| 
        LDRB      A1, [A1, #0]          ; [DPU_3_PIPE] |597| 
        CBZ       A1, ||$C$L91||        ; [] 
        ; BRANCHCC OCCURS {||$C$L91||}   ; [] |597| 
;* --------------------------------------------------------------------------*
	.dwpsn	file "../esp8266.c",line 597,column 21,is_stmt,isa 1
        MOVS      A1, #1                ; [DPU_3_PIPE] |597| 
        B         ||$C$L93||            ; [DPU_3_PIPE] |597| 
        ; BRANCH OCCURS {||$C$L93||}     ; [] |597| 
;* --------------------------------------------------------------------------*
||$C$L91||:    
	.dwpsn	file "../esp8266.c",line 598,column 5,is_stmt,isa 1
;----------------------------------------------------------------------
; 598 | try--;                                                                 
;----------------------------------------------------------------------
        LDR       A1, [SP, #4]          ; [DPU_3_PIPE] |598| 
        SUBS      A1, A1, #1            ; [DPU_3_PIPE] |598| 
        STR       A1, [SP, #4]          ; [DPU_3_PIPE] |598| 
	.dwpsn	file "../esp8266.c",line 593,column 3,is_stmt,isa 1
        LDR       A1, [SP, #4]          ; [DPU_3_PIPE] |593| 
        CMP       A1, #0                ; [DPU_3_PIPE] |593| 
        BNE       ||$C$L90||            ; [DPU_3_PIPE] |593| 
        ; BRANCHCC OCCURS {||$C$L90||}   ; [] |593| 
;* --------------------------------------------------------------------------*
||$C$L92||:    
	.dwpsn	file "../esp8266.c",line 600,column 3,is_stmt,isa 1
;----------------------------------------------------------------------
; 600 | return 0; // fail                                                      
;----------------------------------------------------------------------
        MOVS      A1, #0                ; [DPU_3_PIPE] |600| 
;* --------------------------------------------------------------------------*
||$C$L93||:    
	.dwpsn	file "../esp8266.c",line 601,column 1,is_stmt,isa 1
$C$DW$237	.dwtag  DW_TAG_TI_branch
	.dwattr $C$DW$237, DW_AT_low_pc(0x00)
	.dwattr $C$DW$237, DW_AT_TI_return
        POP       {A2, A3, A4, PC}      ; [DPU_3_PIPE] 
	.dwcfi	cfa_offset, 0
        ; BRANCH OCCURS                  ; [] 
	.dwattr $C$DW$229, DW_AT_TI_end_file("../esp8266.c")
	.dwattr $C$DW$229, DW_AT_TI_end_line(0x259)
	.dwattr $C$DW$229, DW_AT_TI_end_column(0x01)
	.dwendentry
	.dwendtag $C$DW$229

	.sect	".text"
	.clink
	.thumbfunc ESP8266_GetStatus
	.thumb
	.global	ESP8266_GetStatus

$C$DW$238	.dwtag  DW_TAG_subprogram, DW_AT_name("ESP8266_GetStatus")
	.dwattr $C$DW$238, DW_AT_low_pc(ESP8266_GetStatus)
	.dwattr $C$DW$238, DW_AT_high_pc(0x00)
	.dwattr $C$DW$238, DW_AT_TI_symbol_name("ESP8266_GetStatus")
	.dwattr $C$DW$238, DW_AT_external
	.dwattr $C$DW$238, DW_AT_type(*$C$DW$T$10)
	.dwattr $C$DW$238, DW_AT_TI_begin_file("../esp8266.c")
	.dwattr $C$DW$238, DW_AT_TI_begin_line(0x25f)
	.dwattr $C$DW$238, DW_AT_TI_begin_column(0x05)
	.dwattr $C$DW$238, DW_AT_decl_file("../esp8266.c")
	.dwattr $C$DW$238, DW_AT_decl_line(0x25f)
	.dwattr $C$DW$238, DW_AT_decl_column(0x05)
	.dwattr $C$DW$238, DW_AT_TI_max_frame_size(0x08)
	.dwpsn	file "../esp8266.c",line 607,column 28,is_stmt,address ESP8266_GetStatus,isa 1

	.dwfde $C$DW$CIE, ESP8266_GetStatus
;----------------------------------------------------------------------
; 607 | int ESP8266_GetStatus(void){                                           
;----------------------------------------------------------------------

;*****************************************************************************
;* FUNCTION NAME: ESP8266_GetStatus                                          *
;*                                                                           *
;*   Regs Modified     : A1,A2,A3,A4,V9,SP,LR,SR,D0,D0_hi,D1,D1_hi,D2,D2_hi, *
;*                           D3,D3_hi,D4,D4_hi,D5,D5_hi,D6,D6_hi,D7,D7_hi,   *
;*                           FPEXC,FPSCR                                     *
;*   Regs Used         : A1,A2,A3,A4,V9,SP,LR,SR,D0,D0_hi,D1,D1_hi,D2,D2_hi, *
;*                           D3,D3_hi,D4,D4_hi,D5,D5_hi,D6,D6_hi,D7,D7_hi,   *
;*                           FPEXC,FPSCR                                     *
;*   Local Frame Size  : 0 Args + 4 Auto + 4 Save = 8 byte                   *
;*****************************************************************************
ESP8266_GetStatus:
;* --------------------------------------------------------------------------*
	.dwcfi	cfa_offset, 0
        PUSH      {A4, LR}              ; [DPU_3_PIPE] 
	.dwcfi	cfa_offset, 8
	.dwcfi	save_reg_to_mem, 14, -4
	.dwcfi	save_reg_to_mem, 3, -8
$C$DW$239	.dwtag  DW_TAG_variable, DW_AT_name("try")
	.dwattr $C$DW$239, DW_AT_TI_symbol_name("try")
	.dwattr $C$DW$239, DW_AT_type(*$C$DW$T$10)
	.dwattr $C$DW$239, DW_AT_location[DW_OP_breg13 0]
	.dwpsn	file "../esp8266.c",line 608,column 10,is_stmt,isa 1
;----------------------------------------------------------------------
; 608 | int try=MAXTRY;                                                        
;----------------------------------------------------------------------
        MOVS      A1, #10               ; [DPU_3_PIPE] |608| 
        STR       A1, [SP, #0]          ; [DPU_3_PIPE] |608| 
	.dwpsn	file "../esp8266.c",line 609,column 3,is_stmt,isa 1
;----------------------------------------------------------------------
; 609 | SearchStart("ok");                                                     
;----------------------------------------------------------------------
        LDR       A1, $C$CON48          ; [] |609| 
$C$DW$240	.dwtag  DW_TAG_TI_branch
	.dwattr $C$DW$240, DW_AT_low_pc(0x00)
	.dwattr $C$DW$240, DW_AT_name("SearchStart")
	.dwattr $C$DW$240, DW_AT_TI_call
        BL        SearchStart           ; [DPU_3_PIPE] |609| 
        ; CALL OCCURS {SearchStart }     ; [] |609| 
	.dwpsn	file "../esp8266.c",line 610,column 3,is_stmt,isa 1
;----------------------------------------------------------------------
; 610 | while(try){                                                            
;----------------------------------------------------------------------
        LDR       A1, [SP, #0]          ; [DPU_3_PIPE] |610| 
        CBZ       A1, ||$C$L96||        ; [] 
        ; BRANCHCC OCCURS {||$C$L96||}   ; [] |610| 
;* --------------------------------------------------------------------------*
;*   BEGIN LOOP ||$C$L94||
;*
;*   Loop source line                : 610
;*   Loop closing brace source line  : 615
;*   Known Minimum Trip Count        : 1
;*   Known Maximum Trip Count        : 4294967295
;*   Known Max Trip Count Factor     : 1
;* --------------------------------------------------------------------------*
||$C$L94||:    
	.dwpsn	file "../esp8266.c",line 611,column 5,is_stmt,isa 1
;----------------------------------------------------------------------
; 611 | ESP8266SendCommand("AT+CIPSTATUS\r\n");                                
;----------------------------------------------------------------------
        ADR       A1, $C$SL27           ; [DPU_3_PIPE] |611| 
$C$DW$241	.dwtag  DW_TAG_TI_branch
	.dwattr $C$DW$241, DW_AT_low_pc(0x00)
	.dwattr $C$DW$241, DW_AT_name("ESP8266SendCommand")
	.dwattr $C$DW$241, DW_AT_TI_call
        BL        ESP8266SendCommand    ; [DPU_3_PIPE] |611| 
        ; CALL OCCURS {ESP8266SendCommand }  ; [] |611| 
	.dwpsn	file "../esp8266.c",line 612,column 5,is_stmt,isa 1
;----------------------------------------------------------------------
; 612 | DelayMsSearching(5000);                                                
;----------------------------------------------------------------------
        MOV       A1, #5000             ; [DPU_3_PIPE] |612| 
$C$DW$242	.dwtag  DW_TAG_TI_branch
	.dwattr $C$DW$242, DW_AT_low_pc(0x00)
	.dwattr $C$DW$242, DW_AT_name("DelayMsSearching")
	.dwattr $C$DW$242, DW_AT_TI_call
        BL        DelayMsSearching      ; [DPU_3_PIPE] |612| 
        ; CALL OCCURS {DelayMsSearching }  ; [] |612| 
	.dwpsn	file "../esp8266.c",line 613,column 5,is_stmt,isa 1
;----------------------------------------------------------------------
; 613 | if(SearchFound) return 1; // success                                   
;----------------------------------------------------------------------
        LDR       A1, $C$CON49          ; [DPU_3_PIPE] |613| 
        LDRB      A1, [A1, #0]          ; [DPU_3_PIPE] |613| 
        CBZ       A1, ||$C$L95||        ; [] 
        ; BRANCHCC OCCURS {||$C$L95||}   ; [] |613| 
;* --------------------------------------------------------------------------*
	.dwpsn	file "../esp8266.c",line 613,column 21,is_stmt,isa 1
        MOVS      A1, #1                ; [DPU_3_PIPE] |613| 
        B         ||$C$L97||            ; [DPU_3_PIPE] |613| 
        ; BRANCH OCCURS {||$C$L97||}     ; [] |613| 
;* --------------------------------------------------------------------------*
||$C$L95||:    
	.dwpsn	file "../esp8266.c",line 614,column 5,is_stmt,isa 1
;----------------------------------------------------------------------
; 614 | try--;                                                                 
;----------------------------------------------------------------------
        LDR       A1, [SP, #0]          ; [DPU_3_PIPE] |614| 
        SUBS      A1, A1, #1            ; [DPU_3_PIPE] |614| 
        STR       A1, [SP, #0]          ; [DPU_3_PIPE] |614| 
	.dwpsn	file "../esp8266.c",line 610,column 3,is_stmt,isa 1
        LDR       A1, [SP, #0]          ; [DPU_3_PIPE] |610| 
        CMP       A1, #0                ; [DPU_3_PIPE] |610| 
        BNE       ||$C$L94||            ; [DPU_3_PIPE] |610| 
        ; BRANCHCC OCCURS {||$C$L94||}   ; [] |610| 
;* --------------------------------------------------------------------------*
||$C$L96||:    
	.dwpsn	file "../esp8266.c",line 616,column 3,is_stmt,isa 1
;----------------------------------------------------------------------
; 616 | return 0; // fail                                                      
;----------------------------------------------------------------------
        MOVS      A1, #0                ; [DPU_3_PIPE] |616| 
;* --------------------------------------------------------------------------*
||$C$L97||:    
	.dwpsn	file "../esp8266.c",line 617,column 1,is_stmt,isa 1
$C$DW$243	.dwtag  DW_TAG_TI_branch
	.dwattr $C$DW$243, DW_AT_low_pc(0x00)
	.dwattr $C$DW$243, DW_AT_TI_return
        POP       {A4, PC}              ; [DPU_3_PIPE] 
	.dwcfi	cfa_offset, 0
        ; BRANCH OCCURS                  ; [] 
	.dwattr $C$DW$238, DW_AT_TI_end_file("../esp8266.c")
	.dwattr $C$DW$238, DW_AT_TI_end_line(0x269)
	.dwattr $C$DW$238, DW_AT_TI_end_column(0x01)
	.dwendentry
	.dwendtag $C$DW$238

;******************************************************************************
;* CONSTANT TABLE                                                             *
;******************************************************************************
	.sect	".text"
	.align	4
||$C$CON47||:	.bits	TXBuffer,32
	.sect	".text"
	.clink
	.thumbfunc ESP8266_GetVersionNumber
	.thumb
	.global	ESP8266_GetVersionNumber

$C$DW$244	.dwtag  DW_TAG_subprogram, DW_AT_name("ESP8266_GetVersionNumber")
	.dwattr $C$DW$244, DW_AT_low_pc(ESP8266_GetVersionNumber)
	.dwattr $C$DW$244, DW_AT_high_pc(0x00)
	.dwattr $C$DW$244, DW_AT_TI_symbol_name("ESP8266_GetVersionNumber")
	.dwattr $C$DW$244, DW_AT_external
	.dwattr $C$DW$244, DW_AT_type(*$C$DW$T$10)
	.dwattr $C$DW$244, DW_AT_TI_begin_file("../esp8266.c")
	.dwattr $C$DW$244, DW_AT_TI_begin_line(0x26f)
	.dwattr $C$DW$244, DW_AT_TI_begin_column(0x05)
	.dwattr $C$DW$244, DW_AT_decl_file("../esp8266.c")
	.dwattr $C$DW$244, DW_AT_decl_line(0x26f)
	.dwattr $C$DW$244, DW_AT_decl_column(0x05)
	.dwattr $C$DW$244, DW_AT_TI_max_frame_size(0x08)
	.dwpsn	file "../esp8266.c",line 623,column 35,is_stmt,address ESP8266_GetVersionNumber,isa 1

	.dwfde $C$DW$CIE, ESP8266_GetVersionNumber
;----------------------------------------------------------------------
; 623 | int ESP8266_GetVersionNumber(void){                                    
;----------------------------------------------------------------------

;*****************************************************************************
;* FUNCTION NAME: ESP8266_GetVersionNumber                                   *
;*                                                                           *
;*   Regs Modified     : A1,A2,A3,A4,V9,SP,LR,SR,D0,D0_hi,D1,D1_hi,D2,D2_hi, *
;*                           D3,D3_hi,D4,D4_hi,D5,D5_hi,D6,D6_hi,D7,D7_hi,   *
;*                           FPEXC,FPSCR                                     *
;*   Regs Used         : A1,A2,A3,A4,V9,SP,LR,SR,D0,D0_hi,D1,D1_hi,D2,D2_hi, *
;*                           D3,D3_hi,D4,D4_hi,D5,D5_hi,D6,D6_hi,D7,D7_hi,   *
;*                           FPEXC,FPSCR                                     *
;*   Local Frame Size  : 0 Args + 4 Auto + 4 Save = 8 byte                   *
;*****************************************************************************
ESP8266_GetVersionNumber:
;* --------------------------------------------------------------------------*
	.dwcfi	cfa_offset, 0
        PUSH      {A4, LR}              ; [DPU_3_PIPE] 
	.dwcfi	cfa_offset, 8
	.dwcfi	save_reg_to_mem, 14, -4
	.dwcfi	save_reg_to_mem, 3, -8
$C$DW$245	.dwtag  DW_TAG_variable, DW_AT_name("try")
	.dwattr $C$DW$245, DW_AT_TI_symbol_name("try")
	.dwattr $C$DW$245, DW_AT_type(*$C$DW$T$10)
	.dwattr $C$DW$245, DW_AT_location[DW_OP_breg13 0]
	.dwpsn	file "../esp8266.c",line 624,column 10,is_stmt,isa 1
;----------------------------------------------------------------------
; 624 | int try=MAXTRY;                                                        
;----------------------------------------------------------------------
        MOVS      A1, #10               ; [DPU_3_PIPE] |624| 
        STR       A1, [SP, #0]          ; [DPU_3_PIPE] |624| 
	.dwpsn	file "../esp8266.c",line 625,column 3,is_stmt,isa 1
;----------------------------------------------------------------------
; 625 | SearchStart("ok");                                                     
;----------------------------------------------------------------------
        LDR       A1, $C$CON48          ; [] |625| 
$C$DW$246	.dwtag  DW_TAG_TI_branch
	.dwattr $C$DW$246, DW_AT_low_pc(0x00)
	.dwattr $C$DW$246, DW_AT_name("SearchStart")
	.dwattr $C$DW$246, DW_AT_TI_call
        BL        SearchStart           ; [DPU_3_PIPE] |625| 
        ; CALL OCCURS {SearchStart }     ; [] |625| 
	.dwpsn	file "../esp8266.c",line 626,column 3,is_stmt,isa 1
;----------------------------------------------------------------------
; 626 | while(try){                                                            
;----------------------------------------------------------------------
        LDR       A1, [SP, #0]          ; [DPU_3_PIPE] |626| 
        CBZ       A1, ||$C$L100||       ; [] 
        ; BRANCHCC OCCURS {||$C$L100||}  ; [] |626| 
;* --------------------------------------------------------------------------*
;*   BEGIN LOOP ||$C$L98||
;*
;*   Loop source line                : 626
;*   Loop closing brace source line  : 631
;*   Known Minimum Trip Count        : 1
;*   Known Maximum Trip Count        : 4294967295
;*   Known Max Trip Count Factor     : 1
;* --------------------------------------------------------------------------*
||$C$L98||:    
	.dwpsn	file "../esp8266.c",line 627,column 5,is_stmt,isa 1
;----------------------------------------------------------------------
; 627 | ESP8266SendCommand("AT+GMR\r\n");                                      
;----------------------------------------------------------------------
        ADR       A1, $C$SL28           ; [DPU_3_PIPE] |627| 
$C$DW$247	.dwtag  DW_TAG_TI_branch
	.dwattr $C$DW$247, DW_AT_low_pc(0x00)
	.dwattr $C$DW$247, DW_AT_name("ESP8266SendCommand")
	.dwattr $C$DW$247, DW_AT_TI_call
        BL        ESP8266SendCommand    ; [DPU_3_PIPE] |627| 
        ; CALL OCCURS {ESP8266SendCommand }  ; [] |627| 
	.dwpsn	file "../esp8266.c",line 628,column 5,is_stmt,isa 1
;----------------------------------------------------------------------
; 628 | DelayMsSearching(500);                                                 
;----------------------------------------------------------------------
        MOV       A1, #500              ; [DPU_3_PIPE] |628| 
$C$DW$248	.dwtag  DW_TAG_TI_branch
	.dwattr $C$DW$248, DW_AT_low_pc(0x00)
	.dwattr $C$DW$248, DW_AT_name("DelayMsSearching")
	.dwattr $C$DW$248, DW_AT_TI_call
        BL        DelayMsSearching      ; [DPU_3_PIPE] |628| 
        ; CALL OCCURS {DelayMsSearching }  ; [] |628| 
	.dwpsn	file "../esp8266.c",line 629,column 5,is_stmt,isa 1
;----------------------------------------------------------------------
; 629 | if(SearchFound) return 1; // success                                   
;----------------------------------------------------------------------
        LDR       A1, $C$CON49          ; [DPU_3_PIPE] |629| 
        LDRB      A1, [A1, #0]          ; [DPU_3_PIPE] |629| 
        CBZ       A1, ||$C$L99||        ; [] 
        ; BRANCHCC OCCURS {||$C$L99||}   ; [] |629| 
;* --------------------------------------------------------------------------*
	.dwpsn	file "../esp8266.c",line 629,column 21,is_stmt,isa 1
        MOVS      A1, #1                ; [DPU_3_PIPE] |629| 
        B         ||$C$L101||           ; [DPU_3_PIPE] |629| 
        ; BRANCH OCCURS {||$C$L101||}    ; [] |629| 
;* --------------------------------------------------------------------------*
||$C$L99||:    
	.dwpsn	file "../esp8266.c",line 630,column 5,is_stmt,isa 1
;----------------------------------------------------------------------
; 630 | try--;                                                                 
;----------------------------------------------------------------------
        LDR       A1, [SP, #0]          ; [DPU_3_PIPE] |630| 
        SUBS      A1, A1, #1            ; [DPU_3_PIPE] |630| 
        STR       A1, [SP, #0]          ; [DPU_3_PIPE] |630| 
	.dwpsn	file "../esp8266.c",line 626,column 3,is_stmt,isa 1
        LDR       A1, [SP, #0]          ; [DPU_3_PIPE] |626| 
        CMP       A1, #0                ; [DPU_3_PIPE] |626| 
        BNE       ||$C$L98||            ; [DPU_3_PIPE] |626| 
        ; BRANCHCC OCCURS {||$C$L98||}   ; [] |626| 
;* --------------------------------------------------------------------------*
||$C$L100||:    
	.dwpsn	file "../esp8266.c",line 632,column 3,is_stmt,isa 1
;----------------------------------------------------------------------
; 632 | return 0; // fail                                                      
;----------------------------------------------------------------------
        MOVS      A1, #0                ; [DPU_3_PIPE] |632| 
;* --------------------------------------------------------------------------*
||$C$L101||:    
	.dwpsn	file "../esp8266.c",line 633,column 1,is_stmt,isa 1
$C$DW$249	.dwtag  DW_TAG_TI_branch
	.dwattr $C$DW$249, DW_AT_low_pc(0x00)
	.dwattr $C$DW$249, DW_AT_TI_return
        POP       {A4, PC}              ; [DPU_3_PIPE] 
	.dwcfi	cfa_offset, 0
        ; BRANCH OCCURS                  ; [] 
	.dwattr $C$DW$244, DW_AT_TI_end_file("../esp8266.c")
	.dwattr $C$DW$244, DW_AT_TI_end_line(0x279)
	.dwattr $C$DW$244, DW_AT_TI_end_column(0x01)
	.dwendentry
	.dwendtag $C$DW$244

;******************************************************************************
;* CONSTANT TABLE                                                             *
;******************************************************************************
	.sect	".text"
	.align	4
||$C$CON48||:	.bits	$C$SL16,32
	.sect	".text"
	.clink
	.thumbfunc ESP8266_SetServerTimeout
	.thumb
	.global	ESP8266_SetServerTimeout

$C$DW$250	.dwtag  DW_TAG_subprogram, DW_AT_name("ESP8266_SetServerTimeout")
	.dwattr $C$DW$250, DW_AT_low_pc(ESP8266_SetServerTimeout)
	.dwattr $C$DW$250, DW_AT_high_pc(0x00)
	.dwattr $C$DW$250, DW_AT_TI_symbol_name("ESP8266_SetServerTimeout")
	.dwattr $C$DW$250, DW_AT_external
	.dwattr $C$DW$250, DW_AT_TI_begin_file("../esp8266.c")
	.dwattr $C$DW$250, DW_AT_TI_begin_line(0x29b)
	.dwattr $C$DW$250, DW_AT_TI_begin_column(0x06)
	.dwattr $C$DW$250, DW_AT_decl_file("../esp8266.c")
	.dwattr $C$DW$250, DW_AT_decl_line(0x29b)
	.dwattr $C$DW$250, DW_AT_decl_column(0x06)
	.dwattr $C$DW$250, DW_AT_TI_max_frame_size(0x08)
	.dwpsn	file "../esp8266.c",line 667,column 48,is_stmt,address ESP8266_SetServerTimeout,isa 1

	.dwfde $C$DW$CIE, ESP8266_SetServerTimeout
$C$DW$251	.dwtag  DW_TAG_formal_parameter, DW_AT_name("timeout")
	.dwattr $C$DW$251, DW_AT_TI_symbol_name("timeout")
	.dwattr $C$DW$251, DW_AT_type(*$C$DW$T$47)
	.dwattr $C$DW$251, DW_AT_location[DW_OP_reg0]

;*****************************************************************************
;* FUNCTION NAME: ESP8266_SetServerTimeout                                   *
;*                                                                           *
;*   Regs Modified     : A1,A2,A3,A4,V9,SP,LR,SR,D0,D0_hi,D1,D1_hi,D2,D2_hi, *
;*                           D3,D3_hi,D4,D4_hi,D5,D5_hi,D6,D6_hi,D7,D7_hi,   *
;*                           FPEXC,FPSCR                                     *
;*   Regs Used         : A1,A2,A3,A4,V9,SP,LR,SR,D0,D0_hi,D1,D1_hi,D2,D2_hi, *
;*                           D3,D3_hi,D4,D4_hi,D5,D5_hi,D6,D6_hi,D7,D7_hi,   *
;*                           FPEXC,FPSCR                                     *
;*   Local Frame Size  : 0 Args + 4 Auto + 4 Save = 8 byte                   *
;*****************************************************************************
ESP8266_SetServerTimeout:
;* --------------------------------------------------------------------------*
	.dwcfi	cfa_offset, 0
        PUSH      {A4, LR}              ; [DPU_3_PIPE] 
	.dwcfi	cfa_offset, 8
	.dwcfi	save_reg_to_mem, 14, -4
	.dwcfi	save_reg_to_mem, 3, -8
$C$DW$252	.dwtag  DW_TAG_variable, DW_AT_name("timeout")
	.dwattr $C$DW$252, DW_AT_TI_symbol_name("timeout")
	.dwattr $C$DW$252, DW_AT_type(*$C$DW$T$47)
	.dwattr $C$DW$252, DW_AT_location[DW_OP_breg13 0]
;----------------------------------------------------------------------
; 667 | void ESP8266_SetServerTimeout(uint16_t timeout){                       
;----------------------------------------------------------------------
        STRH      A1, [SP, #0]          ; [DPU_3_PIPE] |667| 
	.dwpsn	file "../esp8266.c",line 668,column 3,is_stmt,isa 1
;----------------------------------------------------------------------
; 668 | ESP8266_ServerTimeout = timeout;                                       
;----------------------------------------------------------------------
        LDR       A2, $C$CON51          ; [DPU_3_PIPE] |668| 
        LDRH      A1, [SP, #0]          ; [DPU_3_PIPE] |668| 
        STRH      A1, [A2, #0]          ; [DPU_3_PIPE] |668| 
	.dwpsn	file "../esp8266.c",line 669,column 3,is_stmt,isa 1
;----------------------------------------------------------------------
; 669 | sprintf((char*)TXBuffer, "AT+CIPSTO=%d\r\n", ESP8266_ServerTimeout);   
;----------------------------------------------------------------------
        LDR       A1, $C$CON51          ; [DPU_3_PIPE] |669| 
        LDRH      A3, [A1, #0]          ; [DPU_3_PIPE] |669| 
        LDR       A1, $C$CON52          ; [DPU_3_PIPE] |669| 
        ADR       A2, $C$SL29           ; [DPU_3_PIPE] |669| 
$C$DW$253	.dwtag  DW_TAG_TI_branch
	.dwattr $C$DW$253, DW_AT_low_pc(0x00)
	.dwattr $C$DW$253, DW_AT_name("sprintf")
	.dwattr $C$DW$253, DW_AT_TI_call
        BL        sprintf               ; [DPU_3_PIPE] |669| 
        ; CALL OCCURS {sprintf }         ; [] |669| 
	.dwpsn	file "../esp8266.c",line 670,column 3,is_stmt,isa 1
;----------------------------------------------------------------------
; 670 | ESP8266SendCommand((const char*)TXBuffer);                             
;----------------------------------------------------------------------
        LDR       A1, $C$CON52          ; [DPU_3_PIPE] |670| 
$C$DW$254	.dwtag  DW_TAG_TI_branch
	.dwattr $C$DW$254, DW_AT_low_pc(0x00)
	.dwattr $C$DW$254, DW_AT_name("ESP8266SendCommand")
	.dwattr $C$DW$254, DW_AT_TI_call
        BL        ESP8266SendCommand    ; [DPU_3_PIPE] |670| 
        ; CALL OCCURS {ESP8266SendCommand }  ; [] |670| 
	.dwpsn	file "../esp8266.c",line 671,column 1,is_stmt,isa 1
$C$DW$255	.dwtag  DW_TAG_TI_branch
	.dwattr $C$DW$255, DW_AT_low_pc(0x00)
	.dwattr $C$DW$255, DW_AT_TI_return
        POP       {A4, PC}              ; [DPU_3_PIPE] 
	.dwcfi	cfa_offset, 0
        ; BRANCH OCCURS                  ; [] 
	.dwattr $C$DW$250, DW_AT_TI_end_file("../esp8266.c")
	.dwattr $C$DW$250, DW_AT_TI_end_line(0x29f)
	.dwattr $C$DW$250, DW_AT_TI_end_column(0x01)
	.dwendentry
	.dwendtag $C$DW$250

;******************************************************************************
;* STRINGS                                                                    *
;******************************************************************************
	.sect	".text"
	.align	4
||$C$SL21||:	.string	"AT+CWSAP=",34,"%s",34,",",34,"%s",34,",%d,%d",13,10,0
;******************************************************************************
;* CONSTANT TABLE                                                             *
;******************************************************************************
	.sect	".text"
	.align	4
||$C$CON49||:	.bits	SearchFound,32
	.sect	".text"
	.clink
	.thumbfunc ESP8266_EnableServer
	.thumb
	.global	ESP8266_EnableServer

$C$DW$256	.dwtag  DW_TAG_subprogram, DW_AT_name("ESP8266_EnableServer")
	.dwattr $C$DW$256, DW_AT_low_pc(ESP8266_EnableServer)
	.dwattr $C$DW$256, DW_AT_high_pc(0x00)
	.dwattr $C$DW$256, DW_AT_TI_symbol_name("ESP8266_EnableServer")
	.dwattr $C$DW$256, DW_AT_external
	.dwattr $C$DW$256, DW_AT_TI_begin_file("../esp8266.c")
	.dwattr $C$DW$256, DW_AT_TI_begin_line(0x2a6)
	.dwattr $C$DW$256, DW_AT_TI_begin_column(0x06)
	.dwattr $C$DW$256, DW_AT_decl_file("../esp8266.c")
	.dwattr $C$DW$256, DW_AT_decl_line(0x2a6)
	.dwattr $C$DW$256, DW_AT_decl_column(0x06)
	.dwattr $C$DW$256, DW_AT_TI_max_frame_size(0x08)
	.dwpsn	file "../esp8266.c",line 678,column 41,is_stmt,address ESP8266_EnableServer,isa 1

	.dwfde $C$DW$CIE, ESP8266_EnableServer
$C$DW$257	.dwtag  DW_TAG_formal_parameter, DW_AT_name("port")
	.dwattr $C$DW$257, DW_AT_TI_symbol_name("port")
	.dwattr $C$DW$257, DW_AT_type(*$C$DW$T$47)
	.dwattr $C$DW$257, DW_AT_location[DW_OP_reg0]

;*****************************************************************************
;* FUNCTION NAME: ESP8266_EnableServer                                       *
;*                                                                           *
;*   Regs Modified     : A1,A2,A3,A4,V9,SP,LR,SR,D0,D0_hi,D1,D1_hi,D2,D2_hi, *
;*                           D3,D3_hi,D4,D4_hi,D5,D5_hi,D6,D6_hi,D7,D7_hi,   *
;*                           FPEXC,FPSCR                                     *
;*   Regs Used         : A1,A2,A3,A4,V9,SP,LR,SR,D0,D0_hi,D1,D1_hi,D2,D2_hi, *
;*                           D3,D3_hi,D4,D4_hi,D5,D5_hi,D6,D6_hi,D7,D7_hi,   *
;*                           FPEXC,FPSCR                                     *
;*   Local Frame Size  : 0 Args + 4 Auto + 4 Save = 8 byte                   *
;*****************************************************************************
ESP8266_EnableServer:
;* --------------------------------------------------------------------------*
	.dwcfi	cfa_offset, 0
        PUSH      {A4, LR}              ; [DPU_3_PIPE] 
	.dwcfi	cfa_offset, 8
	.dwcfi	save_reg_to_mem, 14, -4
	.dwcfi	save_reg_to_mem, 3, -8
$C$DW$258	.dwtag  DW_TAG_variable, DW_AT_name("port")
	.dwattr $C$DW$258, DW_AT_TI_symbol_name("port")
	.dwattr $C$DW$258, DW_AT_type(*$C$DW$T$47)
	.dwattr $C$DW$258, DW_AT_location[DW_OP_breg13 0]
;----------------------------------------------------------------------
; 678 | void ESP8266_EnableServer(uint16_t port){                              
;----------------------------------------------------------------------
        STRH      A1, [SP, #0]          ; [DPU_3_PIPE] |678| 
	.dwpsn	file "../esp8266.c",line 679,column 3,is_stmt,isa 1
;----------------------------------------------------------------------
; 679 | ESP8266_ServerPort = port;                                             
;----------------------------------------------------------------------
        LDR       A2, $C$CON53          ; [DPU_3_PIPE] |679| 
        LDRH      A1, [SP, #0]          ; [DPU_3_PIPE] |679| 
        STRH      A1, [A2, #0]          ; [DPU_3_PIPE] |679| 
	.dwpsn	file "../esp8266.c",line 680,column 3,is_stmt,isa 1
;----------------------------------------------------------------------
; 680 | sprintf((char*)TXBuffer, "AT+CIPSERVER=1,%d\r\n", ESP8266_ServerPort); 
;----------------------------------------------------------------------
        LDR       A1, $C$CON53          ; [DPU_3_PIPE] |680| 
        LDRH      A3, [A1, #0]          ; [DPU_3_PIPE] |680| 
        LDR       A1, $C$CON52          ; [DPU_3_PIPE] |680| 
        ADR       A2, $C$SL30           ; [DPU_3_PIPE] |680| 
$C$DW$259	.dwtag  DW_TAG_TI_branch
	.dwattr $C$DW$259, DW_AT_low_pc(0x00)
	.dwattr $C$DW$259, DW_AT_name("sprintf")
	.dwattr $C$DW$259, DW_AT_TI_call
        BL        sprintf               ; [DPU_3_PIPE] |680| 
        ; CALL OCCURS {sprintf }         ; [] |680| 
	.dwpsn	file "../esp8266.c",line 681,column 3,is_stmt,isa 1
;----------------------------------------------------------------------
; 681 | ESP8266SendCommand((const char*)TXBuffer);                             
;----------------------------------------------------------------------
        LDR       A1, $C$CON52          ; [DPU_3_PIPE] |681| 
$C$DW$260	.dwtag  DW_TAG_TI_branch
	.dwattr $C$DW$260, DW_AT_low_pc(0x00)
	.dwattr $C$DW$260, DW_AT_name("ESP8266SendCommand")
	.dwattr $C$DW$260, DW_AT_TI_call
        BL        ESP8266SendCommand    ; [DPU_3_PIPE] |681| 
        ; CALL OCCURS {ESP8266SendCommand }  ; [] |681| 
	.dwpsn	file "../esp8266.c",line 682,column 1,is_stmt,isa 1
$C$DW$261	.dwtag  DW_TAG_TI_branch
	.dwattr $C$DW$261, DW_AT_low_pc(0x00)
	.dwattr $C$DW$261, DW_AT_TI_return
        POP       {A4, PC}              ; [DPU_3_PIPE] 
	.dwcfi	cfa_offset, 0
        ; BRANCH OCCURS                  ; [] 
	.dwattr $C$DW$256, DW_AT_TI_end_file("../esp8266.c")
	.dwattr $C$DW$256, DW_AT_TI_end_line(0x2aa)
	.dwattr $C$DW$256, DW_AT_TI_end_column(0x01)
	.dwendentry
	.dwendtag $C$DW$256

;******************************************************************************
;* STRINGS                                                                    *
;******************************************************************************
	.sect	".text"
	.align	4
||$C$SL22||:	.string	"AT+CIFSR",13,10,0
	.sect	".text"
	.clink
	.thumbfunc ESP8266_DisableServer
	.thumb
	.global	ESP8266_DisableServer

$C$DW$262	.dwtag  DW_TAG_subprogram, DW_AT_name("ESP8266_DisableServer")
	.dwattr $C$DW$262, DW_AT_low_pc(ESP8266_DisableServer)
	.dwattr $C$DW$262, DW_AT_high_pc(0x00)
	.dwattr $C$DW$262, DW_AT_TI_symbol_name("ESP8266_DisableServer")
	.dwattr $C$DW$262, DW_AT_external
	.dwattr $C$DW$262, DW_AT_type(*$C$DW$T$10)
	.dwattr $C$DW$262, DW_AT_TI_begin_file("../esp8266.c")
	.dwattr $C$DW$262, DW_AT_TI_begin_line(0x2b2)
	.dwattr $C$DW$262, DW_AT_TI_begin_column(0x05)
	.dwattr $C$DW$262, DW_AT_decl_file("../esp8266.c")
	.dwattr $C$DW$262, DW_AT_decl_line(0x2b2)
	.dwattr $C$DW$262, DW_AT_decl_column(0x05)
	.dwattr $C$DW$262, DW_AT_TI_max_frame_size(0x08)
	.dwpsn	file "../esp8266.c",line 690,column 32,is_stmt,address ESP8266_DisableServer,isa 1

	.dwfde $C$DW$CIE, ESP8266_DisableServer
;----------------------------------------------------------------------
; 690 | int ESP8266_DisableServer(void){                                       
;----------------------------------------------------------------------

;*****************************************************************************
;* FUNCTION NAME: ESP8266_DisableServer                                      *
;*                                                                           *
;*   Regs Modified     : A1,A2,A3,A4,V9,SP,LR,SR,D0,D0_hi,D1,D1_hi,D2,D2_hi, *
;*                           D3,D3_hi,D4,D4_hi,D5,D5_hi,D6,D6_hi,D7,D7_hi,   *
;*                           FPEXC,FPSCR                                     *
;*   Regs Used         : A1,A2,A3,A4,V9,SP,LR,SR,D0,D0_hi,D1,D1_hi,D2,D2_hi, *
;*                           D3,D3_hi,D4,D4_hi,D5,D5_hi,D6,D6_hi,D7,D7_hi,   *
;*                           FPEXC,FPSCR                                     *
;*   Local Frame Size  : 0 Args + 4 Auto + 4 Save = 8 byte                   *
;*****************************************************************************
ESP8266_DisableServer:
;* --------------------------------------------------------------------------*
	.dwcfi	cfa_offset, 0
        PUSH      {A4, LR}              ; [DPU_3_PIPE] 
	.dwcfi	cfa_offset, 8
	.dwcfi	save_reg_to_mem, 14, -4
	.dwcfi	save_reg_to_mem, 3, -8
$C$DW$263	.dwtag  DW_TAG_variable, DW_AT_name("try")
	.dwattr $C$DW$263, DW_AT_TI_symbol_name("try")
	.dwattr $C$DW$263, DW_AT_type(*$C$DW$T$10)
	.dwattr $C$DW$263, DW_AT_location[DW_OP_breg13 0]
	.dwpsn	file "../esp8266.c",line 691,column 10,is_stmt,isa 1
;----------------------------------------------------------------------
; 691 | int try=MAXTRY;                                                        
;----------------------------------------------------------------------
        MOVS      A1, #10               ; [DPU_3_PIPE] |691| 
        STR       A1, [SP, #0]          ; [DPU_3_PIPE] |691| 
	.dwpsn	file "../esp8266.c",line 692,column 3,is_stmt,isa 1
;----------------------------------------------------------------------
; 692 | SearchStart("ok");                                                     
;----------------------------------------------------------------------
        LDR       A1, $C$CON54          ; [] |692| 
$C$DW$264	.dwtag  DW_TAG_TI_branch
	.dwattr $C$DW$264, DW_AT_low_pc(0x00)
	.dwattr $C$DW$264, DW_AT_name("SearchStart")
	.dwattr $C$DW$264, DW_AT_TI_call
        BL        SearchStart           ; [DPU_3_PIPE] |692| 
        ; CALL OCCURS {SearchStart }     ; [] |692| 
	.dwpsn	file "../esp8266.c",line 693,column 3,is_stmt,isa 1
;----------------------------------------------------------------------
; 693 | while(try){                                                            
;----------------------------------------------------------------------
        LDR       A1, [SP, #0]          ; [DPU_3_PIPE] |693| 
        CBZ       A1, ||$C$L104||       ; [] 
        ; BRANCHCC OCCURS {||$C$L104||}  ; [] |693| 
;* --------------------------------------------------------------------------*
;*   BEGIN LOOP ||$C$L102||
;*
;*   Loop source line                : 693
;*   Loop closing brace source line  : 699
;*   Known Minimum Trip Count        : 1
;*   Known Maximum Trip Count        : 4294967295
;*   Known Max Trip Count Factor     : 1
;* --------------------------------------------------------------------------*
||$C$L102||:    
	.dwpsn	file "../esp8266.c",line 694,column 5,is_stmt,isa 1
;----------------------------------------------------------------------
; 694 | sprintf((char*)TXBuffer, "AT+CIPSERVER=0,%d\r\n", ESP8266_ServerPort); 
;----------------------------------------------------------------------
        LDR       A1, $C$CON53          ; [DPU_3_PIPE] |694| 
        LDRH      A3, [A1, #0]          ; [DPU_3_PIPE] |694| 
        LDR       A1, $C$CON52          ; [DPU_3_PIPE] |694| 
        ADR       A2, $C$SL31           ; [DPU_3_PIPE] |694| 
$C$DW$265	.dwtag  DW_TAG_TI_branch
	.dwattr $C$DW$265, DW_AT_low_pc(0x00)
	.dwattr $C$DW$265, DW_AT_name("sprintf")
	.dwattr $C$DW$265, DW_AT_TI_call
        BL        sprintf               ; [DPU_3_PIPE] |694| 
        ; CALL OCCURS {sprintf }         ; [] |694| 
	.dwpsn	file "../esp8266.c",line 695,column 5,is_stmt,isa 1
;----------------------------------------------------------------------
; 695 | ESP8266SendCommand((const char*)TXBuffer);                             
;----------------------------------------------------------------------
        LDR       A1, $C$CON52          ; [DPU_3_PIPE] |695| 
$C$DW$266	.dwtag  DW_TAG_TI_branch
	.dwattr $C$DW$266, DW_AT_low_pc(0x00)
	.dwattr $C$DW$266, DW_AT_name("ESP8266SendCommand")
	.dwattr $C$DW$266, DW_AT_TI_call
        BL        ESP8266SendCommand    ; [DPU_3_PIPE] |695| 
        ; CALL OCCURS {ESP8266SendCommand }  ; [] |695| 
	.dwpsn	file "../esp8266.c",line 696,column 5,is_stmt,isa 1
;----------------------------------------------------------------------
; 696 | DelayMsSearching(4000);                                                
;----------------------------------------------------------------------
        MOV       A1, #4000             ; [DPU_3_PIPE] |696| 
$C$DW$267	.dwtag  DW_TAG_TI_branch
	.dwattr $C$DW$267, DW_AT_low_pc(0x00)
	.dwattr $C$DW$267, DW_AT_name("DelayMsSearching")
	.dwattr $C$DW$267, DW_AT_TI_call
        BL        DelayMsSearching      ; [DPU_3_PIPE] |696| 
        ; CALL OCCURS {DelayMsSearching }  ; [] |696| 
	.dwpsn	file "../esp8266.c",line 697,column 5,is_stmt,isa 1
;----------------------------------------------------------------------
; 697 | if(SearchFound) return 1; // success                                   
;----------------------------------------------------------------------
        LDR       A1, $C$CON55          ; [DPU_3_PIPE] |697| 
        LDRB      A1, [A1, #0]          ; [DPU_3_PIPE] |697| 
        CBZ       A1, ||$C$L103||       ; [] 
        ; BRANCHCC OCCURS {||$C$L103||}  ; [] |697| 
;* --------------------------------------------------------------------------*
	.dwpsn	file "../esp8266.c",line 697,column 21,is_stmt,isa 1
        MOVS      A1, #1                ; [DPU_3_PIPE] |697| 
        B         ||$C$L105||           ; [DPU_3_PIPE] |697| 
        ; BRANCH OCCURS {||$C$L105||}    ; [] |697| 
;* --------------------------------------------------------------------------*
||$C$L103||:    
	.dwpsn	file "../esp8266.c",line 698,column 5,is_stmt,isa 1
;----------------------------------------------------------------------
; 698 | try--;                                                                 
;----------------------------------------------------------------------
        LDR       A1, [SP, #0]          ; [DPU_3_PIPE] |698| 
        SUBS      A1, A1, #1            ; [DPU_3_PIPE] |698| 
        STR       A1, [SP, #0]          ; [DPU_3_PIPE] |698| 
	.dwpsn	file "../esp8266.c",line 693,column 3,is_stmt,isa 1
        LDR       A1, [SP, #0]          ; [DPU_3_PIPE] |693| 
        CMP       A1, #0                ; [DPU_3_PIPE] |693| 
        BNE       ||$C$L102||           ; [DPU_3_PIPE] |693| 
        ; BRANCHCC OCCURS {||$C$L102||}  ; [] |693| 
;* --------------------------------------------------------------------------*
||$C$L104||:    
	.dwpsn	file "../esp8266.c",line 700,column 3,is_stmt,isa 1
;----------------------------------------------------------------------
; 700 | return 0; // fail                                                      
;----------------------------------------------------------------------
        MOVS      A1, #0                ; [DPU_3_PIPE] |700| 
;* --------------------------------------------------------------------------*
||$C$L105||:    
	.dwpsn	file "../esp8266.c",line 701,column 1,is_stmt,isa 1
$C$DW$268	.dwtag  DW_TAG_TI_branch
	.dwattr $C$DW$268, DW_AT_low_pc(0x00)
	.dwattr $C$DW$268, DW_AT_TI_return
        POP       {A4, PC}              ; [DPU_3_PIPE] 
	.dwcfi	cfa_offset, 0
        ; BRANCH OCCURS                  ; [] 
	.dwattr $C$DW$262, DW_AT_TI_end_file("../esp8266.c")
	.dwattr $C$DW$262, DW_AT_TI_end_line(0x2bd)
	.dwattr $C$DW$262, DW_AT_TI_end_column(0x01)
	.dwendentry
	.dwendtag $C$DW$262

;******************************************************************************
;* STRINGS                                                                    *
;******************************************************************************
	.sect	".text"
	.align	4
||$C$SL23||:	.string	"AT+CIPSTART=",34,"TCP",34,",",34,"%s",34,",80",13,10,0
	.align	4
||$C$SL24||:	.string	"AT+CIPSEND=%d",13,10,0
;******************************************************************************
;* CONSTANT TABLE                                                             *
;******************************************************************************
	.sect	".text"
	.align	4
||$C$CON50||:	.bits	ServerResponseSearchFinished,32
	.sect	".text"
	.clink
	.thumbfunc ESP8266ProcessInput
	.thumb
	.global	ESP8266ProcessInput

$C$DW$269	.dwtag  DW_TAG_subprogram, DW_AT_name("ESP8266ProcessInput")
	.dwattr $C$DW$269, DW_AT_low_pc(ESP8266ProcessInput)
	.dwattr $C$DW$269, DW_AT_high_pc(0x00)
	.dwattr $C$DW$269, DW_AT_TI_symbol_name("ESP8266ProcessInput")
	.dwattr $C$DW$269, DW_AT_external
	.dwattr $C$DW$269, DW_AT_TI_begin_file("../esp8266.c")
	.dwattr $C$DW$269, DW_AT_TI_begin_line(0x2c4)
	.dwattr $C$DW$269, DW_AT_TI_begin_column(0x06)
	.dwattr $C$DW$269, DW_AT_decl_file("../esp8266.c")
	.dwattr $C$DW$269, DW_AT_decl_line(0x2c4)
	.dwattr $C$DW$269, DW_AT_decl_column(0x06)
	.dwattr $C$DW$269, DW_AT_TI_max_frame_size(0x10)
	.dwpsn	file "../esp8266.c",line 708,column 45,is_stmt,address ESP8266ProcessInput,isa 1

	.dwfde $C$DW$CIE, ESP8266ProcessInput
$C$DW$270	.dwtag  DW_TAG_formal_parameter, DW_AT_name("buffer")
	.dwattr $C$DW$270, DW_AT_TI_symbol_name("buffer")
	.dwattr $C$DW$270, DW_AT_type(*$C$DW$T$42)
	.dwattr $C$DW$270, DW_AT_location[DW_OP_reg0]

;*****************************************************************************
;* FUNCTION NAME: ESP8266ProcessInput                                        *
;*                                                                           *
;*   Regs Modified     : A1,A2,A3,A4,V9,SP,LR,SR,D0,D0_hi,D1,D1_hi,D2,D2_hi, *
;*                           D3,D3_hi,D4,D4_hi,D5,D5_hi,D6,D6_hi,D7,D7_hi,   *
;*                           FPEXC,FPSCR                                     *
;*   Regs Used         : A1,A2,A3,A4,V9,SP,LR,SR,D0,D0_hi,D1,D1_hi,D2,D2_hi, *
;*                           D3,D3_hi,D4,D4_hi,D5,D5_hi,D6,D6_hi,D7,D7_hi,   *
;*                           FPEXC,FPSCR                                     *
;*   Local Frame Size  : 0 Args + 12 Auto + 4 Save = 16 byte                 *
;*****************************************************************************
ESP8266ProcessInput:
;* --------------------------------------------------------------------------*
	.dwcfi	cfa_offset, 0
        PUSH      {A2, A3, A4, LR}      ; [DPU_3_PIPE] 
	.dwcfi	cfa_offset, 16
	.dwcfi	save_reg_to_mem, 14, -4
	.dwcfi	save_reg_to_mem, 3, -8
	.dwcfi	save_reg_to_mem, 2, -12
	.dwcfi	save_reg_to_mem, 1, -16
$C$DW$271	.dwtag  DW_TAG_variable, DW_AT_name("buffer")
	.dwattr $C$DW$271, DW_AT_TI_symbol_name("buffer")
	.dwattr $C$DW$271, DW_AT_type(*$C$DW$T$42)
	.dwattr $C$DW$271, DW_AT_location[DW_OP_breg13 0]
$C$DW$272	.dwtag  DW_TAG_variable, DW_AT_name("ptr")
	.dwattr $C$DW$272, DW_AT_TI_symbol_name("ptr")
	.dwattr $C$DW$272, DW_AT_type(*$C$DW$T$35)
	.dwattr $C$DW$272, DW_AT_location[DW_OP_breg13 4]
;----------------------------------------------------------------------
; 708 | void ESP8266ProcessInput(const char* buffer){                          
; 709 | char* ptr;                                                             
; 710 | // "+IPD" indicates data coming in from IP server                      
;----------------------------------------------------------------------
        STR       A1, [SP, #0]          ; [DPU_3_PIPE] |708| 
	.dwpsn	file "../esp8266.c",line 711,column 3,is_stmt,isa 1
;----------------------------------------------------------------------
; 711 | if (buffer[0] == '+' && buffer[1] == 'I' && buffer[2] == 'P' && buffer[
;     | 3] == 'D' && buffer[8] != '\n'){                                       
;----------------------------------------------------------------------
        LDR       A1, [SP, #0]          ; [DPU_3_PIPE] |711| 
        LDRB      A1, [A1, #0]          ; [DPU_3_PIPE] |711| 
        CMP       A1, #43               ; [DPU_3_PIPE] |711| 
        BNE       ||$C$L109||           ; [DPU_3_PIPE] |711| 
        ; BRANCHCC OCCURS {||$C$L109||}  ; [] |711| 
;* --------------------------------------------------------------------------*
        LDR       A1, [SP, #0]          ; [DPU_3_PIPE] |711| 
        LDRB      A1, [A1, #1]          ; [DPU_3_PIPE] |711| 
        CMP       A1, #73               ; [DPU_3_PIPE] |711| 
        BNE       ||$C$L109||           ; [DPU_3_PIPE] |711| 
        ; BRANCHCC OCCURS {||$C$L109||}  ; [] |711| 
;* --------------------------------------------------------------------------*
        LDR       A1, [SP, #0]          ; [DPU_3_PIPE] |711| 
        LDRB      A1, [A1, #2]          ; [DPU_3_PIPE] |711| 
        CMP       A1, #80               ; [DPU_3_PIPE] |711| 
        BNE       ||$C$L109||           ; [DPU_3_PIPE] |711| 
        ; BRANCHCC OCCURS {||$C$L109||}  ; [] |711| 
;* --------------------------------------------------------------------------*
        LDR       A1, [SP, #0]          ; [DPU_3_PIPE] |711| 
        LDRB      A1, [A1, #3]          ; [DPU_3_PIPE] |711| 
        CMP       A1, #68               ; [DPU_3_PIPE] |711| 
        BNE       ||$C$L109||           ; [DPU_3_PIPE] |711| 
        ; BRANCHCC OCCURS {||$C$L109||}  ; [] |711| 
;* --------------------------------------------------------------------------*
        LDR       A1, [SP, #0]          ; [DPU_3_PIPE] |711| 
        LDRB      A1, [A1, #8]          ; [DPU_3_PIPE] |711| 
        CMP       A1, #10               ; [DPU_3_PIPE] |711| 
        BEQ       ||$C$L109||           ; [DPU_3_PIPE] |711| 
        ; BRANCHCC OCCURS {||$C$L109||}  ; [] |711| 
;* --------------------------------------------------------------------------*
	.dwpsn	file "../esp8266.c",line 712,column 5,is_stmt,isa 1
;----------------------------------------------------------------------
; 712 | ptr = (char *)buffer + 7;                                              
;----------------------------------------------------------------------
        LDR       A1, [SP, #0]          ; [DPU_3_PIPE] |712| 
        ADDS      A1, A1, #7            ; [DPU_3_PIPE] |712| 
        STR       A1, [SP, #4]          ; [DPU_3_PIPE] |712| 
	.dwpsn	file "../esp8266.c",line 713,column 5,is_stmt,isa 1
;----------------------------------------------------------------------
; 713 | while (*ptr != ':'){                                                   
;----------------------------------------------------------------------
        B         ||$C$L107||           ; [DPU_3_PIPE] |713| 
        ; BRANCH OCCURS {||$C$L107||}    ; [] |713| 
;* --------------------------------------------------------------------------*
||$C$L106||:    
	.dwpsn	file "../esp8266.c",line 714,column 7,is_stmt,isa 1
;----------------------------------------------------------------------
; 714 | ptr++;                                                                 
;----------------------------------------------------------------------
        LDR       A1, [SP, #4]          ; [DPU_3_PIPE] |714| 
        ADDS      A1, A1, #1            ; [DPU_3_PIPE] |714| 
        STR       A1, [SP, #4]          ; [DPU_3_PIPE] |714| 
;* --------------------------------------------------------------------------*
;*   BEGIN LOOP ||$C$L107||
;* --------------------------------------------------------------------------*
||$C$L107||:    
	.dwpsn	file "../esp8266.c",line 713,column 12,is_stmt,isa 1
        LDR       A1, [SP, #4]          ; [DPU_3_PIPE] |713| 
        LDRB      A1, [A1, #0]          ; [DPU_3_PIPE] |713| 
        CMP       A1, #58               ; [DPU_3_PIPE] |713| 
        BNE       ||$C$L106||           ; [DPU_3_PIPE] |713| 
        ; BRANCHCC OCCURS {||$C$L106||}  ; [] |713| 
;* --------------------------------------------------------------------------*
	.dwpsn	file "../esp8266.c",line 716,column 5,is_stmt,isa 1
;----------------------------------------------------------------------
; 716 | ptr++;                                                                 
; 718 | // check for HTTP GET                                                  
;----------------------------------------------------------------------
        LDR       A1, [SP, #4]          ; [DPU_3_PIPE] |716| 
        ADDS      A1, A1, #1            ; [DPU_3_PIPE] |716| 
        STR       A1, [SP, #4]          ; [DPU_3_PIPE] |716| 
	.dwpsn	file "../esp8266.c",line 719,column 5,is_stmt,isa 1
;----------------------------------------------------------------------
; 719 | if (*ptr == 'G' && *(ptr + 1) == 'E' && *(ptr + 2) == 'T') {           
;----------------------------------------------------------------------
        LDR       A1, [SP, #4]          ; [DPU_3_PIPE] |719| 
        LDRB      A1, [A1, #0]          ; [DPU_3_PIPE] |719| 
        CMP       A1, #71               ; [DPU_3_PIPE] |719| 
        BNE       ||$C$L109||           ; [DPU_3_PIPE] |719| 
        ; BRANCHCC OCCURS {||$C$L109||}  ; [] |719| 
;* --------------------------------------------------------------------------*
        LDR       A1, [SP, #4]          ; [DPU_3_PIPE] |719| 
        LDRB      A1, [A1, #1]          ; [DPU_3_PIPE] |719| 
        CMP       A1, #69               ; [DPU_3_PIPE] |719| 
        BNE       ||$C$L109||           ; [DPU_3_PIPE] |719| 
        ; BRANCHCC OCCURS {||$C$L109||}  ; [] |719| 
;* --------------------------------------------------------------------------*
        LDR       A1, [SP, #4]          ; [DPU_3_PIPE] |719| 
        LDRB      A1, [A1, #2]          ; [DPU_3_PIPE] |719| 
        CMP       A1, #84               ; [DPU_3_PIPE] |719| 
        BNE       ||$C$L109||           ; [DPU_3_PIPE] |719| 
        ; BRANCHCC OCCURS {||$C$L109||}  ; [] |719| 
;* --------------------------------------------------------------------------*
	.dwpsn	file "../esp8266.c",line 720,column 7,is_stmt,isa 1
;----------------------------------------------------------------------
; 720 | if (*(ptr + 5) == '?'){ // means data to process                       
;----------------------------------------------------------------------
        LDR       A1, [SP, #4]          ; [DPU_3_PIPE] |720| 
        LDRB      A1, [A1, #5]          ; [DPU_3_PIPE] |720| 
        CMP       A1, #63               ; [DPU_3_PIPE] |720| 
        BNE       ||$C$L108||           ; [DPU_3_PIPE] |720| 
        ; BRANCHCC OCCURS {||$C$L108||}  ; [] |720| 
;* --------------------------------------------------------------------------*

$C$DW$273	.dwtag  DW_TAG_lexical_block, DW_AT_low_pc(0x00), DW_AT_high_pc(0x00)
$C$DW$274	.dwtag  DW_TAG_variable, DW_AT_name("messagePtr")
	.dwattr $C$DW$274, DW_AT_TI_symbol_name("messagePtr")
	.dwattr $C$DW$274, DW_AT_type(*$C$DW$T$35)
	.dwattr $C$DW$274, DW_AT_location[DW_OP_breg13 8]
	.dwpsn	file "../esp8266.c",line 721,column 26,is_stmt,isa 1
;----------------------------------------------------------------------
; 721 | char* messagePtr = strstr(ptr, "message=") + 8;                        
;----------------------------------------------------------------------
        LDR       A1, [SP, #4]          ; [DPU_3_PIPE] |721| 
        ADR       A2, $C$SL32           ; [DPU_3_PIPE] |721| 
$C$DW$275	.dwtag  DW_TAG_TI_branch
	.dwattr $C$DW$275, DW_AT_low_pc(0x00)
	.dwattr $C$DW$275, DW_AT_name("strstr")
	.dwattr $C$DW$275, DW_AT_TI_call
        BL        strstr                ; [DPU_3_PIPE] |721| 
        ; CALL OCCURS {strstr }          ; [] |721| 
        ADDS      A1, A1, #8            ; [DPU_3_PIPE] |721| 
        STR       A1, [SP, #8]          ; [DPU_3_PIPE] |721| 
	.dwpsn	file "../esp8266.c",line 722,column 9,is_stmt,isa 1
;----------------------------------------------------------------------
; 722 | printf("Message from ESP8266: %s\n", messagePtr);                      
;----------------------------------------------------------------------
        LDR       A2, [SP, #8]          ; [DPU_3_PIPE] |722| 
        ADR       A1, $C$SL33           ; [DPU_3_PIPE] |722| 
$C$DW$276	.dwtag  DW_TAG_TI_branch
	.dwattr $C$DW$276, DW_AT_low_pc(0x00)
	.dwattr $C$DW$276, DW_AT_name("printf")
	.dwattr $C$DW$276, DW_AT_TI_call
        BL        printf                ; [DPU_3_PIPE] |722| 
        ; CALL OCCURS {printf }          ; [] |722| 
	.dwendtag $C$DW$273

;* --------------------------------------------------------------------------*
||$C$L108||:    
	.dwpsn	file "../esp8266.c",line 724,column 7,is_stmt,isa 1
;----------------------------------------------------------------------
; 724 | ESP8266_PageRequested = true;                                          
;----------------------------------------------------------------------
        LDR       A2, $C$CON56          ; [DPU_3_PIPE] |724| 
        MOVS      A1, #1                ; [DPU_3_PIPE] |724| 
        STRB      A1, [A2, #0]          ; [DPU_3_PIPE] |724| 
	.dwpsn	file "../esp8266.c",line 725,column 5,is_stmt,isa 1
;----------------------------------------------------------------------
; 725 | } else {                                                               
; 726 |   // handle data that may be sent via means other than HTTP GET        
;----------------------------------------------------------------------
        B         ||$C$L109||           ; [DPU_3_PIPE] |725| 
        ; BRANCH OCCURS {||$C$L109||}    ; [] |725| 
;* --------------------------------------------------------------------------*
;* --------------------------------------------------------------------------*
||$C$L109||:    
$C$DW$277	.dwtag  DW_TAG_TI_branch
	.dwattr $C$DW$277, DW_AT_low_pc(0x00)
	.dwattr $C$DW$277, DW_AT_TI_return
        POP       {A2, A3, A4, PC}      ; [DPU_3_PIPE] 
	.dwcfi	cfa_offset, 0
        ; BRANCH OCCURS                  ; [] 
	.dwattr $C$DW$269, DW_AT_TI_end_file("../esp8266.c")
	.dwattr $C$DW$269, DW_AT_TI_end_line(0x2d9)
	.dwattr $C$DW$269, DW_AT_TI_end_column(0x01)
	.dwendentry
	.dwendtag $C$DW$269

;******************************************************************************
;* STRINGS                                                                    *
;******************************************************************************
	.sect	".text"
	.align	4
||$C$SL25||:	.string	"AT+CIPCLOSE",13,10,0
	.sect	".text"
	.clink
	.thumbfunc HTTP_ServePage
	.thumb
	.global	HTTP_ServePage

$C$DW$278	.dwtag  DW_TAG_subprogram, DW_AT_name("HTTP_ServePage")
	.dwattr $C$DW$278, DW_AT_low_pc(HTTP_ServePage)
	.dwattr $C$DW$278, DW_AT_high_pc(0x00)
	.dwattr $C$DW$278, DW_AT_TI_symbol_name("HTTP_ServePage")
	.dwattr $C$DW$278, DW_AT_external
	.dwattr $C$DW$278, DW_AT_TI_begin_file("../esp8266.c")
	.dwattr $C$DW$278, DW_AT_TI_begin_line(0x2f5)
	.dwattr $C$DW$278, DW_AT_TI_begin_column(0x06)
	.dwattr $C$DW$278, DW_AT_decl_file("../esp8266.c")
	.dwattr $C$DW$278, DW_AT_decl_line(0x2f5)
	.dwattr $C$DW$278, DW_AT_decl_column(0x06)
	.dwattr $C$DW$278, DW_AT_TI_max_frame_size(0x70)
	.dwpsn	file "../esp8266.c",line 757,column 38,is_stmt,address HTTP_ServePage,isa 1

	.dwfde $C$DW$CIE, HTTP_ServePage
$C$DW$279	.dwtag  DW_TAG_formal_parameter, DW_AT_name("body")
	.dwattr $C$DW$279, DW_AT_TI_symbol_name("body")
	.dwattr $C$DW$279, DW_AT_type(*$C$DW$T$42)
	.dwattr $C$DW$279, DW_AT_location[DW_OP_reg0]

;*****************************************************************************
;* FUNCTION NAME: HTTP_ServePage                                             *
;*                                                                           *
;*   Regs Modified     : A1,A2,A3,A4,V1,V2,V9,SP,LR,SR,D0,D0_hi,D1,D1_hi,D2, *
;*                           D2_hi,D3,D3_hi,D4,D4_hi,D5,D5_hi,D6,D6_hi,D7,   *
;*                           D7_hi,FPEXC,FPSCR                               *
;*   Regs Used         : A1,A2,A3,A4,V1,V2,V9,SP,LR,SR,D0,D0_hi,D1,D1_hi,D2, *
;*                           D2_hi,D3,D3_hi,D4,D4_hi,D5,D5_hi,D6,D6_hi,D7,   *
;*                           D7_hi,FPEXC,FPSCR                               *
;*   Local Frame Size  : 0 Args + 100 Auto + 12 Save = 112 byte              *
;*****************************************************************************
HTTP_ServePage:
;* --------------------------------------------------------------------------*
	.dwcfi	cfa_offset, 0
        PUSH      {V1, V2, LR}          ; [DPU_3_PIPE] 
	.dwcfi	cfa_offset, 12
	.dwcfi	save_reg_to_mem, 14, -4
	.dwcfi	save_reg_to_mem, 5, -8
	.dwcfi	save_reg_to_mem, 4, -12
        SUB       SP, SP, #100          ; [DPU_3_PIPE] 
	.dwcfi	cfa_offset, 112
$C$DW$280	.dwtag  DW_TAG_variable, DW_AT_name("body")
	.dwattr $C$DW$280, DW_AT_TI_symbol_name("body")
	.dwattr $C$DW$280, DW_AT_type(*$C$DW$T$42)
	.dwattr $C$DW$280, DW_AT_location[DW_OP_breg13 0]
$C$DW$281	.dwtag  DW_TAG_variable, DW_AT_name("header")
	.dwattr $C$DW$281, DW_AT_TI_symbol_name("header")
	.dwattr $C$DW$281, DW_AT_type(*$C$DW$T$159)
	.dwattr $C$DW$281, DW_AT_location[DW_OP_breg13 4]
$C$DW$282	.dwtag  DW_TAG_variable, DW_AT_name("contentLength")
	.dwattr $C$DW$282, DW_AT_TI_symbol_name("contentLength")
	.dwattr $C$DW$282, DW_AT_type(*$C$DW$T$121)
	.dwattr $C$DW$282, DW_AT_location[DW_OP_breg13 84]
;----------------------------------------------------------------------
; 757 | void HTTP_ServePage(const char* body){                                 
;----------------------------------------------------------------------
        STR       A1, [SP, #0]          ; [DPU_3_PIPE] |757| 
	.dwpsn	file "../esp8266.c",line 758,column 8,is_stmt,isa 1
;----------------------------------------------------------------------
; 758 | char header[] = "HTTP/1.1 200 OK\r\nContent-Type: text/html\r\nConnecti
;     | on: close\r\nContent-Length: ";                                        
; 760 | char contentLength[16];                                                
;----------------------------------------------------------------------
        LDR       A2, $C$CON57          ; [DPU_3_PIPE] |758| 
        MOVS      A3, #78               ; [DPU_3_PIPE] |758| 
        ADD       A1, SP, #4            ; [DPU_3_PIPE] |758| 
$C$DW$283	.dwtag  DW_TAG_TI_branch
	.dwattr $C$DW$283, DW_AT_low_pc(0x00)
	.dwattr $C$DW$283, DW_AT_name("memcpy")
	.dwattr $C$DW$283, DW_AT_TI_call
        BL        memcpy                ; [DPU_3_PIPE] |758| 
        ; CALL OCCURS {memcpy }          ; [] |758| 
	.dwpsn	file "../esp8266.c",line 761,column 3,is_stmt,isa 1
;----------------------------------------------------------------------
; 761 | sprintf(contentLength, "%d\r\n\r\n", strlen(body));                    
;----------------------------------------------------------------------
        LDR       A1, [SP, #0]          ; [DPU_3_PIPE] |761| 
$C$DW$284	.dwtag  DW_TAG_TI_branch
	.dwattr $C$DW$284, DW_AT_low_pc(0x00)
	.dwattr $C$DW$284, DW_AT_name("strlen")
	.dwattr $C$DW$284, DW_AT_TI_call
        BL        strlen                ; [DPU_3_PIPE] |761| 
        ; CALL OCCURS {strlen }          ; [] |761| 
        MOV       A3, A1                ; [DPU_3_PIPE] |761| 
        ADR       A2, $C$SL34           ; [DPU_3_PIPE] |761| 
        ADD       A1, SP, #84           ; [DPU_3_PIPE] |761| 
$C$DW$285	.dwtag  DW_TAG_TI_branch
	.dwattr $C$DW$285, DW_AT_low_pc(0x00)
	.dwattr $C$DW$285, DW_AT_name("sprintf")
	.dwattr $C$DW$285, DW_AT_TI_call
        BL        sprintf               ; [DPU_3_PIPE] |761| 
        ; CALL OCCURS {sprintf }         ; [] |761| 
	.dwpsn	file "../esp8266.c",line 763,column 3,is_stmt,isa 1
;----------------------------------------------------------------------
; 763 | sprintf((char*)TXBuffer, "AT+CIPSEND=%d,%d\r\n", 0, strlen(body) + strl
;     | en(contentLength) + strlen(header));                                   
;----------------------------------------------------------------------
        LDR       A1, [SP, #0]          ; [DPU_3_PIPE] |763| 
$C$DW$286	.dwtag  DW_TAG_TI_branch
	.dwattr $C$DW$286, DW_AT_low_pc(0x00)
	.dwattr $C$DW$286, DW_AT_name("strlen")
	.dwattr $C$DW$286, DW_AT_TI_call
        BL        strlen                ; [DPU_3_PIPE] |763| 
        ; CALL OCCURS {strlen }          ; [] |763| 
        MOV       V2, A1                ; [DPU_3_PIPE] |763| 
        ADD       A1, SP, #84           ; [DPU_3_PIPE] |763| 
$C$DW$287	.dwtag  DW_TAG_TI_branch
	.dwattr $C$DW$287, DW_AT_low_pc(0x00)
	.dwattr $C$DW$287, DW_AT_name("strlen")
	.dwattr $C$DW$287, DW_AT_TI_call
        BL        strlen                ; [DPU_3_PIPE] |763| 
        ; CALL OCCURS {strlen }          ; [] |763| 
        MOV       V1, A1                ; [DPU_3_PIPE] |763| 
        ADD       A1, SP, #4            ; [DPU_3_PIPE] |763| 
$C$DW$288	.dwtag  DW_TAG_TI_branch
	.dwattr $C$DW$288, DW_AT_low_pc(0x00)
	.dwattr $C$DW$288, DW_AT_name("strlen")
	.dwattr $C$DW$288, DW_AT_TI_call
        BL        strlen                ; [DPU_3_PIPE] |763| 
        ; CALL OCCURS {strlen }          ; [] |763| 
        ADDS      V1, V1, V2            ; [DPU_3_PIPE] |763| 
        ADDS      A4, A1, V1            ; [DPU_3_PIPE] |763| 
        LDR       A1, $C$CON52          ; [DPU_3_PIPE] |763| 
        ADR       A2, $C$SL35           ; [DPU_3_PIPE] |763| 
        MOVS      A3, #0                ; [DPU_3_PIPE] |763| 
$C$DW$289	.dwtag  DW_TAG_TI_branch
	.dwattr $C$DW$289, DW_AT_low_pc(0x00)
	.dwattr $C$DW$289, DW_AT_name("sprintf")
	.dwattr $C$DW$289, DW_AT_TI_call
        BL        sprintf               ; [DPU_3_PIPE] |763| 
        ; CALL OCCURS {sprintf }         ; [] |763| 
	.dwpsn	file "../esp8266.c",line 764,column 3,is_stmt,isa 1
;----------------------------------------------------------------------
; 764 | ESP8266SendCommand((const char*)TXBuffer);                             
;----------------------------------------------------------------------
        LDR       A1, $C$CON52          ; [DPU_3_PIPE] |764| 
$C$DW$290	.dwtag  DW_TAG_TI_branch
	.dwattr $C$DW$290, DW_AT_low_pc(0x00)
	.dwattr $C$DW$290, DW_AT_name("ESP8266SendCommand")
	.dwattr $C$DW$290, DW_AT_TI_call
        BL        ESP8266SendCommand    ; [DPU_3_PIPE] |764| 
        ; CALL OCCURS {ESP8266SendCommand }  ; [] |764| 
	.dwpsn	file "../esp8266.c",line 766,column 3,is_stmt,isa 1
;----------------------------------------------------------------------
; 766 | DelayMs(100);                                                          
;----------------------------------------------------------------------
        MOVS      A1, #100              ; [DPU_3_PIPE] |766| 
$C$DW$291	.dwtag  DW_TAG_TI_branch
	.dwattr $C$DW$291, DW_AT_low_pc(0x00)
	.dwattr $C$DW$291, DW_AT_name("DelayMs")
	.dwattr $C$DW$291, DW_AT_TI_call
        BL        DelayMs               ; [DPU_3_PIPE] |766| 
        ; CALL OCCURS {DelayMs }         ; [] |766| 
	.dwpsn	file "../esp8266.c",line 768,column 3,is_stmt,isa 1
;----------------------------------------------------------------------
; 768 | ESP8266SendCommand(header);                                            
;----------------------------------------------------------------------
        ADD       A1, SP, #4            ; [DPU_3_PIPE] |768| 
$C$DW$292	.dwtag  DW_TAG_TI_branch
	.dwattr $C$DW$292, DW_AT_low_pc(0x00)
	.dwattr $C$DW$292, DW_AT_name("ESP8266SendCommand")
	.dwattr $C$DW$292, DW_AT_TI_call
        BL        ESP8266SendCommand    ; [DPU_3_PIPE] |768| 
        ; CALL OCCURS {ESP8266SendCommand }  ; [] |768| 
	.dwpsn	file "../esp8266.c",line 769,column 3,is_stmt,isa 1
;----------------------------------------------------------------------
; 769 | ESP8266SendCommand(contentLength);                                     
;----------------------------------------------------------------------
        ADD       A1, SP, #84           ; [DPU_3_PIPE] |769| 
$C$DW$293	.dwtag  DW_TAG_TI_branch
	.dwattr $C$DW$293, DW_AT_low_pc(0x00)
	.dwattr $C$DW$293, DW_AT_name("ESP8266SendCommand")
	.dwattr $C$DW$293, DW_AT_TI_call
        BL        ESP8266SendCommand    ; [DPU_3_PIPE] |769| 
        ; CALL OCCURS {ESP8266SendCommand }  ; [] |769| 
;* --------------------------------------------------------------------------*
	.dwpsn	file "../esp8266.c",line 770,column 3,is_stmt,isa 1
;----------------------------------------------------------------------
; 770 | ESP8266SendCommand(body);                                              
;----------------------------------------------------------------------
        LDR       A1, [SP, #0]          ; [DPU_3_PIPE] |770| 
$C$DW$294	.dwtag  DW_TAG_TI_branch
	.dwattr $C$DW$294, DW_AT_low_pc(0x00)
	.dwattr $C$DW$294, DW_AT_name("ESP8266SendCommand")
	.dwattr $C$DW$294, DW_AT_TI_call
        BL        ESP8266SendCommand    ; [DPU_3_PIPE] |770| 
        ; CALL OCCURS {ESP8266SendCommand }  ; [] |770| 
	.dwpsn	file "../esp8266.c",line 771,column 1,is_stmt,isa 1
        ADD       SP, SP, #100          ; [DPU_3_PIPE] 
	.dwcfi	cfa_offset, 12
$C$DW$295	.dwtag  DW_TAG_TI_branch
	.dwattr $C$DW$295, DW_AT_low_pc(0x00)
	.dwattr $C$DW$295, DW_AT_TI_return
        POP       {V1, V2, PC}          ; [DPU_3_PIPE] 
	.dwcfi	cfa_offset, 0
        ; BRANCH OCCURS                  ; [] 
	.dwattr $C$DW$278, DW_AT_TI_end_file("../esp8266.c")
	.dwattr $C$DW$278, DW_AT_TI_end_line(0x303)
	.dwattr $C$DW$278, DW_AT_TI_end_column(0x01)
	.dwendentry
	.dwendtag $C$DW$278

;******************************************************************************
;* STRINGS                                                                    *
;******************************************************************************
	.sect	".text"
	.align	4
||$C$SL26||:	.string	"AT+CIPMODE=%d",13,10,0
	.align	4
||$C$SL27||:	.string	"AT+CIPSTATUS",13,10,0
	.align	4
||$C$SL28||:	.string	"AT+GMR",13,10,0
	.align	4
||$C$SL29||:	.string	"AT+CIPSTO=%d",13,10,0
	.align	4
||$C$SL30||:	.string	"AT+CIPSERVER=1,%d",13,10,0
	.align	4
||$C$SL31||:	.string	"AT+CIPSERVER=0,%d",13,10,0
	.align	4
||$C$SL32||:	.string	"message=",0
	.align	4
||$C$SL33||:	.string	"Message from ESP8266: %s",10,0
	.align	4
||$C$SL34||:	.string	"%d",13,10,13,10,0
	.align	4
||$C$SL35||:	.string	"AT+CIPSEND=%d,%d",13,10,0
;******************************************************************************
;* CONSTANT TABLE                                                             *
;******************************************************************************
	.sect	".text"
	.align	4
||$C$CON51||:	.bits	ESP8266_ServerTimeout,32
	.align	4
||$C$CON52||:	.bits	TXBuffer,32
	.align	4
||$C$CON53||:	.bits	ESP8266_ServerPort,32
	.align	4
||$C$CON54||:	.bits	$C$SL16,32
	.align	4
||$C$CON55||:	.bits	SearchFound,32
	.align	4
||$C$CON56||:	.bits	ESP8266_PageRequested,32
	.align	4
||$C$CON57||:	.bits	||$P$T0$1||,32
;*****************************************************************************
;* UNDEFINED EXTERNAL REFERENCES                                             *
;*****************************************************************************
	.global	printf
	.global	sprintf
	.global	strlen
	.global	strcpy
	.global	strstr
	.global	UART_OutCharNonBlock
	.global	EnableInterrupts
	.global	memcpy

;******************************************************************************
;* BUILD ATTRIBUTES                                                           *
;******************************************************************************
	.battr "aeabi", Tag_File, 1, Tag_ABI_PCS_wchar_t(2)
	.battr "aeabi", Tag_File, 1, Tag_ABI_FP_rounding(0)
	.battr "aeabi", Tag_File, 1, Tag_ABI_FP_denormal(0)
	.battr "aeabi", Tag_File, 1, Tag_ABI_FP_exceptions(0)
	.battr "aeabi", Tag_File, 1, Tag_ABI_FP_number_model(1)
	.battr "aeabi", Tag_File, 1, Tag_ABI_enum_size(0)
	.battr "aeabi", Tag_File, 1, Tag_ABI_optimization_goals(5)
	.battr "aeabi", Tag_File, 1, Tag_ABI_FP_optimization_goals(0)
	.battr "TI", Tag_File, 1, Tag_Bitfield_layout(2)
	.battr "TI", Tag_File, 1, Tag_FP_interface(1)

;******************************************************************************
;* TYPE INFORMATION                                                           *
;******************************************************************************

$C$DW$T$20	.dwtag  DW_TAG_structure_type
	.dwattr $C$DW$T$20, DW_AT_byte_size(0x18)
$C$DW$296	.dwtag  DW_TAG_member
	.dwattr $C$DW$296, DW_AT_type(*$C$DW$T$10)
	.dwattr $C$DW$296, DW_AT_name("fd")
	.dwattr $C$DW$296, DW_AT_TI_symbol_name("fd")
	.dwattr $C$DW$296, DW_AT_data_member_location[DW_OP_plus_uconst 0x0]
	.dwattr $C$DW$296, DW_AT_accessibility(DW_ACCESS_public)
	.dwattr $C$DW$296, DW_AT_decl_file("C:/ti/ccsv6/tools/compiler/ti-cgt-arm_5.2.4/include/stdio.h")
	.dwattr $C$DW$296, DW_AT_decl_line(0x5c)
	.dwattr $C$DW$296, DW_AT_decl_column(0x0b)
$C$DW$297	.dwtag  DW_TAG_member
	.dwattr $C$DW$297, DW_AT_type(*$C$DW$T$19)
	.dwattr $C$DW$297, DW_AT_name("buf")
	.dwattr $C$DW$297, DW_AT_TI_symbol_name("buf")
	.dwattr $C$DW$297, DW_AT_data_member_location[DW_OP_plus_uconst 0x4]
	.dwattr $C$DW$297, DW_AT_accessibility(DW_ACCESS_public)
	.dwattr $C$DW$297, DW_AT_decl_file("C:/ti/ccsv6/tools/compiler/ti-cgt-arm_5.2.4/include/stdio.h")
	.dwattr $C$DW$297, DW_AT_decl_line(0x5d)
	.dwattr $C$DW$297, DW_AT_decl_column(0x16)
$C$DW$298	.dwtag  DW_TAG_member
	.dwattr $C$DW$298, DW_AT_type(*$C$DW$T$19)
	.dwattr $C$DW$298, DW_AT_name("pos")
	.dwattr $C$DW$298, DW_AT_TI_symbol_name("pos")
	.dwattr $C$DW$298, DW_AT_data_member_location[DW_OP_plus_uconst 0x8]
	.dwattr $C$DW$298, DW_AT_accessibility(DW_ACCESS_public)
	.dwattr $C$DW$298, DW_AT_decl_file("C:/ti/ccsv6/tools/compiler/ti-cgt-arm_5.2.4/include/stdio.h")
	.dwattr $C$DW$298, DW_AT_decl_line(0x5e)
	.dwattr $C$DW$298, DW_AT_decl_column(0x16)
$C$DW$299	.dwtag  DW_TAG_member
	.dwattr $C$DW$299, DW_AT_type(*$C$DW$T$19)
	.dwattr $C$DW$299, DW_AT_name("bufend")
	.dwattr $C$DW$299, DW_AT_TI_symbol_name("bufend")
	.dwattr $C$DW$299, DW_AT_data_member_location[DW_OP_plus_uconst 0xc]
	.dwattr $C$DW$299, DW_AT_accessibility(DW_ACCESS_public)
	.dwattr $C$DW$299, DW_AT_decl_file("C:/ti/ccsv6/tools/compiler/ti-cgt-arm_5.2.4/include/stdio.h")
	.dwattr $C$DW$299, DW_AT_decl_line(0x5f)
	.dwattr $C$DW$299, DW_AT_decl_column(0x16)
$C$DW$300	.dwtag  DW_TAG_member
	.dwattr $C$DW$300, DW_AT_type(*$C$DW$T$19)
	.dwattr $C$DW$300, DW_AT_name("buff_stop")
	.dwattr $C$DW$300, DW_AT_TI_symbol_name("buff_stop")
	.dwattr $C$DW$300, DW_AT_data_member_location[DW_OP_plus_uconst 0x10]
	.dwattr $C$DW$300, DW_AT_accessibility(DW_ACCESS_public)
	.dwattr $C$DW$300, DW_AT_decl_file("C:/ti/ccsv6/tools/compiler/ti-cgt-arm_5.2.4/include/stdio.h")
	.dwattr $C$DW$300, DW_AT_decl_line(0x60)
	.dwattr $C$DW$300, DW_AT_decl_column(0x16)
$C$DW$301	.dwtag  DW_TAG_member
	.dwattr $C$DW$301, DW_AT_type(*$C$DW$T$11)
	.dwattr $C$DW$301, DW_AT_name("flags")
	.dwattr $C$DW$301, DW_AT_TI_symbol_name("flags")
	.dwattr $C$DW$301, DW_AT_data_member_location[DW_OP_plus_uconst 0x14]
	.dwattr $C$DW$301, DW_AT_accessibility(DW_ACCESS_public)
	.dwattr $C$DW$301, DW_AT_decl_file("C:/ti/ccsv6/tools/compiler/ti-cgt-arm_5.2.4/include/stdio.h")
	.dwattr $C$DW$301, DW_AT_decl_line(0x61)
	.dwattr $C$DW$301, DW_AT_decl_column(0x16)
	.dwendtag $C$DW$T$20

	.dwattr $C$DW$T$20, DW_AT_decl_file("C:/ti/ccsv6/tools/compiler/ti-cgt-arm_5.2.4/include/stdio.h")
	.dwattr $C$DW$T$20, DW_AT_decl_line(0x5b)
	.dwattr $C$DW$T$20, DW_AT_decl_column(0x10)
$C$DW$T$25	.dwtag  DW_TAG_typedef, DW_AT_name("FILE")
	.dwattr $C$DW$T$25, DW_AT_type(*$C$DW$T$20)
	.dwattr $C$DW$T$25, DW_AT_language(DW_LANG_C)
	.dwattr $C$DW$T$25, DW_AT_decl_file("C:/ti/ccsv6/tools/compiler/ti-cgt-arm_5.2.4/include/stdio.h")
	.dwattr $C$DW$T$25, DW_AT_decl_line(0x62)
	.dwattr $C$DW$T$25, DW_AT_decl_column(0x03)

$C$DW$T$21	.dwtag  DW_TAG_structure_type
	.dwattr $C$DW$T$21, DW_AT_byte_size(0x08)
$C$DW$302	.dwtag  DW_TAG_member
	.dwattr $C$DW$302, DW_AT_type(*$C$DW$T$10)
	.dwattr $C$DW$302, DW_AT_name("quot")
	.dwattr $C$DW$302, DW_AT_TI_symbol_name("quot")
	.dwattr $C$DW$302, DW_AT_data_member_location[DW_OP_plus_uconst 0x0]
	.dwattr $C$DW$302, DW_AT_accessibility(DW_ACCESS_public)
	.dwattr $C$DW$302, DW_AT_decl_file("C:/ti/ccsv6/tools/compiler/ti-cgt-arm_5.2.4/include/stdlib.h")
	.dwattr $C$DW$302, DW_AT_decl_line(0x59)
	.dwattr $C$DW$302, DW_AT_decl_column(0x16)
$C$DW$303	.dwtag  DW_TAG_member
	.dwattr $C$DW$303, DW_AT_type(*$C$DW$T$10)
	.dwattr $C$DW$303, DW_AT_name("rem")
	.dwattr $C$DW$303, DW_AT_TI_symbol_name("rem")
	.dwattr $C$DW$303, DW_AT_data_member_location[DW_OP_plus_uconst 0x4]
	.dwattr $C$DW$303, DW_AT_accessibility(DW_ACCESS_public)
	.dwattr $C$DW$303, DW_AT_decl_file("C:/ti/ccsv6/tools/compiler/ti-cgt-arm_5.2.4/include/stdlib.h")
	.dwattr $C$DW$303, DW_AT_decl_line(0x59)
	.dwattr $C$DW$303, DW_AT_decl_column(0x1c)
	.dwendtag $C$DW$T$21

	.dwattr $C$DW$T$21, DW_AT_decl_file("C:/ti/ccsv6/tools/compiler/ti-cgt-arm_5.2.4/include/stdlib.h")
	.dwattr $C$DW$T$21, DW_AT_decl_line(0x59)
	.dwattr $C$DW$T$21, DW_AT_decl_column(0x10)
$C$DW$T$26	.dwtag  DW_TAG_typedef, DW_AT_name("div_t")
	.dwattr $C$DW$T$26, DW_AT_type(*$C$DW$T$21)
	.dwattr $C$DW$T$26, DW_AT_language(DW_LANG_C)
	.dwattr $C$DW$T$26, DW_AT_decl_file("C:/ti/ccsv6/tools/compiler/ti-cgt-arm_5.2.4/include/stdlib.h")
	.dwattr $C$DW$T$26, DW_AT_decl_line(0x59)
	.dwattr $C$DW$T$26, DW_AT_decl_column(0x23)

$C$DW$T$22	.dwtag  DW_TAG_structure_type
	.dwattr $C$DW$T$22, DW_AT_byte_size(0x08)
$C$DW$304	.dwtag  DW_TAG_member
	.dwattr $C$DW$304, DW_AT_type(*$C$DW$T$10)
	.dwattr $C$DW$304, DW_AT_name("quot")
	.dwattr $C$DW$304, DW_AT_TI_symbol_name("quot")
	.dwattr $C$DW$304, DW_AT_data_member_location[DW_OP_plus_uconst 0x0]
	.dwattr $C$DW$304, DW_AT_accessibility(DW_ACCESS_public)
	.dwattr $C$DW$304, DW_AT_decl_file("C:/ti/ccsv6/tools/compiler/ti-cgt-arm_5.2.4/include/stdlib.h")
	.dwattr $C$DW$304, DW_AT_decl_line(0x5b)
	.dwattr $C$DW$304, DW_AT_decl_column(0x16)
$C$DW$305	.dwtag  DW_TAG_member
	.dwattr $C$DW$305, DW_AT_type(*$C$DW$T$10)
	.dwattr $C$DW$305, DW_AT_name("rem")
	.dwattr $C$DW$305, DW_AT_TI_symbol_name("rem")
	.dwattr $C$DW$305, DW_AT_data_member_location[DW_OP_plus_uconst 0x4]
	.dwattr $C$DW$305, DW_AT_accessibility(DW_ACCESS_public)
	.dwattr $C$DW$305, DW_AT_decl_file("C:/ti/ccsv6/tools/compiler/ti-cgt-arm_5.2.4/include/stdlib.h")
	.dwattr $C$DW$305, DW_AT_decl_line(0x5b)
	.dwattr $C$DW$305, DW_AT_decl_column(0x1c)
	.dwendtag $C$DW$T$22

	.dwattr $C$DW$T$22, DW_AT_decl_file("C:/ti/ccsv6/tools/compiler/ti-cgt-arm_5.2.4/include/stdlib.h")
	.dwattr $C$DW$T$22, DW_AT_decl_line(0x5b)
	.dwattr $C$DW$T$22, DW_AT_decl_column(0x10)
$C$DW$T$27	.dwtag  DW_TAG_typedef, DW_AT_name("ldiv_t")
	.dwattr $C$DW$T$27, DW_AT_type(*$C$DW$T$22)
	.dwattr $C$DW$T$27, DW_AT_language(DW_LANG_C)
	.dwattr $C$DW$T$27, DW_AT_decl_file("C:/ti/ccsv6/tools/compiler/ti-cgt-arm_5.2.4/include/stdlib.h")
	.dwattr $C$DW$T$27, DW_AT_decl_line(0x5b)
	.dwattr $C$DW$T$27, DW_AT_decl_column(0x23)

$C$DW$T$23	.dwtag  DW_TAG_structure_type
	.dwattr $C$DW$T$23, DW_AT_byte_size(0x10)
$C$DW$306	.dwtag  DW_TAG_member
	.dwattr $C$DW$306, DW_AT_type(*$C$DW$T$14)
	.dwattr $C$DW$306, DW_AT_name("quot")
	.dwattr $C$DW$306, DW_AT_TI_symbol_name("quot")
	.dwattr $C$DW$306, DW_AT_data_member_location[DW_OP_plus_uconst 0x0]
	.dwattr $C$DW$306, DW_AT_accessibility(DW_ACCESS_public)
	.dwattr $C$DW$306, DW_AT_decl_file("C:/ti/ccsv6/tools/compiler/ti-cgt-arm_5.2.4/include/stdlib.h")
	.dwattr $C$DW$306, DW_AT_decl_line(0x5e)
	.dwattr $C$DW$306, DW_AT_decl_column(0x1c)
$C$DW$307	.dwtag  DW_TAG_member
	.dwattr $C$DW$307, DW_AT_type(*$C$DW$T$14)
	.dwattr $C$DW$307, DW_AT_name("rem")
	.dwattr $C$DW$307, DW_AT_TI_symbol_name("rem")
	.dwattr $C$DW$307, DW_AT_data_member_location[DW_OP_plus_uconst 0x8]
	.dwattr $C$DW$307, DW_AT_accessibility(DW_ACCESS_public)
	.dwattr $C$DW$307, DW_AT_decl_file("C:/ti/ccsv6/tools/compiler/ti-cgt-arm_5.2.4/include/stdlib.h")
	.dwattr $C$DW$307, DW_AT_decl_line(0x5e)
	.dwattr $C$DW$307, DW_AT_decl_column(0x22)
	.dwendtag $C$DW$T$23

	.dwattr $C$DW$T$23, DW_AT_decl_file("C:/ti/ccsv6/tools/compiler/ti-cgt-arm_5.2.4/include/stdlib.h")
	.dwattr $C$DW$T$23, DW_AT_decl_line(0x5e)
	.dwattr $C$DW$T$23, DW_AT_decl_column(0x10)
$C$DW$T$28	.dwtag  DW_TAG_typedef, DW_AT_name("lldiv_t")
	.dwattr $C$DW$T$28, DW_AT_type(*$C$DW$T$23)
	.dwattr $C$DW$T$28, DW_AT_language(DW_LANG_C)
	.dwattr $C$DW$T$28, DW_AT_decl_file("C:/ti/ccsv6/tools/compiler/ti-cgt-arm_5.2.4/include/stdlib.h")
	.dwattr $C$DW$T$28, DW_AT_decl_line(0x5e)
	.dwattr $C$DW$T$28, DW_AT_decl_column(0x29)
$C$DW$T$2	.dwtag  DW_TAG_unspecified_type
	.dwattr $C$DW$T$2, DW_AT_name("void")
$C$DW$T$3	.dwtag  DW_TAG_pointer_type
	.dwattr $C$DW$T$3, DW_AT_type(*$C$DW$T$2)
	.dwattr $C$DW$T$3, DW_AT_address_class(0x20)

$C$DW$T$32	.dwtag  DW_TAG_subroutine_type
	.dwattr $C$DW$T$32, DW_AT_language(DW_LANG_C)
$C$DW$T$33	.dwtag  DW_TAG_pointer_type
	.dwattr $C$DW$T$33, DW_AT_type(*$C$DW$T$32)
	.dwattr $C$DW$T$33, DW_AT_address_class(0x20)
$C$DW$T$34	.dwtag  DW_TAG_typedef, DW_AT_name("__TI_atexit_fn")
	.dwattr $C$DW$T$34, DW_AT_type(*$C$DW$T$33)
	.dwattr $C$DW$T$34, DW_AT_language(DW_LANG_C)
	.dwattr $C$DW$T$34, DW_AT_decl_file("C:/ti/ccsv6/tools/compiler/ti-cgt-arm_5.2.4/include/stdlib.h")
	.dwattr $C$DW$T$34, DW_AT_decl_line(0xb2)
	.dwattr $C$DW$T$34, DW_AT_decl_column(0x14)
$C$DW$T$49	.dwtag  DW_TAG_const_type
	.dwattr $C$DW$T$49, DW_AT_type(*$C$DW$T$2)
$C$DW$T$50	.dwtag  DW_TAG_pointer_type
	.dwattr $C$DW$T$50, DW_AT_type(*$C$DW$T$49)
	.dwattr $C$DW$T$50, DW_AT_address_class(0x20)
$C$DW$T$4	.dwtag  DW_TAG_base_type
	.dwattr $C$DW$T$4, DW_AT_encoding(DW_ATE_boolean)
	.dwattr $C$DW$T$4, DW_AT_name("bool")
	.dwattr $C$DW$T$4, DW_AT_byte_size(0x01)
$C$DW$T$5	.dwtag  DW_TAG_base_type
	.dwattr $C$DW$T$5, DW_AT_encoding(DW_ATE_signed_char)
	.dwattr $C$DW$T$5, DW_AT_name("signed char")
	.dwattr $C$DW$T$5, DW_AT_byte_size(0x01)
$C$DW$T$51	.dwtag  DW_TAG_typedef, DW_AT_name("int8_t")
	.dwattr $C$DW$T$51, DW_AT_type(*$C$DW$T$5)
	.dwattr $C$DW$T$51, DW_AT_language(DW_LANG_C)
	.dwattr $C$DW$T$51, DW_AT_decl_file("C:/ti/ccsv6/tools/compiler/ti-cgt-arm_5.2.4/include/stdint.h")
	.dwattr $C$DW$T$51, DW_AT_decl_line(0x2a)
	.dwattr $C$DW$T$51, DW_AT_decl_column(0x1d)
$C$DW$T$52	.dwtag  DW_TAG_typedef, DW_AT_name("int_least8_t")
	.dwattr $C$DW$T$52, DW_AT_type(*$C$DW$T$51)
	.dwattr $C$DW$T$52, DW_AT_language(DW_LANG_C)
	.dwattr $C$DW$T$52, DW_AT_decl_file("C:/ti/ccsv6/tools/compiler/ti-cgt-arm_5.2.4/include/stdint.h")
	.dwattr $C$DW$T$52, DW_AT_decl_line(0x37)
	.dwattr $C$DW$T$52, DW_AT_decl_column(0x17)
$C$DW$T$6	.dwtag  DW_TAG_base_type
	.dwattr $C$DW$T$6, DW_AT_encoding(DW_ATE_unsigned_char)
	.dwattr $C$DW$T$6, DW_AT_name("unsigned char")
	.dwattr $C$DW$T$6, DW_AT_byte_size(0x01)
$C$DW$T$19	.dwtag  DW_TAG_pointer_type
	.dwattr $C$DW$T$19, DW_AT_type(*$C$DW$T$6)
	.dwattr $C$DW$T$19, DW_AT_address_class(0x20)
$C$DW$T$53	.dwtag  DW_TAG_typedef, DW_AT_name("uint8_t")
	.dwattr $C$DW$T$53, DW_AT_type(*$C$DW$T$6)
	.dwattr $C$DW$T$53, DW_AT_language(DW_LANG_C)
	.dwattr $C$DW$T$53, DW_AT_decl_file("C:/ti/ccsv6/tools/compiler/ti-cgt-arm_5.2.4/include/stdint.h")
	.dwattr $C$DW$T$53, DW_AT_decl_line(0x2b)
	.dwattr $C$DW$T$53, DW_AT_decl_column(0x1c)
$C$DW$T$54	.dwtag  DW_TAG_typedef, DW_AT_name("uint_least8_t")
	.dwattr $C$DW$T$54, DW_AT_type(*$C$DW$T$53)
	.dwattr $C$DW$T$54, DW_AT_language(DW_LANG_C)
	.dwattr $C$DW$T$54, DW_AT_decl_file("C:/ti/ccsv6/tools/compiler/ti-cgt-arm_5.2.4/include/stdint.h")
	.dwattr $C$DW$T$54, DW_AT_decl_line(0x38)
	.dwattr $C$DW$T$54, DW_AT_decl_column(0x16)
$C$DW$T$7	.dwtag  DW_TAG_base_type
	.dwattr $C$DW$T$7, DW_AT_encoding(DW_ATE_signed_char)
	.dwattr $C$DW$T$7, DW_AT_name("wchar_t")
	.dwattr $C$DW$T$7, DW_AT_byte_size(0x02)
$C$DW$T$8	.dwtag  DW_TAG_base_type
	.dwattr $C$DW$T$8, DW_AT_encoding(DW_ATE_signed)
	.dwattr $C$DW$T$8, DW_AT_name("short")
	.dwattr $C$DW$T$8, DW_AT_byte_size(0x02)
$C$DW$T$55	.dwtag  DW_TAG_typedef, DW_AT_name("int16_t")
	.dwattr $C$DW$T$55, DW_AT_type(*$C$DW$T$8)
	.dwattr $C$DW$T$55, DW_AT_language(DW_LANG_C)
	.dwattr $C$DW$T$55, DW_AT_decl_file("C:/ti/ccsv6/tools/compiler/ti-cgt-arm_5.2.4/include/stdint.h")
	.dwattr $C$DW$T$55, DW_AT_decl_line(0x2c)
	.dwattr $C$DW$T$55, DW_AT_decl_column(0x1d)
$C$DW$T$56	.dwtag  DW_TAG_typedef, DW_AT_name("int_least16_t")
	.dwattr $C$DW$T$56, DW_AT_type(*$C$DW$T$55)
	.dwattr $C$DW$T$56, DW_AT_language(DW_LANG_C)
	.dwattr $C$DW$T$56, DW_AT_decl_file("C:/ti/ccsv6/tools/compiler/ti-cgt-arm_5.2.4/include/stdint.h")
	.dwattr $C$DW$T$56, DW_AT_decl_line(0x3a)
	.dwattr $C$DW$T$56, DW_AT_decl_column(0x17)
$C$DW$T$9	.dwtag  DW_TAG_base_type
	.dwattr $C$DW$T$9, DW_AT_encoding(DW_ATE_unsigned)
	.dwattr $C$DW$T$9, DW_AT_name("unsigned short")
	.dwattr $C$DW$T$9, DW_AT_byte_size(0x02)
$C$DW$T$57	.dwtag  DW_TAG_typedef, DW_AT_name("_Wchart")
	.dwattr $C$DW$T$57, DW_AT_type(*$C$DW$T$9)
	.dwattr $C$DW$T$57, DW_AT_language(DW_LANG_C)
	.dwattr $C$DW$T$57, DW_AT_decl_file("C:/ti/ccsv6/tools/compiler/ti-cgt-arm_5.2.4/include/yvals.h")
	.dwattr $C$DW$T$57, DW_AT_decl_line(0x1e5)
	.dwattr $C$DW$T$57, DW_AT_decl_column(0x21)
$C$DW$T$58	.dwtag  DW_TAG_typedef, DW_AT_name("_Wintt")
	.dwattr $C$DW$T$58, DW_AT_type(*$C$DW$T$9)
	.dwattr $C$DW$T$58, DW_AT_language(DW_LANG_C)
	.dwattr $C$DW$T$58, DW_AT_decl_file("C:/ti/ccsv6/tools/compiler/ti-cgt-arm_5.2.4/include/yvals.h")
	.dwattr $C$DW$T$58, DW_AT_decl_line(0x1e6)
	.dwattr $C$DW$T$58, DW_AT_decl_column(0x21)
$C$DW$T$47	.dwtag  DW_TAG_typedef, DW_AT_name("uint16_t")
	.dwattr $C$DW$T$47, DW_AT_type(*$C$DW$T$9)
	.dwattr $C$DW$T$47, DW_AT_language(DW_LANG_C)
	.dwattr $C$DW$T$47, DW_AT_decl_file("C:/ti/ccsv6/tools/compiler/ti-cgt-arm_5.2.4/include/stdint.h")
	.dwattr $C$DW$T$47, DW_AT_decl_line(0x2d)
	.dwattr $C$DW$T$47, DW_AT_decl_column(0x1c)
$C$DW$T$59	.dwtag  DW_TAG_typedef, DW_AT_name("uint_least16_t")
	.dwattr $C$DW$T$59, DW_AT_type(*$C$DW$T$47)
	.dwattr $C$DW$T$59, DW_AT_language(DW_LANG_C)
	.dwattr $C$DW$T$59, DW_AT_decl_file("C:/ti/ccsv6/tools/compiler/ti-cgt-arm_5.2.4/include/stdint.h")
	.dwattr $C$DW$T$59, DW_AT_decl_line(0x3b)
	.dwattr $C$DW$T$59, DW_AT_decl_column(0x16)
$C$DW$T$60	.dwtag  DW_TAG_typedef, DW_AT_name("wchar_t")
	.dwattr $C$DW$T$60, DW_AT_type(*$C$DW$T$9)
	.dwattr $C$DW$T$60, DW_AT_language(DW_LANG_C)
	.dwattr $C$DW$T$60, DW_AT_decl_file("C:/ti/ccsv6/tools/compiler/ti-cgt-arm_5.2.4/include/stdlib.h")
	.dwattr $C$DW$T$60, DW_AT_decl_line(0x75)
	.dwattr $C$DW$T$60, DW_AT_decl_column(0x1a)
$C$DW$T$10	.dwtag  DW_TAG_base_type
	.dwattr $C$DW$T$10, DW_AT_encoding(DW_ATE_signed)
	.dwattr $C$DW$T$10, DW_AT_name("int")
	.dwattr $C$DW$T$10, DW_AT_byte_size(0x04)
$C$DW$T$61	.dwtag  DW_TAG_typedef, DW_AT_name("_Ptrdifft")
	.dwattr $C$DW$T$61, DW_AT_type(*$C$DW$T$10)
	.dwattr $C$DW$T$61, DW_AT_language(DW_LANG_C)
	.dwattr $C$DW$T$61, DW_AT_decl_file("C:/ti/ccsv6/tools/compiler/ti-cgt-arm_5.2.4/include/yvals.h")
	.dwattr $C$DW$T$61, DW_AT_decl_line(0xa9)
	.dwattr $C$DW$T$61, DW_AT_decl_column(0x1e)

$C$DW$T$74	.dwtag  DW_TAG_subroutine_type
	.dwattr $C$DW$T$74, DW_AT_type(*$C$DW$T$10)
	.dwattr $C$DW$T$74, DW_AT_language(DW_LANG_C)
$C$DW$308	.dwtag  DW_TAG_formal_parameter
	.dwattr $C$DW$308, DW_AT_type(*$C$DW$T$50)
$C$DW$309	.dwtag  DW_TAG_formal_parameter
	.dwattr $C$DW$309, DW_AT_type(*$C$DW$T$50)
	.dwendtag $C$DW$T$74

$C$DW$T$75	.dwtag  DW_TAG_pointer_type
	.dwattr $C$DW$T$75, DW_AT_type(*$C$DW$T$74)
	.dwattr $C$DW$T$75, DW_AT_address_class(0x20)
$C$DW$T$76	.dwtag  DW_TAG_typedef, DW_AT_name("__TI_compar_fn")
	.dwattr $C$DW$T$76, DW_AT_type(*$C$DW$T$75)
	.dwattr $C$DW$T$76, DW_AT_language(DW_LANG_C)
	.dwattr $C$DW$T$76, DW_AT_decl_file("C:/ti/ccsv6/tools/compiler/ti-cgt-arm_5.2.4/include/stdlib.h")
	.dwattr $C$DW$T$76, DW_AT_decl_line(0xb5)
	.dwattr $C$DW$T$76, DW_AT_decl_column(0x13)
$C$DW$T$77	.dwtag  DW_TAG_typedef, DW_AT_name("int32_t")
	.dwattr $C$DW$T$77, DW_AT_type(*$C$DW$T$10)
	.dwattr $C$DW$T$77, DW_AT_language(DW_LANG_C)
	.dwattr $C$DW$T$77, DW_AT_decl_file("C:/ti/ccsv6/tools/compiler/ti-cgt-arm_5.2.4/include/stdint.h")
	.dwattr $C$DW$T$77, DW_AT_decl_line(0x2e)
	.dwattr $C$DW$T$77, DW_AT_decl_column(0x1d)
$C$DW$T$78	.dwtag  DW_TAG_typedef, DW_AT_name("int_fast16_t")
	.dwattr $C$DW$T$78, DW_AT_type(*$C$DW$T$77)
	.dwattr $C$DW$T$78, DW_AT_language(DW_LANG_C)
	.dwattr $C$DW$T$78, DW_AT_decl_file("C:/ti/ccsv6/tools/compiler/ti-cgt-arm_5.2.4/include/stdint.h")
	.dwattr $C$DW$T$78, DW_AT_decl_line(0x47)
	.dwattr $C$DW$T$78, DW_AT_decl_column(0x17)
$C$DW$T$79	.dwtag  DW_TAG_typedef, DW_AT_name("int_fast32_t")
	.dwattr $C$DW$T$79, DW_AT_type(*$C$DW$T$77)
	.dwattr $C$DW$T$79, DW_AT_language(DW_LANG_C)
	.dwattr $C$DW$T$79, DW_AT_decl_file("C:/ti/ccsv6/tools/compiler/ti-cgt-arm_5.2.4/include/stdint.h")
	.dwattr $C$DW$T$79, DW_AT_decl_line(0x4a)
	.dwattr $C$DW$T$79, DW_AT_decl_column(0x17)
$C$DW$T$80	.dwtag  DW_TAG_typedef, DW_AT_name("int_fast8_t")
	.dwattr $C$DW$T$80, DW_AT_type(*$C$DW$T$77)
	.dwattr $C$DW$T$80, DW_AT_language(DW_LANG_C)
	.dwattr $C$DW$T$80, DW_AT_decl_file("C:/ti/ccsv6/tools/compiler/ti-cgt-arm_5.2.4/include/stdint.h")
	.dwattr $C$DW$T$80, DW_AT_decl_line(0x45)
	.dwattr $C$DW$T$80, DW_AT_decl_column(0x17)
$C$DW$T$81	.dwtag  DW_TAG_typedef, DW_AT_name("int_least32_t")
	.dwattr $C$DW$T$81, DW_AT_type(*$C$DW$T$77)
	.dwattr $C$DW$T$81, DW_AT_language(DW_LANG_C)
	.dwattr $C$DW$T$81, DW_AT_decl_file("C:/ti/ccsv6/tools/compiler/ti-cgt-arm_5.2.4/include/stdint.h")
	.dwattr $C$DW$T$81, DW_AT_decl_line(0x3c)
	.dwattr $C$DW$T$81, DW_AT_decl_column(0x17)
$C$DW$T$82	.dwtag  DW_TAG_typedef, DW_AT_name("intptr_t")
	.dwattr $C$DW$T$82, DW_AT_type(*$C$DW$T$10)
	.dwattr $C$DW$T$82, DW_AT_language(DW_LANG_C)
	.dwattr $C$DW$T$82, DW_AT_decl_file("C:/ti/ccsv6/tools/compiler/ti-cgt-arm_5.2.4/include/stdint.h")
	.dwattr $C$DW$T$82, DW_AT_decl_line(0x52)
	.dwattr $C$DW$T$82, DW_AT_decl_column(0x1a)
$C$DW$T$11	.dwtag  DW_TAG_base_type
	.dwattr $C$DW$T$11, DW_AT_encoding(DW_ATE_unsigned)
	.dwattr $C$DW$T$11, DW_AT_name("unsigned int")
	.dwattr $C$DW$T$11, DW_AT_byte_size(0x04)
$C$DW$T$83	.dwtag  DW_TAG_typedef, DW_AT_name("_Sizet")
	.dwattr $C$DW$T$83, DW_AT_type(*$C$DW$T$11)
	.dwattr $C$DW$T$83, DW_AT_language(DW_LANG_C)
	.dwattr $C$DW$T$83, DW_AT_decl_file("C:/ti/ccsv6/tools/compiler/ti-cgt-arm_5.2.4/include/yvals.h")
	.dwattr $C$DW$T$83, DW_AT_decl_line(0xab)
	.dwattr $C$DW$T$83, DW_AT_decl_column(0x1a)
$C$DW$T$85	.dwtag  DW_TAG_typedef, DW_AT_name("size_t")
	.dwattr $C$DW$T$85, DW_AT_type(*$C$DW$T$11)
	.dwattr $C$DW$T$85, DW_AT_language(DW_LANG_C)
	.dwattr $C$DW$T$85, DW_AT_decl_file("C:/ti/ccsv6/tools/compiler/ti-cgt-arm_5.2.4/include/stdio.h")
	.dwattr $C$DW$T$85, DW_AT_decl_line(0x58)
	.dwattr $C$DW$T$85, DW_AT_decl_column(0x19)
$C$DW$T$38	.dwtag  DW_TAG_typedef, DW_AT_name("uint32_t")
	.dwattr $C$DW$T$38, DW_AT_type(*$C$DW$T$11)
	.dwattr $C$DW$T$38, DW_AT_language(DW_LANG_C)
	.dwattr $C$DW$T$38, DW_AT_decl_file("C:/ti/ccsv6/tools/compiler/ti-cgt-arm_5.2.4/include/stdint.h")
	.dwattr $C$DW$T$38, DW_AT_decl_line(0x2f)
	.dwattr $C$DW$T$38, DW_AT_decl_column(0x1c)
$C$DW$T$88	.dwtag  DW_TAG_volatile_type
	.dwattr $C$DW$T$88, DW_AT_type(*$C$DW$T$38)
$C$DW$T$90	.dwtag  DW_TAG_typedef, DW_AT_name("uint_fast16_t")
	.dwattr $C$DW$T$90, DW_AT_type(*$C$DW$T$38)
	.dwattr $C$DW$T$90, DW_AT_language(DW_LANG_C)
	.dwattr $C$DW$T$90, DW_AT_decl_file("C:/ti/ccsv6/tools/compiler/ti-cgt-arm_5.2.4/include/stdint.h")
	.dwattr $C$DW$T$90, DW_AT_decl_line(0x48)
	.dwattr $C$DW$T$90, DW_AT_decl_column(0x16)
$C$DW$T$91	.dwtag  DW_TAG_typedef, DW_AT_name("uint_fast32_t")
	.dwattr $C$DW$T$91, DW_AT_type(*$C$DW$T$38)
	.dwattr $C$DW$T$91, DW_AT_language(DW_LANG_C)
	.dwattr $C$DW$T$91, DW_AT_decl_file("C:/ti/ccsv6/tools/compiler/ti-cgt-arm_5.2.4/include/stdint.h")
	.dwattr $C$DW$T$91, DW_AT_decl_line(0x4b)
	.dwattr $C$DW$T$91, DW_AT_decl_column(0x16)
$C$DW$T$92	.dwtag  DW_TAG_typedef, DW_AT_name("uint_fast8_t")
	.dwattr $C$DW$T$92, DW_AT_type(*$C$DW$T$38)
	.dwattr $C$DW$T$92, DW_AT_language(DW_LANG_C)
	.dwattr $C$DW$T$92, DW_AT_decl_file("C:/ti/ccsv6/tools/compiler/ti-cgt-arm_5.2.4/include/stdint.h")
	.dwattr $C$DW$T$92, DW_AT_decl_line(0x46)
	.dwattr $C$DW$T$92, DW_AT_decl_column(0x16)
$C$DW$T$93	.dwtag  DW_TAG_typedef, DW_AT_name("uint_least32_t")
	.dwattr $C$DW$T$93, DW_AT_type(*$C$DW$T$38)
	.dwattr $C$DW$T$93, DW_AT_language(DW_LANG_C)
	.dwattr $C$DW$T$93, DW_AT_decl_file("C:/ti/ccsv6/tools/compiler/ti-cgt-arm_5.2.4/include/stdint.h")
	.dwattr $C$DW$T$93, DW_AT_decl_line(0x3d)
	.dwattr $C$DW$T$93, DW_AT_decl_column(0x16)
$C$DW$T$94	.dwtag  DW_TAG_typedef, DW_AT_name("uintptr_t")
	.dwattr $C$DW$T$94, DW_AT_type(*$C$DW$T$11)
	.dwattr $C$DW$T$94, DW_AT_language(DW_LANG_C)
	.dwattr $C$DW$T$94, DW_AT_decl_file("C:/ti/ccsv6/tools/compiler/ti-cgt-arm_5.2.4/include/stdint.h")
	.dwattr $C$DW$T$94, DW_AT_decl_line(0x53)
	.dwattr $C$DW$T$94, DW_AT_decl_column(0x1a)
$C$DW$T$12	.dwtag  DW_TAG_base_type
	.dwattr $C$DW$T$12, DW_AT_encoding(DW_ATE_signed)
	.dwattr $C$DW$T$12, DW_AT_name("long")
	.dwattr $C$DW$T$12, DW_AT_byte_size(0x04)
$C$DW$T$95	.dwtag  DW_TAG_typedef, DW_AT_name("_Int32t")
	.dwattr $C$DW$T$95, DW_AT_type(*$C$DW$T$12)
	.dwattr $C$DW$T$95, DW_AT_language(DW_LANG_C)
	.dwattr $C$DW$T$95, DW_AT_decl_file("C:/ti/ccsv6/tools/compiler/ti-cgt-arm_5.2.4/include/yvals.h")
	.dwattr $C$DW$T$95, DW_AT_decl_line(0xa6)
	.dwattr $C$DW$T$95, DW_AT_decl_column(0x0e)
$C$DW$T$96	.dwtag  DW_TAG_typedef, DW_AT_name("fpos_t")
	.dwattr $C$DW$T$96, DW_AT_type(*$C$DW$T$12)
	.dwattr $C$DW$T$96, DW_AT_language(DW_LANG_C)
	.dwattr $C$DW$T$96, DW_AT_decl_file("C:/ti/ccsv6/tools/compiler/ti-cgt-arm_5.2.4/include/stdio.h")
	.dwattr $C$DW$T$96, DW_AT_decl_line(0x6e)
	.dwattr $C$DW$T$96, DW_AT_decl_column(0x0e)
$C$DW$T$13	.dwtag  DW_TAG_base_type
	.dwattr $C$DW$T$13, DW_AT_encoding(DW_ATE_unsigned)
	.dwattr $C$DW$T$13, DW_AT_name("unsigned long")
	.dwattr $C$DW$T$13, DW_AT_byte_size(0x04)
$C$DW$T$97	.dwtag  DW_TAG_typedef, DW_AT_name("_Uint32t")
	.dwattr $C$DW$T$97, DW_AT_type(*$C$DW$T$13)
	.dwattr $C$DW$T$97, DW_AT_language(DW_LANG_C)
	.dwattr $C$DW$T$97, DW_AT_decl_file("C:/ti/ccsv6/tools/compiler/ti-cgt-arm_5.2.4/include/yvals.h")
	.dwattr $C$DW$T$97, DW_AT_decl_line(0xa7)
	.dwattr $C$DW$T$97, DW_AT_decl_column(0x17)
$C$DW$T$14	.dwtag  DW_TAG_base_type
	.dwattr $C$DW$T$14, DW_AT_encoding(DW_ATE_signed)
	.dwattr $C$DW$T$14, DW_AT_name("long long")
	.dwattr $C$DW$T$14, DW_AT_byte_size(0x08)
$C$DW$T$98	.dwtag  DW_TAG_typedef, DW_AT_name("_Longlong")
	.dwattr $C$DW$T$98, DW_AT_type(*$C$DW$T$14)
	.dwattr $C$DW$T$98, DW_AT_language(DW_LANG_C)
	.dwattr $C$DW$T$98, DW_AT_decl_file("C:/ti/ccsv6/tools/compiler/ti-cgt-arm_5.2.4/include/yvals.h")
	.dwattr $C$DW$T$98, DW_AT_decl_line(0x1b5)
	.dwattr $C$DW$T$98, DW_AT_decl_column(0x13)
$C$DW$T$99	.dwtag  DW_TAG_typedef, DW_AT_name("int64_t")
	.dwattr $C$DW$T$99, DW_AT_type(*$C$DW$T$14)
	.dwattr $C$DW$T$99, DW_AT_language(DW_LANG_C)
	.dwattr $C$DW$T$99, DW_AT_decl_file("C:/ti/ccsv6/tools/compiler/ti-cgt-arm_5.2.4/include/stdint.h")
	.dwattr $C$DW$T$99, DW_AT_decl_line(0x32)
	.dwattr $C$DW$T$99, DW_AT_decl_column(0x21)
$C$DW$T$100	.dwtag  DW_TAG_typedef, DW_AT_name("int_fast64_t")
	.dwattr $C$DW$T$100, DW_AT_type(*$C$DW$T$99)
	.dwattr $C$DW$T$100, DW_AT_language(DW_LANG_C)
	.dwattr $C$DW$T$100, DW_AT_decl_file("C:/ti/ccsv6/tools/compiler/ti-cgt-arm_5.2.4/include/stdint.h")
	.dwattr $C$DW$T$100, DW_AT_decl_line(0x4e)
	.dwattr $C$DW$T$100, DW_AT_decl_column(0x17)
$C$DW$T$101	.dwtag  DW_TAG_typedef, DW_AT_name("int_least64_t")
	.dwattr $C$DW$T$101, DW_AT_type(*$C$DW$T$99)
	.dwattr $C$DW$T$101, DW_AT_language(DW_LANG_C)
	.dwattr $C$DW$T$101, DW_AT_decl_file("C:/ti/ccsv6/tools/compiler/ti-cgt-arm_5.2.4/include/stdint.h")
	.dwattr $C$DW$T$101, DW_AT_decl_line(0x40)
	.dwattr $C$DW$T$101, DW_AT_decl_column(0x17)
$C$DW$T$102	.dwtag  DW_TAG_typedef, DW_AT_name("intmax_t")
	.dwattr $C$DW$T$102, DW_AT_type(*$C$DW$T$14)
	.dwattr $C$DW$T$102, DW_AT_language(DW_LANG_C)
	.dwattr $C$DW$T$102, DW_AT_decl_file("C:/ti/ccsv6/tools/compiler/ti-cgt-arm_5.2.4/include/stdint.h")
	.dwattr $C$DW$T$102, DW_AT_decl_line(0x56)
	.dwattr $C$DW$T$102, DW_AT_decl_column(0x20)
$C$DW$T$15	.dwtag  DW_TAG_base_type
	.dwattr $C$DW$T$15, DW_AT_encoding(DW_ATE_unsigned)
	.dwattr $C$DW$T$15, DW_AT_name("unsigned long long")
	.dwattr $C$DW$T$15, DW_AT_byte_size(0x08)
$C$DW$T$103	.dwtag  DW_TAG_typedef, DW_AT_name("_ULonglong")
	.dwattr $C$DW$T$103, DW_AT_type(*$C$DW$T$15)
	.dwattr $C$DW$T$103, DW_AT_language(DW_LANG_C)
	.dwattr $C$DW$T$103, DW_AT_decl_file("C:/ti/ccsv6/tools/compiler/ti-cgt-arm_5.2.4/include/yvals.h")
	.dwattr $C$DW$T$103, DW_AT_decl_line(0x1b6)
	.dwattr $C$DW$T$103, DW_AT_decl_column(0x14)
$C$DW$T$104	.dwtag  DW_TAG_typedef, DW_AT_name("uint64_t")
	.dwattr $C$DW$T$104, DW_AT_type(*$C$DW$T$15)
	.dwattr $C$DW$T$104, DW_AT_language(DW_LANG_C)
	.dwattr $C$DW$T$104, DW_AT_decl_file("C:/ti/ccsv6/tools/compiler/ti-cgt-arm_5.2.4/include/stdint.h")
	.dwattr $C$DW$T$104, DW_AT_decl_line(0x33)
	.dwattr $C$DW$T$104, DW_AT_decl_column(0x20)
$C$DW$T$105	.dwtag  DW_TAG_typedef, DW_AT_name("uint_fast64_t")
	.dwattr $C$DW$T$105, DW_AT_type(*$C$DW$T$104)
	.dwattr $C$DW$T$105, DW_AT_language(DW_LANG_C)
	.dwattr $C$DW$T$105, DW_AT_decl_file("C:/ti/ccsv6/tools/compiler/ti-cgt-arm_5.2.4/include/stdint.h")
	.dwattr $C$DW$T$105, DW_AT_decl_line(0x4f)
	.dwattr $C$DW$T$105, DW_AT_decl_column(0x16)
$C$DW$T$106	.dwtag  DW_TAG_typedef, DW_AT_name("uint_least64_t")
	.dwattr $C$DW$T$106, DW_AT_type(*$C$DW$T$104)
	.dwattr $C$DW$T$106, DW_AT_language(DW_LANG_C)
	.dwattr $C$DW$T$106, DW_AT_decl_file("C:/ti/ccsv6/tools/compiler/ti-cgt-arm_5.2.4/include/stdint.h")
	.dwattr $C$DW$T$106, DW_AT_decl_line(0x41)
	.dwattr $C$DW$T$106, DW_AT_decl_column(0x16)
$C$DW$T$107	.dwtag  DW_TAG_typedef, DW_AT_name("uintmax_t")
	.dwattr $C$DW$T$107, DW_AT_type(*$C$DW$T$15)
	.dwattr $C$DW$T$107, DW_AT_language(DW_LANG_C)
	.dwattr $C$DW$T$107, DW_AT_decl_file("C:/ti/ccsv6/tools/compiler/ti-cgt-arm_5.2.4/include/stdint.h")
	.dwattr $C$DW$T$107, DW_AT_decl_line(0x57)
	.dwattr $C$DW$T$107, DW_AT_decl_column(0x20)
$C$DW$T$16	.dwtag  DW_TAG_base_type
	.dwattr $C$DW$T$16, DW_AT_encoding(DW_ATE_float)
	.dwattr $C$DW$T$16, DW_AT_name("float")
	.dwattr $C$DW$T$16, DW_AT_byte_size(0x04)
$C$DW$T$17	.dwtag  DW_TAG_base_type
	.dwattr $C$DW$T$17, DW_AT_encoding(DW_ATE_float)
	.dwattr $C$DW$T$17, DW_AT_name("double")
	.dwattr $C$DW$T$17, DW_AT_byte_size(0x08)
$C$DW$T$18	.dwtag  DW_TAG_base_type
	.dwattr $C$DW$T$18, DW_AT_encoding(DW_ATE_float)
	.dwattr $C$DW$T$18, DW_AT_name("long double")
	.dwattr $C$DW$T$18, DW_AT_byte_size(0x08)
$C$DW$T$108	.dwtag  DW_TAG_typedef, DW_AT_name("_Sysch_t")
	.dwattr $C$DW$T$108, DW_AT_type(*$C$DW$T$6)
	.dwattr $C$DW$T$108, DW_AT_language(DW_LANG_C)
	.dwattr $C$DW$T$108, DW_AT_decl_file("C:/ti/ccsv6/tools/compiler/ti-cgt-arm_5.2.4/include/yvals.h")
	.dwattr $C$DW$T$108, DW_AT_decl_line(0x218)
	.dwattr $C$DW$T$108, DW_AT_decl_column(0x0e)
$C$DW$T$35	.dwtag  DW_TAG_pointer_type
	.dwattr $C$DW$T$35, DW_AT_type(*$C$DW$T$6)
	.dwattr $C$DW$T$35, DW_AT_address_class(0x20)
$C$DW$T$115	.dwtag  DW_TAG_typedef, DW_AT_name("__builtin_va_list")
	.dwattr $C$DW$T$115, DW_AT_type(*$C$DW$T$35)
	.dwattr $C$DW$T$115, DW_AT_language(DW_LANG_C)
	.dwattr $C$DW$T$115, DW_AT_decl_file("../esp8266.c")
	.dwattr $C$DW$T$115, DW_AT_decl_line(0x303)
	.dwattr $C$DW$T$115, DW_AT_decl_column(0x01)
$C$DW$T$41	.dwtag  DW_TAG_const_type
	.dwattr $C$DW$T$41, DW_AT_type(*$C$DW$T$6)
$C$DW$T$42	.dwtag  DW_TAG_pointer_type
	.dwattr $C$DW$T$42, DW_AT_type(*$C$DW$T$41)
	.dwattr $C$DW$T$42, DW_AT_address_class(0x20)

$C$DW$T$109	.dwtag  DW_TAG_array_type
	.dwattr $C$DW$T$109, DW_AT_type(*$C$DW$T$41)
	.dwattr $C$DW$T$109, DW_AT_language(DW_LANG_C)
	.dwattr $C$DW$T$109, DW_AT_byte_size(0xee)
$C$DW$310	.dwtag  DW_TAG_subrange_type
	.dwattr $C$DW$310, DW_AT_upper_bound(0xed)
	.dwendtag $C$DW$T$109


$C$DW$T$110	.dwtag  DW_TAG_array_type
	.dwattr $C$DW$T$110, DW_AT_type(*$C$DW$T$41)
	.dwattr $C$DW$T$110, DW_AT_language(DW_LANG_C)
	.dwattr $C$DW$T$110, DW_AT_byte_size(0x4e)
$C$DW$311	.dwtag  DW_TAG_subrange_type
	.dwattr $C$DW$311, DW_AT_upper_bound(0x4d)
	.dwendtag $C$DW$T$110


$C$DW$T$118	.dwtag  DW_TAG_array_type
	.dwattr $C$DW$T$118, DW_AT_type(*$C$DW$T$6)
	.dwattr $C$DW$T$118, DW_AT_language(DW_LANG_C)
	.dwattr $C$DW$T$118, DW_AT_byte_size(0x400)
$C$DW$312	.dwtag  DW_TAG_subrange_type
	.dwattr $C$DW$312, DW_AT_upper_bound(0x3ff)
	.dwendtag $C$DW$T$118


$C$DW$T$120	.dwtag  DW_TAG_array_type
	.dwattr $C$DW$T$120, DW_AT_type(*$C$DW$T$6)
	.dwattr $C$DW$T$120, DW_AT_language(DW_LANG_C)
	.dwattr $C$DW$T$120, DW_AT_byte_size(0x20)
$C$DW$313	.dwtag  DW_TAG_subrange_type
	.dwattr $C$DW$313, DW_AT_upper_bound(0x1f)
	.dwendtag $C$DW$T$120


$C$DW$T$121	.dwtag  DW_TAG_array_type
	.dwattr $C$DW$T$121, DW_AT_type(*$C$DW$T$6)
	.dwattr $C$DW$T$121, DW_AT_language(DW_LANG_C)
	.dwattr $C$DW$T$121, DW_AT_byte_size(0x10)
$C$DW$314	.dwtag  DW_TAG_subrange_type
	.dwattr $C$DW$314, DW_AT_upper_bound(0x0f)
	.dwendtag $C$DW$T$121


$C$DW$T$159	.dwtag  DW_TAG_array_type
	.dwattr $C$DW$T$159, DW_AT_type(*$C$DW$T$6)
	.dwattr $C$DW$T$159, DW_AT_language(DW_LANG_C)
	.dwattr $C$DW$T$159, DW_AT_byte_size(0x4e)
$C$DW$315	.dwtag  DW_TAG_subrange_type
	.dwattr $C$DW$315, DW_AT_upper_bound(0x4d)
	.dwendtag $C$DW$T$159

$C$DW$T$162	.dwtag  DW_TAG_base_type
	.dwattr $C$DW$T$162, DW_AT_encoding(DW_ATE_unsigned_char)
	.dwattr $C$DW$T$162, DW_AT_name("unsigned char")
	.dwattr $C$DW$T$162, DW_AT_byte_size(0x01)
$C$DW$T$163	.dwtag  DW_TAG_volatile_type
	.dwattr $C$DW$T$163, DW_AT_type(*$C$DW$T$162)

$C$DW$T$24	.dwtag  DW_TAG_structure_type
	.dwattr $C$DW$T$24, DW_AT_name("__va_list")
	.dwattr $C$DW$T$24, DW_AT_byte_size(0x04)
$C$DW$316	.dwtag  DW_TAG_member
	.dwattr $C$DW$316, DW_AT_type(*$C$DW$T$3)
	.dwattr $C$DW$316, DW_AT_name("__ap")
	.dwattr $C$DW$316, DW_AT_TI_symbol_name("__ap")
	.dwattr $C$DW$316, DW_AT_data_member_location[DW_OP_plus_uconst 0x0]
	.dwattr $C$DW$316, DW_AT_accessibility(DW_ACCESS_public)
	.dwattr $C$DW$316, DW_AT_decl_file("C:/ti/ccsv6/tools/compiler/ti-cgt-arm_5.2.4/include/stdarg.h")
	.dwattr $C$DW$316, DW_AT_decl_line(0x36)
	.dwattr $C$DW$316, DW_AT_decl_column(0x0c)
	.dwendtag $C$DW$T$24

	.dwattr $C$DW$T$24, DW_AT_decl_file("C:/ti/ccsv6/tools/compiler/ti-cgt-arm_5.2.4/include/stdarg.h")
	.dwattr $C$DW$T$24, DW_AT_decl_line(0x35)
	.dwattr $C$DW$T$24, DW_AT_decl_column(0x10)
$C$DW$T$164	.dwtag  DW_TAG_typedef, DW_AT_name("va_list")
	.dwattr $C$DW$T$164, DW_AT_type(*$C$DW$T$24)
	.dwattr $C$DW$T$164, DW_AT_language(DW_LANG_C)
	.dwattr $C$DW$T$164, DW_AT_decl_file("C:/ti/ccsv6/tools/compiler/ti-cgt-arm_5.2.4/include/stdarg.h")
	.dwattr $C$DW$T$164, DW_AT_decl_line(0x37)
	.dwattr $C$DW$T$164, DW_AT_decl_column(0x03)
$C$DW$T$165	.dwtag  DW_TAG_typedef, DW_AT_name("_Va_list")
	.dwattr $C$DW$T$165, DW_AT_type(*$C$DW$T$164)
	.dwattr $C$DW$T$165, DW_AT_language(DW_LANG_C)
	.dwattr $C$DW$T$165, DW_AT_decl_file("C:/ti/ccsv6/tools/compiler/ti-cgt-arm_5.2.4/include/yvals.h")
	.dwattr $C$DW$T$165, DW_AT_decl_line(0x1f6)
	.dwattr $C$DW$T$165, DW_AT_decl_column(0x17)
	.dwattr $C$DW$CU, DW_AT_language(DW_LANG_C)

;***************************************************************
;* DWARF CIE ENTRIES                                           *
;***************************************************************

$C$DW$CIE	.dwcie 14
	.dwcfi	cfa_register, 13
	.dwcfi	cfa_offset, 0
	.dwcfi	undefined, 0
	.dwcfi	undefined, 1
	.dwcfi	undefined, 2
	.dwcfi	undefined, 3
	.dwcfi	same_value, 4
	.dwcfi	same_value, 5
	.dwcfi	same_value, 6
	.dwcfi	same_value, 7
	.dwcfi	same_value, 8
	.dwcfi	same_value, 9
	.dwcfi	same_value, 10
	.dwcfi	same_value, 11
	.dwcfi	undefined, 12
	.dwcfi	undefined, 13
	.dwcfi	undefined, 14
	.dwcfi	undefined, 14
	.dwcfi	undefined, 7
	.dwcfi	undefined, 64
	.dwcfi	undefined, 65
	.dwcfi	undefined, 66
	.dwcfi	undefined, 67
	.dwcfi	undefined, 68
	.dwcfi	undefined, 69
	.dwcfi	undefined, 70
	.dwcfi	undefined, 71
	.dwcfi	undefined, 72
	.dwcfi	undefined, 73
	.dwcfi	undefined, 74
	.dwcfi	undefined, 75
	.dwcfi	undefined, 76
	.dwcfi	undefined, 77
	.dwcfi	undefined, 78
	.dwcfi	undefined, 79
	.dwcfi	same_value, 80
	.dwcfi	same_value, 81
	.dwcfi	same_value, 82
	.dwcfi	same_value, 83
	.dwcfi	same_value, 84
	.dwcfi	same_value, 85
	.dwcfi	same_value, 86
	.dwcfi	same_value, 87
	.dwcfi	same_value, 88
	.dwcfi	same_value, 89
	.dwcfi	same_value, 90
	.dwcfi	same_value, 91
	.dwcfi	same_value, 92
	.dwcfi	same_value, 93
	.dwcfi	same_value, 94
	.dwcfi	same_value, 95
	.dwendentry
	.dwendtag $C$DW$CU

