TI ARM Assembler PC v5.2.4 Sat Feb 06 22:51:20 2016

Tools Copyright (c) 1996-2015 Texas Instruments Incorporated
UART.asm                                                             PAGE    1

       1                    ;******************************************************************************
       2                    ;* TI ARM C/C++ Codegen                                             PC v5.2.4 *
       3                    ;* Date/Time created: Sat Feb 06 22:51:20 2016                                *
       4                    ;******************************************************************************
       5                            .compiler_opts --abi=eabi --arm_vmrs_si_workaround=off --code_state=16 --diag_wrap=off --disab
       6 00000000                   .thumb
       7                    
       8                    $C$DW$CU        .dwtag  DW_TAG_compile_unit
       9                            .dwattr $C$DW$CU, DW_AT_name("../UART.c")
      10                            .dwattr $C$DW$CU, DW_AT_producer("TI TI ARM C/C++ Codegen PC v5.2.4 Copyright (c) 1996-2015 Te
      11                            .dwattr $C$DW$CU, DW_AT_TI_version(0x01)
      12                            .dwattr $C$DW$CU, DW_AT_comp_dir("C:\Dropbox\ArmBook\LaunchPad\ValvanoWareTM4C123\ESP8266_4C12
      13                    
      14                    $C$DW$1 .dwtag  DW_TAG_subprogram, DW_AT_name("fopen")
      15                            .dwattr $C$DW$1, DW_AT_TI_symbol_name("fopen")
      16                            .dwattr $C$DW$1, DW_AT_type(*$C$DW$T$23)
      17                            .dwattr $C$DW$1, DW_AT_declaration
      18                            .dwattr $C$DW$1, DW_AT_external
      19                            .dwattr $C$DW$1, DW_AT_decl_file("C:/ti/ccsv6/tools/compiler/ti-cgt-arm_5.2.4/include/stdio.h"
      20                            .dwattr $C$DW$1, DW_AT_decl_line(0xe6)
      21                            .dwattr $C$DW$1, DW_AT_decl_column(0x1d)
      22                    $C$DW$2 .dwtag  DW_TAG_formal_parameter
      23                            .dwattr $C$DW$2, DW_AT_type(*$C$DW$T$26)
      24                    $C$DW$3 .dwtag  DW_TAG_formal_parameter
      25                            .dwattr $C$DW$3, DW_AT_type(*$C$DW$T$26)
      26                            .dwendtag $C$DW$1
      27                    
      28                    
      29                    $C$DW$4 .dwtag  DW_TAG_subprogram, DW_AT_name("freopen")
      30                            .dwattr $C$DW$4, DW_AT_TI_symbol_name("freopen")
      31                            .dwattr $C$DW$4, DW_AT_type(*$C$DW$T$23)
      32                            .dwattr $C$DW$4, DW_AT_declaration
      33                            .dwattr $C$DW$4, DW_AT_external
      34                            .dwattr $C$DW$4, DW_AT_decl_file("C:/ti/ccsv6/tools/compiler/ti-cgt-arm_5.2.4/include/stdio.h"
      35                            .dwattr $C$DW$4, DW_AT_decl_line(0xe7)
      36                            .dwattr $C$DW$4, DW_AT_decl_column(0x1d)
      37                    $C$DW$5 .dwtag  DW_TAG_formal_parameter
      38                            .dwattr $C$DW$5, DW_AT_type(*$C$DW$T$26)
      39                    $C$DW$6 .dwtag  DW_TAG_formal_parameter
      40                            .dwattr $C$DW$6, DW_AT_type(*$C$DW$T$26)
      41                    $C$DW$7 .dwtag  DW_TAG_formal_parameter
      42                            .dwattr $C$DW$7, DW_AT_type(*$C$DW$T$23)
      43                            .dwendtag $C$DW$4
      44                    
      45                    
      46                    $C$DW$8 .dwtag  DW_TAG_subprogram, DW_AT_name("setvbuf")
      47                            .dwattr $C$DW$8, DW_AT_TI_symbol_name("setvbuf")
      48                            .dwattr $C$DW$8, DW_AT_type(*$C$DW$T$10)
      49                            .dwattr $C$DW$8, DW_AT_declaration
      50                            .dwattr $C$DW$8, DW_AT_external
      51                            .dwattr $C$DW$8, DW_AT_decl_file("C:/ti/ccsv6/tools/compiler/ti-cgt-arm_5.2.4/include/stdio.h"
      52                            .dwattr $C$DW$8, DW_AT_decl_line(0xea)
      53                            .dwattr $C$DW$8, DW_AT_decl_column(0x1d)
      54                    $C$DW$9 .dwtag  DW_TAG_formal_parameter
      55                            .dwattr $C$DW$9, DW_AT_type(*$C$DW$T$23)
TI ARM Assembler PC v5.2.4 Sat Feb 06 22:51:20 2016

Tools Copyright (c) 1996-2015 Texas Instruments Incorporated
UART.asm                                                             PAGE    2

      56                    $C$DW$10        .dwtag  DW_TAG_formal_parameter
      57                            .dwattr $C$DW$10, DW_AT_type(*$C$DW$T$38)
      58                    $C$DW$11        .dwtag  DW_TAG_formal_parameter
      59                            .dwattr $C$DW$11, DW_AT_type(*$C$DW$T$10)
      60                    $C$DW$12        .dwtag  DW_TAG_formal_parameter
      61                            .dwattr $C$DW$12, DW_AT_type(*$C$DW$T$54)
      62                            .dwendtag $C$DW$8
      63                    
      64                    
      65                    $C$DW$13        .dwtag  DW_TAG_subprogram, DW_AT_name("StartCritical")
      66                            .dwattr $C$DW$13, DW_AT_TI_symbol_name("StartCritical")
      67                            .dwattr $C$DW$13, DW_AT_type(*$C$DW$T$12)
      68                            .dwattr $C$DW$13, DW_AT_declaration
      69                            .dwattr $C$DW$13, DW_AT_external
      70                            .dwattr $C$DW$13, DW_AT_decl_file("..\FIFO.h")
      71                            .dwattr $C$DW$13, DW_AT_decl_line(0x1f)
      72                            .dwattr $C$DW$13, DW_AT_decl_column(0x06)
      73                    
      74                    $C$DW$14        .dwtag  DW_TAG_subprogram, DW_AT_name("EndCritical")
      75                            .dwattr $C$DW$14, DW_AT_TI_symbol_name("EndCritical")
      76                            .dwattr $C$DW$14, DW_AT_declaration
      77                            .dwattr $C$DW$14, DW_AT_external
      78                            .dwattr $C$DW$14, DW_AT_decl_file("..\FIFO.h")
      79                            .dwattr $C$DW$14, DW_AT_decl_line(0x20)
      80                            .dwattr $C$DW$14, DW_AT_decl_column(0x06)
      81                    $C$DW$15        .dwtag  DW_TAG_formal_parameter
      82                            .dwattr $C$DW$15, DW_AT_type(*$C$DW$T$12)
      83                            .dwendtag $C$DW$14
      84                    
      85                    
      86                    $C$DW$16        .dwtag  DW_TAG_subprogram, DW_AT_name("add_device")
      87                            .dwattr $C$DW$16, DW_AT_TI_symbol_name("add_device")
      88                            .dwattr $C$DW$16, DW_AT_type(*$C$DW$T$10)
      89                            .dwattr $C$DW$16, DW_AT_declaration
      90                            .dwattr $C$DW$16, DW_AT_external
      91                            .dwattr $C$DW$16, DW_AT_decl_file("C:/ti/ccsv6/tools/compiler/ti-cgt-arm_5.2.4/include/file.h"
      92                            .dwattr $C$DW$16, DW_AT_decl_line(0x5a)
      93                            .dwattr $C$DW$16, DW_AT_decl_column(0x18)
      94                    $C$DW$17        .dwtag  DW_TAG_formal_parameter
      95                            .dwattr $C$DW$17, DW_AT_type(*$C$DW$T$38)
      96                    $C$DW$18        .dwtag  DW_TAG_formal_parameter
      97                            .dwattr $C$DW$18, DW_AT_type(*$C$DW$T$11)
      98                    $C$DW$19        .dwtag  DW_TAG_formal_parameter
      99                            .dwattr $C$DW$19, DW_AT_type(*$C$DW$T$63)
     100                    $C$DW$20        .dwtag  DW_TAG_formal_parameter
     101                            .dwattr $C$DW$20, DW_AT_type(*$C$DW$T$65)
     102                    $C$DW$21        .dwtag  DW_TAG_formal_parameter
     103                            .dwattr $C$DW$21, DW_AT_type(*$C$DW$T$67)
     104                    $C$DW$22        .dwtag  DW_TAG_formal_parameter
     105                            .dwattr $C$DW$22, DW_AT_type(*$C$DW$T$69)
     106                    $C$DW$23        .dwtag  DW_TAG_formal_parameter
     107                            .dwattr $C$DW$23, DW_AT_type(*$C$DW$T$76)
     108                    $C$DW$24        .dwtag  DW_TAG_formal_parameter
     109                            .dwattr $C$DW$24, DW_AT_type(*$C$DW$T$71)
     110                    $C$DW$25        .dwtag  DW_TAG_formal_parameter
TI ARM Assembler PC v5.2.4 Sat Feb 06 22:51:20 2016

Tools Copyright (c) 1996-2015 Texas Instruments Incorporated
UART.asm                                                             PAGE    3

     111                            .dwattr $C$DW$25, DW_AT_type(*$C$DW$T$73)
     112                            .dwendtag $C$DW$16
     113                    
     114                    $C$DW$26        .dwtag  DW_TAG_variable, DW_AT_name("_ftable")
     115                            .dwattr $C$DW$26, DW_AT_TI_symbol_name("_ftable")
     116                            .dwattr $C$DW$26, DW_AT_type(*$C$DW$T$31)
     117                            .dwattr $C$DW$26, DW_AT_declaration
     118                            .dwattr $C$DW$26, DW_AT_external
     119                            .dwattr $C$DW$26, DW_AT_decl_file("C:/ti/ccsv6/tools/compiler/ti-cgt-arm_5.2.4/include/stdio.h
     120                            .dwattr $C$DW$26, DW_AT_decl_line(0xd4)
     121                            .dwattr $C$DW$26, DW_AT_decl_column(0x1a)
     122                            .global RxPutI
     123                            .common RxPutI,4,4
     124                    $C$DW$27        .dwtag  DW_TAG_variable, DW_AT_name("RxPutI")
     125                            .dwattr $C$DW$27, DW_AT_TI_symbol_name("RxPutI")
     126                            .dwattr $C$DW$27, DW_AT_location[DW_OP_addr RxPutI]
     127                            .dwattr $C$DW$27, DW_AT_type(*$C$DW$T$86)
     128                            .dwattr $C$DW$27, DW_AT_external
     129                            .dwattr $C$DW$27, DW_AT_decl_file("../UART.c")
     130                            .dwattr $C$DW$27, DW_AT_decl_line(0x47)
     131                            .dwattr $C$DW$27, DW_AT_decl_column(0x01)
     132                            .global RxGetI
     133                            .common RxGetI,4,4
     134                    $C$DW$28        .dwtag  DW_TAG_variable, DW_AT_name("RxGetI")
     135                            .dwattr $C$DW$28, DW_AT_TI_symbol_name("RxGetI")
     136                            .dwattr $C$DW$28, DW_AT_location[DW_OP_addr RxGetI]
     137                            .dwattr $C$DW$28, DW_AT_type(*$C$DW$T$86)
     138                            .dwattr $C$DW$28, DW_AT_external
     139                            .dwattr $C$DW$28, DW_AT_decl_file("../UART.c")
     140                            .dwattr $C$DW$28, DW_AT_decl_line(0x47)
     141                            .dwattr $C$DW$28, DW_AT_decl_column(0x01)
     142 00000000           RxFifo: .usect  ".bss:RxFifo",1024,1
     143                    $C$DW$29        .dwtag  DW_TAG_variable, DW_AT_name("RxFifo")
     144                            .dwattr $C$DW$29, DW_AT_TI_symbol_name("RxFifo")
     145                            .dwattr $C$DW$29, DW_AT_type(*$C$DW$T$107)
     146                            .dwattr $C$DW$29, DW_AT_location[DW_OP_addr RxFifo]
     147                            .dwattr $C$DW$29, DW_AT_decl_file("../UART.c")
     148                            .dwattr $C$DW$29, DW_AT_decl_line(0x47)
     149                            .dwattr $C$DW$29, DW_AT_decl_column(0x01)
     150                            .global TxPutI
     151                            .common TxPutI,4,4
     152                    $C$DW$30        .dwtag  DW_TAG_variable, DW_AT_name("TxPutI")
     153                            .dwattr $C$DW$30, DW_AT_TI_symbol_name("TxPutI")
     154                            .dwattr $C$DW$30, DW_AT_location[DW_OP_addr TxPutI]
     155                            .dwattr $C$DW$30, DW_AT_type(*$C$DW$T$86)
     156                            .dwattr $C$DW$30, DW_AT_external
     157                            .dwattr $C$DW$30, DW_AT_decl_file("../UART.c")
     158                            .dwattr $C$DW$30, DW_AT_decl_line(0x48)
     159                            .dwattr $C$DW$30, DW_AT_decl_column(0x01)
     160                            .global TxGetI
     161                            .common TxGetI,4,4
     162                    $C$DW$31        .dwtag  DW_TAG_variable, DW_AT_name("TxGetI")
     163                            .dwattr $C$DW$31, DW_AT_TI_symbol_name("TxGetI")
     164                            .dwattr $C$DW$31, DW_AT_location[DW_OP_addr TxGetI]
     165                            .dwattr $C$DW$31, DW_AT_type(*$C$DW$T$86)
TI ARM Assembler PC v5.2.4 Sat Feb 06 22:51:20 2016

Tools Copyright (c) 1996-2015 Texas Instruments Incorporated
UART.asm                                                             PAGE    4

     166                            .dwattr $C$DW$31, DW_AT_external
     167                            .dwattr $C$DW$31, DW_AT_decl_file("../UART.c")
     168                            .dwattr $C$DW$31, DW_AT_decl_line(0x48)
     169                            .dwattr $C$DW$31, DW_AT_decl_column(0x01)
     170 00000000           TxFifo: .usect  ".bss:TxFifo",1024,1
     171                    $C$DW$32        .dwtag  DW_TAG_variable, DW_AT_name("TxFifo")
     172                            .dwattr $C$DW$32, DW_AT_TI_symbol_name("TxFifo")
     173                            .dwattr $C$DW$32, DW_AT_type(*$C$DW$T$107)
     174                            .dwattr $C$DW$32, DW_AT_location[DW_OP_addr TxFifo]
     175                            .dwattr $C$DW$32, DW_AT_decl_file("../UART.c")
     176                            .dwattr $C$DW$32, DW_AT_decl_line(0x48)
     177                            .dwattr $C$DW$32, DW_AT_decl_column(0x01)
     178                    ;       C:\ti\ccsv6\tools\compiler\ti-cgt-arm_5.2.4\bin\armacpia.exe -@C:\\Users\\VALVAN~1\\AppData\\L
     179 00000000                   .sect   ".text"
     180                            .clink
     181                            .thumbfunc RxFifo_Init
     182 00000000                   .thumb
     183                            .global RxFifo_Init
     184                    
     185                    $C$DW$33        .dwtag  DW_TAG_subprogram, DW_AT_name("RxFifo_Init")
     186                            .dwattr $C$DW$33, DW_AT_low_pc(RxFifo_Init)
     187                            .dwattr $C$DW$33, DW_AT_high_pc(0x00)
     188                            .dwattr $C$DW$33, DW_AT_TI_symbol_name("RxFifo_Init")
     189                            .dwattr $C$DW$33, DW_AT_external
     190                            .dwattr $C$DW$33, DW_AT_TI_begin_file("../UART.c")
     191                            .dwattr $C$DW$33, DW_AT_TI_begin_line(0x47)
     192                            .dwattr $C$DW$33, DW_AT_TI_begin_column(0x01)
     193                            .dwattr $C$DW$33, DW_AT_decl_file("../UART.c")
     194                            .dwattr $C$DW$33, DW_AT_decl_line(0x47)
     195                            .dwattr $C$DW$33, DW_AT_decl_column(0x01)
     196                            .dwattr $C$DW$33, DW_AT_TI_max_frame_size(0x08)
     197                            .dwpsn  file "../UART.c",line 71,column 1,is_stmt,address RxFifo_Init,isa 1
     198                    
     199                            .dwfde $C$DW$CIE, RxFifo_Init
     200                    
     201                    ;*****************************************************************************
     202                    ;* FUNCTION NAME: RxFifo_Init                                                *
     203                    ;*                                                                           *
     204                    ;*   Regs Modified     : A1,A2,A3,A4,V9,SP,LR,SR,D0,D0_hi,D1,D1_hi,D2,D2_hi, *
     205                    ;*                           D3,D3_hi,D4,D4_hi,D5,D5_hi,D6,D6_hi,D7,D7_hi,   *
     206                    ;*                           FPEXC,FPSCR                                     *
     207                    ;*   Regs Used         : A1,A2,A3,A4,V9,SP,LR,SR,D0,D0_hi,D1,D1_hi,D2,D2_hi, *
     208                    ;*                           D3,D3_hi,D4,D4_hi,D5,D5_hi,D6,D6_hi,D7,D7_hi,   *
     209                    ;*                           FPEXC,FPSCR                                     *
     210                    ;*   Local Frame Size  : 0 Args + 4 Auto + 4 Save = 8 byte                   *
     211                    ;*****************************************************************************
     212 00000000           RxFifo_Init:
     213                    ;* --------------------------------------------------------------------------*
     214                            .dwcfi  cfa_offset, 0
     215 00000000 B508              PUSH      {A4, LR}              ; [DPU_3_PIPE]  ; [ORIG 16-BIT INS]
     216                            .dwcfi  cfa_offset, 8
     217                            .dwcfi  save_reg_to_mem, 14, -4
     218                            .dwcfi  save_reg_to_mem, 3, -8
     219                    $C$DW$34        .dwtag  DW_TAG_variable, DW_AT_name("sr")
     220                            .dwattr $C$DW$34, DW_AT_TI_symbol_name("sr")
TI ARM Assembler PC v5.2.4 Sat Feb 06 22:51:20 2016

Tools Copyright (c) 1996-2015 Texas Instruments Incorporated
UART.asm                                                             PAGE    5

     221                            .dwattr $C$DW$34, DW_AT_type(*$C$DW$T$12)
     222                            .dwattr $C$DW$34, DW_AT_location[DW_OP_breg13 0]
     223                    ;----------------------------------------------------------------------
     224                    ;  71 | AddIndexFifo(Rx, FIFOSIZE, char, FIFOSUCCESS, FIFOFAIL)                
     225                    ;----------------------------------------------------------------------
     226                    $C$DW$35        .dwtag  DW_TAG_TI_branch
     227                            .dwattr $C$DW$35, DW_AT_low_pc(0x00)
     228                            .dwattr $C$DW$35, DW_AT_name("StartCritical")
     229                            .dwattr $C$DW$35, DW_AT_TI_call
     230 00000002 FFFEF7FF!         BL        StartCritical         ; [DPU_3_PIPE] |71|  ; [KEEP 32-BIT INS]
     231                            ; CALL OCCURS {StartCritical }   ; [] |71| 
     232 00000006 4ABD              LDR       A3, $C$CON2           ; [DPU_3_PIPE] |71|  ; [ORIG 16-BIT INS]
     233 00000008 9000              STR       A1, [SP, #0]          ; [DPU_3_PIPE] |71|  ; [ORIG 16-BIT INS]
     234 0000000a 2100              MOVS      A2, #0                ; [DPU_3_PIPE] |71|  ; [ORIG 16-BIT INS]
     235 0000000c 6011              STR       A2, [A3, #0]          ; [DPU_3_PIPE] |71|  ; [ORIG 16-BIT INS]
     236 0000000e 48BA              LDR       A1, $C$CON1           ; [DPU_3_PIPE] |71|  ; [ORIG 16-BIT INS]
     237 00000010 6001              STR       A2, [A1, #0]          ; [DPU_3_PIPE] |71|  ; [ORIG 16-BIT INS]
     238 00000012 9800              LDR       A1, [SP, #0]          ; [DPU_3_PIPE] |71|  ; [ORIG 16-BIT INS]
     239                    $C$DW$36        .dwtag  DW_TAG_TI_branch
     240                            .dwattr $C$DW$36, DW_AT_low_pc(0x00)
     241                            .dwattr $C$DW$36, DW_AT_name("EndCritical")
     242                            .dwattr $C$DW$36, DW_AT_TI_call
     243 00000014 FFFEF7FF!         BL        EndCritical           ; [DPU_3_PIPE] |71|  ; [KEEP 32-BIT INS]
     244                            ; CALL OCCURS {EndCritical }     ; [] |71| 
     245                    $C$DW$37        .dwtag  DW_TAG_TI_branch
     246                            .dwattr $C$DW$37, DW_AT_low_pc(0x00)
     247                            .dwattr $C$DW$37, DW_AT_TI_return
     248 00000018 BD08              POP       {A4, PC}              ; [DPU_3_PIPE]  ; [ORIG 16-BIT INS]
     249                            .dwcfi  cfa_offset, 0
     250                            ; BRANCH OCCURS                  ; [] 
     251                            .dwattr $C$DW$33, DW_AT_TI_end_file("../UART.c")
     252                            .dwattr $C$DW$33, DW_AT_TI_end_line(0x47)
     253                            .dwattr $C$DW$33, DW_AT_TI_end_column(0x01)
     254                            .dwendentry
     255                            .dwendtag $C$DW$33
     256                    
     257 0000001a                   .sect   ".text"
     258                            .clink
     259                            .thumbfunc RxFifo_Put
     260 0000001a                   .thumb
     261                            .global RxFifo_Put
     262                    
     263                    $C$DW$38        .dwtag  DW_TAG_subprogram, DW_AT_name("RxFifo_Put")
     264                            .dwattr $C$DW$38, DW_AT_low_pc(RxFifo_Put)
     265                            .dwattr $C$DW$38, DW_AT_high_pc(0x00)
     266                            .dwattr $C$DW$38, DW_AT_TI_symbol_name("RxFifo_Put")
     267                            .dwattr $C$DW$38, DW_AT_external
     268                            .dwattr $C$DW$38, DW_AT_type(*$C$DW$T$10)
     269                            .dwattr $C$DW$38, DW_AT_TI_begin_file("../UART.c")
     270                            .dwattr $C$DW$38, DW_AT_TI_begin_line(0x47)
     271                            .dwattr $C$DW$38, DW_AT_TI_begin_column(0x01)
     272                            .dwattr $C$DW$38, DW_AT_decl_file("../UART.c")
     273                            .dwattr $C$DW$38, DW_AT_decl_line(0x47)
     274                            .dwattr $C$DW$38, DW_AT_decl_column(0x01)
     275                            .dwattr $C$DW$38, DW_AT_TI_max_frame_size(0x10)
TI ARM Assembler PC v5.2.4 Sat Feb 06 22:51:20 2016

Tools Copyright (c) 1996-2015 Texas Instruments Incorporated
UART.asm                                                             PAGE    6

     276                            .dwpsn  file "../UART.c",line 71,column 1,is_stmt,address RxFifo_Put,isa 1
     277                    
     278                            .dwfde $C$DW$CIE, RxFifo_Put
     279                    $C$DW$39        .dwtag  DW_TAG_formal_parameter, DW_AT_name("data")
     280                            .dwattr $C$DW$39, DW_AT_TI_symbol_name("data")
     281                            .dwattr $C$DW$39, DW_AT_type(*$C$DW$T$6)
     282                            .dwattr $C$DW$39, DW_AT_location[DW_OP_reg0]
     283                    
     284                    ;*****************************************************************************
     285                    ;* FUNCTION NAME: RxFifo_Put                                                 *
     286                    ;*                                                                           *
     287                    ;*   Regs Modified     : A1,A2,A3,A4,V1,SP,SR                                *
     288                    ;*   Regs Used         : A1,A2,A3,A4,V1,SP,LR,SR                             *
     289                    ;*   Local Frame Size  : 0 Args + 4 Auto + 8 Save = 12 byte                  *
     290                    ;*****************************************************************************
     291 0000001a           RxFifo_Put:
     292                    ;* --------------------------------------------------------------------------*
     293                            .dwcfi  cfa_offset, 0
     294 0000001a B51C              PUSH      {A3, A4, V1, LR}      ; [DPU_3_PIPE]  ; [ORIG 16-BIT INS]
     295                            .dwcfi  cfa_offset, 16
     296                            .dwcfi  save_reg_to_mem, 14, -4
     297                            .dwcfi  save_reg_to_mem, 4, -8
     298                            .dwcfi  save_reg_to_mem, 3, -12
     299                            .dwcfi  save_reg_to_mem, 2, -16
     300                    $C$DW$40        .dwtag  DW_TAG_variable, DW_AT_name("data")
     301                            .dwattr $C$DW$40, DW_AT_TI_symbol_name("data")
     302                            .dwattr $C$DW$40, DW_AT_type(*$C$DW$T$6)
     303                            .dwattr $C$DW$40, DW_AT_location[DW_OP_breg13 0]
     304                    ;----------------------------------------------------------------------
     305                    ;  71 | AddIndexFifo(Rx, FIFOSIZE, char, FIFOSUCCESS, FIFOFAIL)                
     306                    ;----------------------------------------------------------------------
     307 0000001c 4AB7              LDR       A3, $C$CON2           ; [DPU_3_PIPE] |71|  ; [ORIG 16-BIT INS]
     308 0000001e 49B6              LDR       A2, $C$CON1           ; [DPU_3_PIPE] |71|  ; [ORIG 16-BIT INS]
     309 00000020 6812              LDR       A3, [A3, #0]          ; [DPU_3_PIPE] |71|  ; [ORIG 16-BIT INS]
     310 00000022 6809              LDR       A2, [A2, #0]          ; [DPU_3_PIPE] |71|  ; [ORIG 16-BIT INS]
     311 00000024 0000F88D          STRB      A1, [SP, #0]          ; [DPU_3_PIPE] |71|  ; [KEEP 32-BIT INS]
     312 00000028 1A89              SUBS      A2, A2, A3            ; [DPU_3_PIPE] |71|  ; [ORIG 16-BIT INS]
     313 0000002a 0109F36F          BFC       A2, #0, #10           ; [DPU_3_PIPE] |71|  ; [KEEP 32-BIT INS]
     314 0000002e B109              CBZ       A2, ||$C$L1||         ; []  ; [ORIG 16-BIT INS]
     315                            ; BRANCHCC OCCURS {||$C$L1||}    ; [] |71| 
     316                    ;* --------------------------------------------------------------------------*
     317 00000030 2000              MOVS      A1, #0                ; [DPU_3_PIPE] |71|  ; [ORIG 16-BIT INS]
     318 00000032 E00C              B         ||$C$L2||             ; [DPU_3_PIPE] |71|  ; [ORIG 16-BIT INS]
     319                            ; BRANCH OCCURS {||$C$L2||}      ; [] |71| 
     320                    ;* --------------------------------------------------------------------------*
     321 00000034           ||$C$L1||:    
     322 00000034 48B0              LDR       A1, $C$CON1           ; [DPU_3_PIPE] |71|  ; [ORIG 16-BIT INS]
     323 00000036 4AB0              LDR       A3, $C$CON1           ; [DPU_3_PIPE] |71|  ; [ORIG 16-BIT INS]
     324 00000038 4CB1              LDR       V1, $C$CON3           ; [DPU_3_PIPE] |71|  ; [ORIG 16-BIT INS]
     325 0000003a 3000F89D          LDRB      A4, [SP, #0]          ; [DPU_3_PIPE] |71|  ; [KEEP 32-BIT INS]
     326 0000003e 6800              LDR       A1, [A1, #0]          ; [DPU_3_PIPE] |71|  ; [ORIG 16-BIT INS]
     327 00000040 6811              LDR       A2, [A3, #0]          ; [DPU_3_PIPE] |71|  ; [ORIG 16-BIT INS]
     328 00000042 209FF36F          BFC       A1, #10, #22          ; [DPU_3_PIPE] |71|  ; [KEEP 32-BIT INS]
     329 00000046 1C49              ADDS      A2, A2, #1            ; [DPU_3_PIPE] |71|  ; [ORIG 16-BIT INS]
     330 00000048 5423              STRB      A4, [V1, +A1]         ; [DPU_3_PIPE] |71|  ; [ORIG 16-BIT INS]
TI ARM Assembler PC v5.2.4 Sat Feb 06 22:51:20 2016

Tools Copyright (c) 1996-2015 Texas Instruments Incorporated
UART.asm                                                             PAGE    7

     331 0000004a 2001              MOVS      A1, #1                ; [DPU_3_PIPE] |71|  ; [ORIG 16-BIT INS]
     332 0000004c 6011              STR       A2, [A3, #0]          ; [DPU_3_PIPE] |71|  ; [ORIG 16-BIT INS]
     333                    ;* --------------------------------------------------------------------------*
     334                    ||$C$L2||:    
     335                    $C$DW$41        .dwtag  DW_TAG_TI_branch
     336                            .dwattr $C$DW$41, DW_AT_low_pc(0x00)
     337                            .dwattr $C$DW$41, DW_AT_TI_return
     338 0000004e BD1C              POP       {A3, A4, V1, PC}      ; [DPU_3_PIPE]  ; [ORIG 16-BIT INS]
     339                            .dwcfi  cfa_offset, 0
     340                            ; BRANCH OCCURS                  ; [] 
     341                            .dwattr $C$DW$38, DW_AT_TI_end_file("../UART.c")
     342                            .dwattr $C$DW$38, DW_AT_TI_end_line(0x47)
     343                            .dwattr $C$DW$38, DW_AT_TI_end_column(0x01)
     344                            .dwendentry
     345                            .dwendtag $C$DW$38
     346                    
     347 00000050                   .sect   ".text"
     348                            .clink
     349                            .thumbfunc RxFifo_Get
     350 00000050                   .thumb
     351                            .global RxFifo_Get
     352                    
     353                    $C$DW$42        .dwtag  DW_TAG_subprogram, DW_AT_name("RxFifo_Get")
     354                            .dwattr $C$DW$42, DW_AT_low_pc(RxFifo_Get)
     355                            .dwattr $C$DW$42, DW_AT_high_pc(0x00)
     356                            .dwattr $C$DW$42, DW_AT_TI_symbol_name("RxFifo_Get")
     357                            .dwattr $C$DW$42, DW_AT_external
     358                            .dwattr $C$DW$42, DW_AT_type(*$C$DW$T$10)
     359                            .dwattr $C$DW$42, DW_AT_TI_begin_file("../UART.c")
     360                            .dwattr $C$DW$42, DW_AT_TI_begin_line(0x47)
     361                            .dwattr $C$DW$42, DW_AT_TI_begin_column(0x01)
     362                            .dwattr $C$DW$42, DW_AT_decl_file("../UART.c")
     363                            .dwattr $C$DW$42, DW_AT_decl_line(0x47)
     364                            .dwattr $C$DW$42, DW_AT_decl_column(0x01)
     365                            .dwattr $C$DW$42, DW_AT_TI_max_frame_size(0x08)
     366                            .dwpsn  file "../UART.c",line 71,column 1,is_stmt,address RxFifo_Get,isa 1
     367                    
     368                            .dwfde $C$DW$CIE, RxFifo_Get
     369                    $C$DW$43        .dwtag  DW_TAG_formal_parameter, DW_AT_name("datapt")
     370                            .dwattr $C$DW$43, DW_AT_TI_symbol_name("datapt")
     371                            .dwattr $C$DW$43, DW_AT_type(*$C$DW$T$38)
     372                            .dwattr $C$DW$43, DW_AT_location[DW_OP_reg0]
     373                    
     374                    ;*****************************************************************************
     375                    ;* FUNCTION NAME: RxFifo_Get                                                 *
     376                    ;*                                                                           *
     377                    ;*   Regs Modified     : A1,A2,A3,SP,SR                                      *
     378                    ;*   Regs Used         : A1,A2,A3,SP,LR,SR                                   *
     379                    ;*   Local Frame Size  : 0 Args + 4 Auto + 0 Save = 4 byte                   *
     380                    ;*****************************************************************************
     381 00000050           RxFifo_Get:
     382                    ;* --------------------------------------------------------------------------*
     383                            .dwcfi  cfa_offset, 0
     384 00000050 0D08F1AD          SUB       SP, SP, #8            ; [DPU_3_PIPE]  ; [KEEP 32-BIT INS]
     385                            .dwcfi  cfa_offset, 8
TI ARM Assembler PC v5.2.4 Sat Feb 06 22:51:20 2016

Tools Copyright (c) 1996-2015 Texas Instruments Incorporated
UART.asm                                                             PAGE    8

     386                    $C$DW$44        .dwtag  DW_TAG_variable, DW_AT_name("datapt")
     387                            .dwattr $C$DW$44, DW_AT_TI_symbol_name("datapt")
     388                            .dwattr $C$DW$44, DW_AT_type(*$C$DW$T$38)
     389                            .dwattr $C$DW$44, DW_AT_location[DW_OP_breg13 0]
     390                    ;----------------------------------------------------------------------
     391                    ;  71 | AddIndexFifo(Rx, FIFOSIZE, char, FIFOSUCCESS, FIFOFAIL)                
     392                    ;----------------------------------------------------------------------
     393 00000054 49A9              LDR       A2, $C$CON2           ; [DPU_3_PIPE] |71|  ; [ORIG 16-BIT INS]
     394 00000056 4AA8              LDR       A3, $C$CON1           ; [DPU_3_PIPE] |71|  ; [ORIG 16-BIT INS]
     395 00000058 6809              LDR       A2, [A2, #0]          ; [DPU_3_PIPE] |71|  ; [ORIG 16-BIT INS]
     396 0000005a 6812              LDR       A3, [A3, #0]          ; [DPU_3_PIPE] |71|  ; [ORIG 16-BIT INS]
     397 0000005c 9000              STR       A1, [SP, #0]          ; [DPU_3_PIPE] |71|  ; [ORIG 16-BIT INS]
     398 0000005e 4291              CMP       A2, A3                ; [DPU_3_PIPE] |71|  ; [ORIG 16-BIT INS]
     399 00000060 D101              BNE       ||$C$L3||             ; [DPU_3_PIPE] |71|  ; [ORIG 16-BIT INS]
     400                            ; BRANCHCC OCCURS {||$C$L3||}    ; [] |71| 
     401                    ;* --------------------------------------------------------------------------*
     402 00000062 2000              MOVS      A1, #0                ; [DPU_3_PIPE] |71|  ; [ORIG 16-BIT INS]
     403 00000064 E00C              B         ||$C$L4||             ; [DPU_3_PIPE] |71|  ; [ORIG 16-BIT INS]
     404                            ; BRANCH OCCURS {||$C$L4||}      ; [] |71| 
     405                    ;* --------------------------------------------------------------------------*
     406 00000066           ||$C$L3||:    
     407 00000066 48A5              LDR       A1, $C$CON2           ; [DPU_3_PIPE] |71|  ; [ORIG 16-BIT INS]
     408 00000068 4AA5              LDR       A3, $C$CON3           ; [DPU_3_PIPE] |71|  ; [ORIG 16-BIT INS]
     409 0000006a 9900              LDR       A2, [SP, #0]          ; [DPU_3_PIPE] |71|  ; [ORIG 16-BIT INS]
     410 0000006c 6800              LDR       A1, [A1, #0]          ; [DPU_3_PIPE] |71|  ; [ORIG 16-BIT INS]
     411 0000006e 209FF36F          BFC       A1, #10, #22          ; [DPU_3_PIPE] |71|  ; [KEEP 32-BIT INS]
     412 00000072 5C10              LDRB      A1, [A3, +A1]         ; [DPU_3_PIPE] |71|  ; [ORIG 16-BIT INS]
     413 00000074 4AA1              LDR       A3, $C$CON2           ; [DPU_3_PIPE] |71|  ; [ORIG 16-BIT INS]
     414 00000076 7008              STRB      A1, [A2, #0]          ; [DPU_3_PIPE] |71|  ; [ORIG 16-BIT INS]
     415 00000078 6811              LDR       A2, [A3, #0]          ; [DPU_3_PIPE] |71|  ; [ORIG 16-BIT INS]
     416 0000007a 2001              MOVS      A1, #1                ; [DPU_3_PIPE] |71|  ; [ORIG 16-BIT INS]
     417 0000007c 1C49              ADDS      A2, A2, #1            ; [DPU_3_PIPE] |71|  ; [ORIG 16-BIT INS]
     418 0000007e 6011              STR       A2, [A3, #0]          ; [DPU_3_PIPE] |71|  ; [ORIG 16-BIT INS]
     419                    ;* --------------------------------------------------------------------------*
     420 00000080           ||$C$L4||:    
     421 00000080 B002              ADD       SP, SP, #8            ; [DPU_3_PIPE]  ; [ORIG 16-BIT INS]
     422                            .dwcfi  cfa_offset, 0
     423                    $C$DW$45        .dwtag  DW_TAG_TI_branch
     424                            .dwattr $C$DW$45, DW_AT_low_pc(0x00)
     425                            .dwattr $C$DW$45, DW_AT_TI_return
     426 00000082 4770              BX        LR                    ; [DPU_3_PIPE]  ; [ORIG 16-BIT INS]
     427                            ; BRANCH OCCURS                  ; [] 
     428                            .dwattr $C$DW$42, DW_AT_TI_end_file("../UART.c")
     429                            .dwattr $C$DW$42, DW_AT_TI_end_line(0x47)
     430                            .dwattr $C$DW$42, DW_AT_TI_end_column(0x01)
     431                            .dwendentry
     432                            .dwendtag $C$DW$42
     433                    
     434 00000084                   .sect   ".text"
     435                            .clink
     436                            .thumbfunc RxFifo_Size
     437 00000084                   .thumb
     438                            .global RxFifo_Size
     439                    
     440                    $C$DW$46        .dwtag  DW_TAG_subprogram, DW_AT_name("RxFifo_Size")
TI ARM Assembler PC v5.2.4 Sat Feb 06 22:51:20 2016

Tools Copyright (c) 1996-2015 Texas Instruments Incorporated
UART.asm                                                             PAGE    9

     441                            .dwattr $C$DW$46, DW_AT_low_pc(RxFifo_Size)
     442                            .dwattr $C$DW$46, DW_AT_high_pc(0x00)
     443                            .dwattr $C$DW$46, DW_AT_TI_symbol_name("RxFifo_Size")
     444                            .dwattr $C$DW$46, DW_AT_external
     445                            .dwattr $C$DW$46, DW_AT_type(*$C$DW$T$9)
     446                            .dwattr $C$DW$46, DW_AT_TI_begin_file("../UART.c")
     447                            .dwattr $C$DW$46, DW_AT_TI_begin_line(0x47)
     448                            .dwattr $C$DW$46, DW_AT_TI_begin_column(0x01)
     449                            .dwattr $C$DW$46, DW_AT_decl_file("../UART.c")
     450                            .dwattr $C$DW$46, DW_AT_decl_line(0x47)
     451                            .dwattr $C$DW$46, DW_AT_decl_column(0x01)
     452                            .dwattr $C$DW$46, DW_AT_TI_max_frame_size(0x00)
     453                            .dwpsn  file "../UART.c",line 71,column 1,is_stmt,address RxFifo_Size,isa 1
     454                    
     455                            .dwfde $C$DW$CIE, RxFifo_Size
     456                    
     457                    ;*****************************************************************************
     458                    ;* FUNCTION NAME: RxFifo_Size                                                *
     459                    ;*                                                                           *
     460                    ;*   Regs Modified     : A1,A2,SR                                            *
     461                    ;*   Regs Used         : A1,A2,LR,SR                                         *
     462                    ;*   Local Frame Size  : 0 Args + 0 Auto + 0 Save = 0 byte                   *
     463                    ;*****************************************************************************
     464 00000084           RxFifo_Size:
     465                    ;* --------------------------------------------------------------------------*
     466                            .dwcfi  cfa_offset, 0
     467                    ;----------------------------------------------------------------------
     468                    ;  71 | AddIndexFifo(Rx, FIFOSIZE, char, FIFOSUCCESS, FIFOFAIL)                
     469                    ;----------------------------------------------------------------------
     470 00000084 499D              LDR       A2, $C$CON2           ; [DPU_3_PIPE] |71|  ; [ORIG 16-BIT INS]
     471 00000086 489C              LDR       A1, $C$CON1           ; [DPU_3_PIPE] |71|  ; [ORIG 16-BIT INS]
     472 00000088 6809              LDR       A2, [A2, #0]          ; [DPU_3_PIPE] |71|  ; [ORIG 16-BIT INS]
     473 0000008a 6800              LDR       A1, [A1, #0]          ; [DPU_3_PIPE] |71|  ; [ORIG 16-BIT INS]
     474 0000008c 1A40              SUBS      A1, A1, A2            ; [DPU_3_PIPE] |71|  ; [ORIG 16-BIT INS]
     475 0000008e B280              UXTH      A1, A1                ; [DPU_3_PIPE] |71|  ; [ORIG 16-BIT INS]
     476                    $C$DW$47        .dwtag  DW_TAG_TI_branch
     477                            .dwattr $C$DW$47, DW_AT_low_pc(0x00)
     478                            .dwattr $C$DW$47, DW_AT_TI_return
     479 00000090 4770              BX        LR                    ; [DPU_3_PIPE]  ; [ORIG 16-BIT INS]
     480                            ; BRANCH OCCURS                  ; [] 
     481                            .dwattr $C$DW$46, DW_AT_TI_end_file("../UART.c")
     482                            .dwattr $C$DW$46, DW_AT_TI_end_line(0x47)
     483                            .dwattr $C$DW$46, DW_AT_TI_end_column(0x01)
     484                            .dwendentry
     485                            .dwendtag $C$DW$46
     486                    
     487 00000092                   .sect   ".text"
     488                            .clink
     489                            .thumbfunc TxFifo_Init
     490 00000092                   .thumb
     491                            .global TxFifo_Init
     492                    
     493                    $C$DW$48        .dwtag  DW_TAG_subprogram, DW_AT_name("TxFifo_Init")
     494                            .dwattr $C$DW$48, DW_AT_low_pc(TxFifo_Init)
     495                            .dwattr $C$DW$48, DW_AT_high_pc(0x00)
TI ARM Assembler PC v5.2.4 Sat Feb 06 22:51:20 2016

Tools Copyright (c) 1996-2015 Texas Instruments Incorporated
UART.asm                                                             PAGE   10

     496                            .dwattr $C$DW$48, DW_AT_TI_symbol_name("TxFifo_Init")
     497                            .dwattr $C$DW$48, DW_AT_external
     498                            .dwattr $C$DW$48, DW_AT_TI_begin_file("../UART.c")
     499                            .dwattr $C$DW$48, DW_AT_TI_begin_line(0x48)
     500                            .dwattr $C$DW$48, DW_AT_TI_begin_column(0x01)
     501                            .dwattr $C$DW$48, DW_AT_decl_file("../UART.c")
     502                            .dwattr $C$DW$48, DW_AT_decl_line(0x48)
     503                            .dwattr $C$DW$48, DW_AT_decl_column(0x01)
     504                            .dwattr $C$DW$48, DW_AT_TI_max_frame_size(0x08)
     505                            .dwpsn  file "../UART.c",line 72,column 1,is_stmt,address TxFifo_Init,isa 1
     506                    
     507                            .dwfde $C$DW$CIE, TxFifo_Init
     508                    
     509                    ;*****************************************************************************
     510                    ;* FUNCTION NAME: TxFifo_Init                                                *
     511                    ;*                                                                           *
     512                    ;*   Regs Modified     : A1,A2,A3,A4,V9,SP,LR,SR,D0,D0_hi,D1,D1_hi,D2,D2_hi, *
     513                    ;*                           D3,D3_hi,D4,D4_hi,D5,D5_hi,D6,D6_hi,D7,D7_hi,   *
     514                    ;*                           FPEXC,FPSCR                                     *
     515                    ;*   Regs Used         : A1,A2,A3,A4,V9,SP,LR,SR,D0,D0_hi,D1,D1_hi,D2,D2_hi, *
     516                    ;*                           D3,D3_hi,D4,D4_hi,D5,D5_hi,D6,D6_hi,D7,D7_hi,   *
     517                    ;*                           FPEXC,FPSCR                                     *
     518                    ;*   Local Frame Size  : 0 Args + 4 Auto + 4 Save = 8 byte                   *
     519                    ;*****************************************************************************
     520 00000092           TxFifo_Init:
     521                    ;* --------------------------------------------------------------------------*
     522                            .dwcfi  cfa_offset, 0
     523 00000092 B508              PUSH      {A4, LR}              ; [DPU_3_PIPE]  ; [ORIG 16-BIT INS]
     524                            .dwcfi  cfa_offset, 8
     525                            .dwcfi  save_reg_to_mem, 14, -4
     526                            .dwcfi  save_reg_to_mem, 3, -8
     527                    $C$DW$49        .dwtag  DW_TAG_variable, DW_AT_name("sr")
     528                            .dwattr $C$DW$49, DW_AT_TI_symbol_name("sr")
     529                            .dwattr $C$DW$49, DW_AT_type(*$C$DW$T$12)
     530                            .dwattr $C$DW$49, DW_AT_location[DW_OP_breg13 0]
     531                    ;----------------------------------------------------------------------
     532                    ;  72 | AddIndexFifo(Tx, 1024, char, FIFOSUCCESS, FIFOFAIL)                    
     533                    ;----------------------------------------------------------------------
     534                    $C$DW$50        .dwtag  DW_TAG_TI_branch
     535                            .dwattr $C$DW$50, DW_AT_low_pc(0x00)
     536                            .dwattr $C$DW$50, DW_AT_name("StartCritical")
     537                            .dwattr $C$DW$50, DW_AT_TI_call
     538 00000094 FFFEF7FF!         BL        StartCritical         ; [DPU_3_PIPE] |72|  ; [KEEP 32-BIT INS]
     539                            ; CALL OCCURS {StartCritical }   ; [] |72| 
     540 00000098 4ABC              LDR       A3, $C$CON5           ; [DPU_3_PIPE] |72|  ; [ORIG 16-BIT INS]
     541 0000009a 9000              STR       A1, [SP, #0]          ; [DPU_3_PIPE] |72|  ; [ORIG 16-BIT INS]
     542 0000009c 2100              MOVS      A2, #0                ; [DPU_3_PIPE] |72|  ; [ORIG 16-BIT INS]
     543 0000009e 6011              STR       A2, [A3, #0]          ; [DPU_3_PIPE] |72|  ; [ORIG 16-BIT INS]
     544 000000a0 48B9              LDR       A1, $C$CON4           ; [DPU_3_PIPE] |72|  ; [ORIG 16-BIT INS]
     545 000000a2 6001              STR       A2, [A1, #0]          ; [DPU_3_PIPE] |72|  ; [ORIG 16-BIT INS]
     546 000000a4 9800              LDR       A1, [SP, #0]          ; [DPU_3_PIPE] |72|  ; [ORIG 16-BIT INS]
     547                    $C$DW$51        .dwtag  DW_TAG_TI_branch
     548                            .dwattr $C$DW$51, DW_AT_low_pc(0x00)
     549                            .dwattr $C$DW$51, DW_AT_name("EndCritical")
     550                            .dwattr $C$DW$51, DW_AT_TI_call
TI ARM Assembler PC v5.2.4 Sat Feb 06 22:51:20 2016

Tools Copyright (c) 1996-2015 Texas Instruments Incorporated
UART.asm                                                             PAGE   11

     551 000000a6 FFFEF7FF!         BL        EndCritical           ; [DPU_3_PIPE] |72|  ; [KEEP 32-BIT INS]
     552                            ; CALL OCCURS {EndCritical }     ; [] |72| 
     553                    $C$DW$52        .dwtag  DW_TAG_TI_branch
     554                            .dwattr $C$DW$52, DW_AT_low_pc(0x00)
     555                            .dwattr $C$DW$52, DW_AT_TI_return
     556 000000aa BD08              POP       {A4, PC}              ; [DPU_3_PIPE]  ; [ORIG 16-BIT INS]
     557                            .dwcfi  cfa_offset, 0
     558                            ; BRANCH OCCURS                  ; [] 
     559                            .dwattr $C$DW$48, DW_AT_TI_end_file("../UART.c")
     560                            .dwattr $C$DW$48, DW_AT_TI_end_line(0x48)
     561                            .dwattr $C$DW$48, DW_AT_TI_end_column(0x01)
     562                            .dwendentry
     563                            .dwendtag $C$DW$48
     564                    
     565 000000ac                   .sect   ".text"
     566                            .clink
     567                            .thumbfunc TxFifo_Put
     568 000000ac                   .thumb
     569                            .global TxFifo_Put
     570                    
     571                    $C$DW$53        .dwtag  DW_TAG_subprogram, DW_AT_name("TxFifo_Put")
     572                            .dwattr $C$DW$53, DW_AT_low_pc(TxFifo_Put)
     573                            .dwattr $C$DW$53, DW_AT_high_pc(0x00)
     574                            .dwattr $C$DW$53, DW_AT_TI_symbol_name("TxFifo_Put")
     575                            .dwattr $C$DW$53, DW_AT_external
     576                            .dwattr $C$DW$53, DW_AT_type(*$C$DW$T$10)
     577                            .dwattr $C$DW$53, DW_AT_TI_begin_file("../UART.c")
     578                            .dwattr $C$DW$53, DW_AT_TI_begin_line(0x48)
     579                            .dwattr $C$DW$53, DW_AT_TI_begin_column(0x01)
     580                            .dwattr $C$DW$53, DW_AT_decl_file("../UART.c")
     581                            .dwattr $C$DW$53, DW_AT_decl_line(0x48)
     582                            .dwattr $C$DW$53, DW_AT_decl_column(0x01)
     583                            .dwattr $C$DW$53, DW_AT_TI_max_frame_size(0x10)
     584                            .dwpsn  file "../UART.c",line 72,column 1,is_stmt,address TxFifo_Put,isa 1
     585                    
     586                            .dwfde $C$DW$CIE, TxFifo_Put
     587                    $C$DW$54        .dwtag  DW_TAG_formal_parameter, DW_AT_name("data")
     588                            .dwattr $C$DW$54, DW_AT_TI_symbol_name("data")
     589                            .dwattr $C$DW$54, DW_AT_type(*$C$DW$T$6)
     590                            .dwattr $C$DW$54, DW_AT_location[DW_OP_reg0]
     591                    
     592                    ;*****************************************************************************
     593                    ;* FUNCTION NAME: TxFifo_Put                                                 *
     594                    ;*                                                                           *
     595                    ;*   Regs Modified     : A1,A2,A3,A4,V1,SP,SR                                *
     596                    ;*   Regs Used         : A1,A2,A3,A4,V1,SP,LR,SR                             *
     597                    ;*   Local Frame Size  : 0 Args + 4 Auto + 8 Save = 12 byte                  *
     598                    ;*****************************************************************************
     599 000000ac           TxFifo_Put:
     600                    ;* --------------------------------------------------------------------------*
     601                            .dwcfi  cfa_offset, 0
     602 000000ac B51C              PUSH      {A3, A4, V1, LR}      ; [DPU_3_PIPE]  ; [ORIG 16-BIT INS]
     603                            .dwcfi  cfa_offset, 16
     604                            .dwcfi  save_reg_to_mem, 14, -4
     605                            .dwcfi  save_reg_to_mem, 4, -8
TI ARM Assembler PC v5.2.4 Sat Feb 06 22:51:20 2016

Tools Copyright (c) 1996-2015 Texas Instruments Incorporated
UART.asm                                                             PAGE   12

     606                            .dwcfi  save_reg_to_mem, 3, -12
     607                            .dwcfi  save_reg_to_mem, 2, -16
     608                    $C$DW$55        .dwtag  DW_TAG_variable, DW_AT_name("data")
     609                            .dwattr $C$DW$55, DW_AT_TI_symbol_name("data")
     610                            .dwattr $C$DW$55, DW_AT_type(*$C$DW$T$6)
     611                            .dwattr $C$DW$55, DW_AT_location[DW_OP_breg13 0]
     612                    ;----------------------------------------------------------------------
     613                    ;  72 | AddIndexFifo(Tx, 1024, char, FIFOSUCCESS, FIFOFAIL)                    
     614                    ;----------------------------------------------------------------------
     615 000000ae 4AB7              LDR       A3, $C$CON5           ; [DPU_3_PIPE] |72|  ; [ORIG 16-BIT INS]
     616 000000b0 49B5              LDR       A2, $C$CON4           ; [DPU_3_PIPE] |72|  ; [ORIG 16-BIT INS]
     617 000000b2 6812              LDR       A3, [A3, #0]          ; [DPU_3_PIPE] |72|  ; [ORIG 16-BIT INS]
     618 000000b4 6809              LDR       A2, [A2, #0]          ; [DPU_3_PIPE] |72|  ; [ORIG 16-BIT INS]
     619 000000b6 0000F88D          STRB      A1, [SP, #0]          ; [DPU_3_PIPE] |72|  ; [KEEP 32-BIT INS]
     620 000000ba 1A89              SUBS      A2, A2, A3            ; [DPU_3_PIPE] |72|  ; [ORIG 16-BIT INS]
     621 000000bc 0109F36F          BFC       A2, #0, #10           ; [DPU_3_PIPE] |72|  ; [KEEP 32-BIT INS]
     622 000000c0 B109              CBZ       A2, ||$C$L5||         ; []  ; [ORIG 16-BIT INS]
     623                            ; BRANCHCC OCCURS {||$C$L5||}    ; [] |72| 
     624                    ;* --------------------------------------------------------------------------*
     625 000000c2 2000              MOVS      A1, #0                ; [DPU_3_PIPE] |72|  ; [ORIG 16-BIT INS]
     626 000000c4 E00C              B         ||$C$L6||             ; [DPU_3_PIPE] |72|  ; [ORIG 16-BIT INS]
     627                            ; BRANCH OCCURS {||$C$L6||}      ; [] |72| 
     628                    ;* --------------------------------------------------------------------------*
     629 000000c6           ||$C$L5||:    
     630 000000c6 48B0              LDR       A1, $C$CON4           ; [DPU_3_PIPE] |72|  ; [ORIG 16-BIT INS]
     631 000000c8 4AAF              LDR       A3, $C$CON4           ; [DPU_3_PIPE] |72|  ; [ORIG 16-BIT INS]
     632 000000ca 4CBD              LDR       V1, $C$CON6           ; [DPU_3_PIPE] |72|  ; [ORIG 16-BIT INS]
     633 000000cc 3000F89D          LDRB      A4, [SP, #0]          ; [DPU_3_PIPE] |72|  ; [KEEP 32-BIT INS]
     634 000000d0 6800              LDR       A1, [A1, #0]          ; [DPU_3_PIPE] |72|  ; [ORIG 16-BIT INS]
     635 000000d2 6811              LDR       A2, [A3, #0]          ; [DPU_3_PIPE] |72|  ; [ORIG 16-BIT INS]
     636 000000d4 209FF36F          BFC       A1, #10, #22          ; [DPU_3_PIPE] |72|  ; [KEEP 32-BIT INS]
     637 000000d8 1C49              ADDS      A2, A2, #1            ; [DPU_3_PIPE] |72|  ; [ORIG 16-BIT INS]
     638 000000da 5423              STRB      A4, [V1, +A1]         ; [DPU_3_PIPE] |72|  ; [ORIG 16-BIT INS]
     639 000000dc 2001              MOVS      A1, #1                ; [DPU_3_PIPE] |72|  ; [ORIG 16-BIT INS]
     640 000000de 6011              STR       A2, [A3, #0]          ; [DPU_3_PIPE] |72|  ; [ORIG 16-BIT INS]
     641                    ;* --------------------------------------------------------------------------*
     642                    ||$C$L6||:    
     643                    $C$DW$56        .dwtag  DW_TAG_TI_branch
     644                            .dwattr $C$DW$56, DW_AT_low_pc(0x00)
     645                            .dwattr $C$DW$56, DW_AT_TI_return
     646 000000e0 BD1C              POP       {A3, A4, V1, PC}      ; [DPU_3_PIPE]  ; [ORIG 16-BIT INS]
     647                            .dwcfi  cfa_offset, 0
     648                            ; BRANCH OCCURS                  ; [] 
     649                            .dwattr $C$DW$53, DW_AT_TI_end_file("../UART.c")
     650                            .dwattr $C$DW$53, DW_AT_TI_end_line(0x48)
     651                            .dwattr $C$DW$53, DW_AT_TI_end_column(0x01)
     652                            .dwendentry
     653                            .dwendtag $C$DW$53
     654                    
     655 000000e2                   .sect   ".text"
     656                            .clink
     657                            .thumbfunc TxFifo_Get
     658 000000e2                   .thumb
     659                            .global TxFifo_Get
     660                    
TI ARM Assembler PC v5.2.4 Sat Feb 06 22:51:20 2016

Tools Copyright (c) 1996-2015 Texas Instruments Incorporated
UART.asm                                                             PAGE   13

     661                    $C$DW$57        .dwtag  DW_TAG_subprogram, DW_AT_name("TxFifo_Get")
     662                            .dwattr $C$DW$57, DW_AT_low_pc(TxFifo_Get)
     663                            .dwattr $C$DW$57, DW_AT_high_pc(0x00)
     664                            .dwattr $C$DW$57, DW_AT_TI_symbol_name("TxFifo_Get")
     665                            .dwattr $C$DW$57, DW_AT_external
     666                            .dwattr $C$DW$57, DW_AT_type(*$C$DW$T$10)
     667                            .dwattr $C$DW$57, DW_AT_TI_begin_file("../UART.c")
     668                            .dwattr $C$DW$57, DW_AT_TI_begin_line(0x48)
     669                            .dwattr $C$DW$57, DW_AT_TI_begin_column(0x01)
     670                            .dwattr $C$DW$57, DW_AT_decl_file("../UART.c")
     671                            .dwattr $C$DW$57, DW_AT_decl_line(0x48)
     672                            .dwattr $C$DW$57, DW_AT_decl_column(0x01)
     673                            .dwattr $C$DW$57, DW_AT_TI_max_frame_size(0x08)
     674                            .dwpsn  file "../UART.c",line 72,column 1,is_stmt,address TxFifo_Get,isa 1
     675                    
     676                            .dwfde $C$DW$CIE, TxFifo_Get
     677                    $C$DW$58        .dwtag  DW_TAG_formal_parameter, DW_AT_name("datapt")
     678                            .dwattr $C$DW$58, DW_AT_TI_symbol_name("datapt")
     679                            .dwattr $C$DW$58, DW_AT_type(*$C$DW$T$38)
     680                            .dwattr $C$DW$58, DW_AT_location[DW_OP_reg0]
     681                    
     682                    ;*****************************************************************************
     683                    ;* FUNCTION NAME: TxFifo_Get                                                 *
     684                    ;*                                                                           *
     685                    ;*   Regs Modified     : A1,A2,A3,SP,SR                                      *
     686                    ;*   Regs Used         : A1,A2,A3,SP,LR,SR                                   *
     687                    ;*   Local Frame Size  : 0 Args + 4 Auto + 0 Save = 4 byte                   *
     688                    ;*****************************************************************************
     689 000000e2           TxFifo_Get:
     690                    ;* --------------------------------------------------------------------------*
     691                            .dwcfi  cfa_offset, 0
     692 000000e2 0D08F1AD          SUB       SP, SP, #8            ; [DPU_3_PIPE]  ; [KEEP 32-BIT INS]
     693                            .dwcfi  cfa_offset, 8
     694                    $C$DW$59        .dwtag  DW_TAG_variable, DW_AT_name("datapt")
     695                            .dwattr $C$DW$59, DW_AT_TI_symbol_name("datapt")
     696                            .dwattr $C$DW$59, DW_AT_type(*$C$DW$T$38)
     697                            .dwattr $C$DW$59, DW_AT_location[DW_OP_breg13 0]
     698                    ;----------------------------------------------------------------------
     699                    ;  72 | AddIndexFifo(Tx, 1024, char, FIFOSUCCESS, FIFOFAIL)                    
     700                    ;----------------------------------------------------------------------
     701 000000e6 49A9              LDR       A2, $C$CON5           ; [DPU_3_PIPE] |72|  ; [ORIG 16-BIT INS]
     702 000000e8 4AA7              LDR       A3, $C$CON4           ; [DPU_3_PIPE] |72|  ; [ORIG 16-BIT INS]
     703 000000ea 6809              LDR       A2, [A2, #0]          ; [DPU_3_PIPE] |72|  ; [ORIG 16-BIT INS]
     704 000000ec 6812              LDR       A3, [A3, #0]          ; [DPU_3_PIPE] |72|  ; [ORIG 16-BIT INS]
     705 000000ee 9000              STR       A1, [SP, #0]          ; [DPU_3_PIPE] |72|  ; [ORIG 16-BIT INS]
     706 000000f0 4291              CMP       A2, A3                ; [DPU_3_PIPE] |72|  ; [ORIG 16-BIT INS]
     707 000000f2 D101              BNE       ||$C$L7||             ; [DPU_3_PIPE] |72|  ; [ORIG 16-BIT INS]
     708                            ; BRANCHCC OCCURS {||$C$L7||}    ; [] |72| 
     709                    ;* --------------------------------------------------------------------------*
     710 000000f4 2000              MOVS      A1, #0                ; [DPU_3_PIPE] |72|  ; [ORIG 16-BIT INS]
     711 000000f6 E00C              B         ||$C$L8||             ; [DPU_3_PIPE] |72|  ; [ORIG 16-BIT INS]
     712                            ; BRANCH OCCURS {||$C$L8||}      ; [] |72| 
     713                    ;* --------------------------------------------------------------------------*
     714 000000f8           ||$C$L7||:    
     715 000000f8 48A4              LDR       A1, $C$CON5           ; [DPU_3_PIPE] |72|  ; [ORIG 16-BIT INS]
TI ARM Assembler PC v5.2.4 Sat Feb 06 22:51:20 2016

Tools Copyright (c) 1996-2015 Texas Instruments Incorporated
UART.asm                                                             PAGE   14

     716 000000fa 4AB1              LDR       A3, $C$CON6           ; [DPU_3_PIPE] |72|  ; [ORIG 16-BIT INS]
     717 000000fc 9900              LDR       A2, [SP, #0]          ; [DPU_3_PIPE] |72|  ; [ORIG 16-BIT INS]
     718 000000fe 6800              LDR       A1, [A1, #0]          ; [DPU_3_PIPE] |72|  ; [ORIG 16-BIT INS]
     719 00000100 209FF36F          BFC       A1, #10, #22          ; [DPU_3_PIPE] |72|  ; [KEEP 32-BIT INS]
     720 00000104 5C10              LDRB      A1, [A3, +A1]         ; [DPU_3_PIPE] |72|  ; [ORIG 16-BIT INS]
     721 00000106 4AA1              LDR       A3, $C$CON5           ; [DPU_3_PIPE] |72|  ; [ORIG 16-BIT INS]
     722 00000108 7008              STRB      A1, [A2, #0]          ; [DPU_3_PIPE] |72|  ; [ORIG 16-BIT INS]
     723 0000010a 6811              LDR       A2, [A3, #0]          ; [DPU_3_PIPE] |72|  ; [ORIG 16-BIT INS]
     724 0000010c 2001              MOVS      A1, #1                ; [DPU_3_PIPE] |72|  ; [ORIG 16-BIT INS]
     725 0000010e 1C49              ADDS      A2, A2, #1            ; [DPU_3_PIPE] |72|  ; [ORIG 16-BIT INS]
     726 00000110 6011              STR       A2, [A3, #0]          ; [DPU_3_PIPE] |72|  ; [ORIG 16-BIT INS]
     727                    ;* --------------------------------------------------------------------------*
     728 00000112           ||$C$L8||:    
     729 00000112 B002              ADD       SP, SP, #8            ; [DPU_3_PIPE]  ; [ORIG 16-BIT INS]
     730                            .dwcfi  cfa_offset, 0
     731                    $C$DW$60        .dwtag  DW_TAG_TI_branch
     732                            .dwattr $C$DW$60, DW_AT_low_pc(0x00)
     733                            .dwattr $C$DW$60, DW_AT_TI_return
     734 00000114 4770              BX        LR                    ; [DPU_3_PIPE]  ; [ORIG 16-BIT INS]
     735                            ; BRANCH OCCURS                  ; [] 
     736                            .dwattr $C$DW$57, DW_AT_TI_end_file("../UART.c")
     737                            .dwattr $C$DW$57, DW_AT_TI_end_line(0x48)
     738                            .dwattr $C$DW$57, DW_AT_TI_end_column(0x01)
     739                            .dwendentry
     740                            .dwendtag $C$DW$57
     741                    
     742 00000116                   .sect   ".text"
     743                            .clink
     744                            .thumbfunc TxFifo_Size
     745 00000116                   .thumb
     746                            .global TxFifo_Size
     747                    
     748                    $C$DW$61        .dwtag  DW_TAG_subprogram, DW_AT_name("TxFifo_Size")
     749                            .dwattr $C$DW$61, DW_AT_low_pc(TxFifo_Size)
     750                            .dwattr $C$DW$61, DW_AT_high_pc(0x00)
     751                            .dwattr $C$DW$61, DW_AT_TI_symbol_name("TxFifo_Size")
     752                            .dwattr $C$DW$61, DW_AT_external
     753                            .dwattr $C$DW$61, DW_AT_type(*$C$DW$T$9)
     754                            .dwattr $C$DW$61, DW_AT_TI_begin_file("../UART.c")
     755                            .dwattr $C$DW$61, DW_AT_TI_begin_line(0x48)
     756                            .dwattr $C$DW$61, DW_AT_TI_begin_column(0x01)
     757                            .dwattr $C$DW$61, DW_AT_decl_file("../UART.c")
     758                            .dwattr $C$DW$61, DW_AT_decl_line(0x48)
     759                            .dwattr $C$DW$61, DW_AT_decl_column(0x01)
     760                            .dwattr $C$DW$61, DW_AT_TI_max_frame_size(0x00)
     761                            .dwpsn  file "../UART.c",line 72,column 1,is_stmt,address TxFifo_Size,isa 1
     762                    
     763                            .dwfde $C$DW$CIE, TxFifo_Size
     764                    
     765                    ;*****************************************************************************
     766                    ;* FUNCTION NAME: TxFifo_Size                                                *
     767                    ;*                                                                           *
     768                    ;*   Regs Modified     : A1,A2,SR                                            *
     769                    ;*   Regs Used         : A1,A2,LR,SR                                         *
     770                    ;*   Local Frame Size  : 0 Args + 0 Auto + 0 Save = 0 byte                   *
TI ARM Assembler PC v5.2.4 Sat Feb 06 22:51:20 2016

Tools Copyright (c) 1996-2015 Texas Instruments Incorporated
UART.asm                                                             PAGE   15

     771                    ;*****************************************************************************
     772 00000116           TxFifo_Size:
     773                    ;* --------------------------------------------------------------------------*
     774                            .dwcfi  cfa_offset, 0
     775                    ;----------------------------------------------------------------------
     776                    ;  72 | AddIndexFifo(Tx, 1024, char, FIFOSUCCESS, FIFOFAIL)                    
     777                    ;----------------------------------------------------------------------
     778 00000116 499D              LDR       A2, $C$CON5           ; [DPU_3_PIPE] |72|  ; [ORIG 16-BIT INS]
     779 00000118 489B              LDR       A1, $C$CON4           ; [DPU_3_PIPE] |72|  ; [ORIG 16-BIT INS]
     780 0000011a 6809              LDR       A2, [A2, #0]          ; [DPU_3_PIPE] |72|  ; [ORIG 16-BIT INS]
     781 0000011c 6800              LDR       A1, [A1, #0]          ; [DPU_3_PIPE] |72|  ; [ORIG 16-BIT INS]
     782 0000011e 1A40              SUBS      A1, A1, A2            ; [DPU_3_PIPE] |72|  ; [ORIG 16-BIT INS]
     783 00000120 B280              UXTH      A1, A1                ; [DPU_3_PIPE] |72|  ; [ORIG 16-BIT INS]
     784                    $C$DW$62        .dwtag  DW_TAG_TI_branch
     785                            .dwattr $C$DW$62, DW_AT_low_pc(0x00)
     786                            .dwattr $C$DW$62, DW_AT_TI_return
     787 00000122 4770              BX        LR                    ; [DPU_3_PIPE]  ; [ORIG 16-BIT INS]
     788                            ; BRANCH OCCURS                  ; [] 
     789                            .dwattr $C$DW$61, DW_AT_TI_end_file("../UART.c")
     790                            .dwattr $C$DW$61, DW_AT_TI_end_line(0x48)
     791                            .dwattr $C$DW$61, DW_AT_TI_end_column(0x01)
     792                            .dwendentry
     793                            .dwendtag $C$DW$61
     794                    
     795 00000124                   .sect   ".text"
     796                            .clink
     797                            .thumbfunc UART_Init
     798 00000124                   .thumb
     799                            .global UART_Init
     800                    
     801                    $C$DW$63        .dwtag  DW_TAG_subprogram, DW_AT_name("UART_Init")
     802                            .dwattr $C$DW$63, DW_AT_low_pc(UART_Init)
     803                            .dwattr $C$DW$63, DW_AT_high_pc(0x00)
     804                            .dwattr $C$DW$63, DW_AT_TI_symbol_name("UART_Init")
     805                            .dwattr $C$DW$63, DW_AT_external
     806                            .dwattr $C$DW$63, DW_AT_TI_begin_file("../UART.c")
     807                            .dwattr $C$DW$63, DW_AT_TI_begin_line(0x4c)
     808                            .dwattr $C$DW$63, DW_AT_TI_begin_column(0x06)
     809                            .dwattr $C$DW$63, DW_AT_decl_file("../UART.c")
     810                            .dwattr $C$DW$63, DW_AT_decl_line(0x4c)
     811                            .dwattr $C$DW$63, DW_AT_decl_column(0x06)
     812                            .dwattr $C$DW$63, DW_AT_TI_max_frame_size(0x08)
     813                            .dwpsn  file "../UART.c",line 76,column 21,is_stmt,address UART_Init,isa 1
     814                    
     815                            .dwfde $C$DW$CIE, UART_Init
     816                    ;----------------------------------------------------------------------
     817                    ;  76 | void UART_Init(void){                                                  
     818                    ;----------------------------------------------------------------------
     819                    
     820                    ;*****************************************************************************
     821                    ;* FUNCTION NAME: UART_Init                                                  *
     822                    ;*                                                                           *
     823                    ;*   Regs Modified     : A1,A2,A3,A4,V9,SP,LR,SR,D0,D0_hi,D1,D1_hi,D2,D2_hi, *
     824                    ;*                           D3,D3_hi,D4,D4_hi,D5,D5_hi,D6,D6_hi,D7,D7_hi,   *
     825                    ;*                           FPEXC,FPSCR                                     *
TI ARM Assembler PC v5.2.4 Sat Feb 06 22:51:20 2016

Tools Copyright (c) 1996-2015 Texas Instruments Incorporated
UART.asm                                                             PAGE   16

     826                    ;*   Regs Used         : A1,A2,A3,A4,V9,SP,LR,SR,D0,D0_hi,D1,D1_hi,D2,D2_hi, *
     827                    ;*                           D3,D3_hi,D4,D4_hi,D5,D5_hi,D6,D6_hi,D7,D7_hi,   *
     828                    ;*                           FPEXC,FPSCR                                     *
     829                    ;*   Local Frame Size  : 0 Args + 0 Auto + 4 Save = 4 byte                   *
     830                    ;*****************************************************************************
     831 00000124           UART_Init:
     832                    ;* --------------------------------------------------------------------------*
     833                            .dwcfi  cfa_offset, 0
     834 00000124 B508              PUSH      {A4, LR}              ; [DPU_3_PIPE]  ; [ORIG 16-BIT INS]
     835                            .dwcfi  cfa_offset, 8
     836                            .dwcfi  save_reg_to_mem, 14, -4
     837                            .dwcfi  save_reg_to_mem, 3, -8
     838                            .dwpsn  file "../UART.c",line 77,column 3,is_stmt,isa 1
     839                    ;----------------------------------------------------------------------
     840                    ;  77 | SYSCTL_RCGCUART_R |= 0x01;            // activate UART0                
     841                    ;----------------------------------------------------------------------
     842 00000126 49A7              LDR       A2, $C$CON7           ; [DPU_3_PIPE] |77|  ; [ORIG 16-BIT INS]
     843 00000128 6808              LDR       A1, [A2, #0]          ; [DPU_3_PIPE] |77|  ; [ORIG 16-BIT INS]
     844 0000012a 0001F040          ORR       A1, A1, #1            ; [DPU_3_PIPE] |77|  ; [KEEP 32-BIT INS]
     845 0000012e 6008              STR       A1, [A2, #0]          ; [DPU_3_PIPE] |77|  ; [ORIG 16-BIT INS]
     846                            .dwpsn  file "../UART.c",line 78,column 3,is_stmt,isa 1
     847                    ;----------------------------------------------------------------------
     848                    ;  78 | SYSCTL_RCGCGPIO_R |= 0x01;            // activate port A               
     849                    ;----------------------------------------------------------------------
     850 00000130 49A5              LDR       A2, $C$CON8           ; [DPU_3_PIPE] |78|  ; [ORIG 16-BIT INS]
     851 00000132 6808              LDR       A1, [A2, #0]          ; [DPU_3_PIPE] |78|  ; [ORIG 16-BIT INS]
     852 00000134 0001F040          ORR       A1, A1, #1            ; [DPU_3_PIPE] |78|  ; [KEEP 32-BIT INS]
     853 00000138 6008              STR       A1, [A2, #0]          ; [DPU_3_PIPE] |78|  ; [ORIG 16-BIT INS]
     854                            .dwpsn  file "../UART.c",line 79,column 3,is_stmt,isa 1
     855                    ;----------------------------------------------------------------------
     856                    ;  79 | RxFifo_Init();                        // initialize empty FIFOs        
     857                    ;----------------------------------------------------------------------
     858                    $C$DW$64        .dwtag  DW_TAG_TI_branch
     859                            .dwattr $C$DW$64, DW_AT_low_pc(0x00)
     860                            .dwattr $C$DW$64, DW_AT_name("RxFifo_Init")
     861                            .dwattr $C$DW$64, DW_AT_TI_call
     862 0000013a FF61F7FF          BL        RxFifo_Init           ; [DPU_3_PIPE] |79|  ; [KEEP 32-BIT INS]
     863                            ; CALL OCCURS {RxFifo_Init }     ; [] |79| 
     864                            .dwpsn  file "../UART.c",line 80,column 3,is_stmt,isa 1
     865                    ;----------------------------------------------------------------------
     866                    ;  80 | TxFifo_Init();                                                         
     867                    ;----------------------------------------------------------------------
     868                    $C$DW$65        .dwtag  DW_TAG_TI_branch
     869                            .dwattr $C$DW$65, DW_AT_low_pc(0x00)
     870                            .dwattr $C$DW$65, DW_AT_name("TxFifo_Init")
     871                            .dwattr $C$DW$65, DW_AT_TI_call
     872 0000013e FFA8F7FF          BL        TxFifo_Init           ; [DPU_3_PIPE] |80|  ; [KEEP 32-BIT INS]
     873                            ; CALL OCCURS {TxFifo_Init }     ; [] |80| 
     874                            .dwpsn  file "../UART.c",line 81,column 3,is_stmt,isa 1
     875                    ;----------------------------------------------------------------------
     876                    ;  81 | UART0_CTL_R &= ~UART_CTL_UARTEN;      // disable UART                  
     877                    ;----------------------------------------------------------------------
     878 00000142 49A2              LDR       A2, $C$CON9           ; [DPU_3_PIPE] |81|  ; [ORIG 16-BIT INS]
     879 00000144 6808              LDR       A1, [A2, #0]          ; [DPU_3_PIPE] |81|  ; [ORIG 16-BIT INS]
     880 00000146 0001F020          BIC       A1, A1, #1            ; [DPU_3_PIPE] |81|  ; [KEEP 32-BIT INS]
TI ARM Assembler PC v5.2.4 Sat Feb 06 22:51:20 2016

Tools Copyright (c) 1996-2015 Texas Instruments Incorporated
UART.asm                                                             PAGE   17

     881 0000014a 6008              STR       A1, [A2, #0]          ; [DPU_3_PIPE] |81|  ; [ORIG 16-BIT INS]
     882                            .dwpsn  file "../UART.c",line 82,column 3,is_stmt,isa 1
     883                    ;----------------------------------------------------------------------
     884                    ;  82 | UART0_IBRD_R = 43;                    // IBRD = int(80,000,000 / (16 *
     885                    ;     | 115,200)) = int(43.403)                                                
     886                    ;----------------------------------------------------------------------
     887 0000014c 49A0              LDR       A2, $C$CON10          ; [DPU_3_PIPE] |82|  ; [ORIG 16-BIT INS]
     888 0000014e 202B              MOVS      A1, #43               ; [DPU_3_PIPE] |82|  ; [ORIG 16-BIT INS]
     889 00000150 6008              STR       A1, [A2, #0]          ; [DPU_3_PIPE] |82|  ; [ORIG 16-BIT INS]
     890                            .dwpsn  file "../UART.c",line 83,column 3,is_stmt,isa 1
     891                    ;----------------------------------------------------------------------
     892                    ;  83 | UART0_FBRD_R = 26;                    // FBRD = round(0.4028 * 64 ) = 2
     893                    ;     | 6                                                                      
     894                    ;  84 |                                       // 8 bit word length (no parity b
     895                    ;     | its, one stop bit, FIFOs)                                              
     896                    ;----------------------------------------------------------------------
     897 00000152 49A0              LDR       A2, $C$CON11          ; [DPU_3_PIPE] |83|  ; [ORIG 16-BIT INS]
     898 00000154 201A              MOVS      A1, #26               ; [DPU_3_PIPE] |83|  ; [ORIG 16-BIT INS]
     899 00000156 6008              STR       A1, [A2, #0]          ; [DPU_3_PIPE] |83|  ; [ORIG 16-BIT INS]
     900                            .dwpsn  file "../UART.c",line 85,column 3,is_stmt,isa 1
     901                    ;----------------------------------------------------------------------
     902                    ;  85 | UART0_LCRH_R = (UART_LCRH_WLEN_8|UART_LCRH_FEN);                       
     903                    ;----------------------------------------------------------------------
     904 00000158 499F              LDR       A2, $C$CON12          ; [DPU_3_PIPE] |85|  ; [ORIG 16-BIT INS]
     905 0000015a 2070              MOVS      A1, #112              ; [DPU_3_PIPE] |85|  ; [ORIG 16-BIT INS]
     906 0000015c 6008              STR       A1, [A2, #0]          ; [DPU_3_PIPE] |85|  ; [ORIG 16-BIT INS]
     907                            .dwpsn  file "../UART.c",line 86,column 3,is_stmt,isa 1
     908                    ;----------------------------------------------------------------------
     909                    ;  86 | UART0_IFLS_R &= ~0x3F;                // clear TX and RX interrupt FIFO
     910                    ;     |  level fields                                                          
     911                    ;  87 |                                       // configure interrupt for TX FIF
     912                    ;     | O <= 1/8 full                                                          
     913                    ;  88 |                                       // configure interrupt for RX FIF
     914                    ;     | O >= 1/8 full                                                          
     915                    ;----------------------------------------------------------------------
     916 0000015e 499F              LDR       A2, $C$CON13          ; [DPU_3_PIPE] |86|  ; [ORIG 16-BIT INS]
     917 00000160 6808              LDR       A1, [A2, #0]          ; [DPU_3_PIPE] |86|  ; [ORIG 16-BIT INS]
     918 00000162 003FF020          BIC       A1, A1, #63           ; [DPU_3_PIPE] |86|  ; [KEEP 32-BIT INS]
     919 00000166 6008              STR       A1, [A2, #0]          ; [DPU_3_PIPE] |86|  ; [ORIG 16-BIT INS]
     920                            .dwpsn  file "../UART.c",line 89,column 3,is_stmt,isa 1
     921                    ;----------------------------------------------------------------------
     922                    ;  89 | UART0_IFLS_R += (UART_IFLS_TX1_8|UART_IFLS_RX1_8);                     
     923                    ;  90 |                                       // enable TX and RX FIFO interrup
     924                    ;     | ts and RX time-out interrupt                                           
     925                    ;----------------------------------------------------------------------
     926 00000168 499C              LDR       A2, $C$CON13          ; [DPU_3_PIPE] |89|  ; [ORIG 16-BIT INS]
     927 0000016a 6808              LDR       A1, [A2, #0]          ; [DPU_3_PIPE] |89|  ; [ORIG 16-BIT INS]
     928 0000016c 6008              STR       A1, [A2, #0]          ; [DPU_3_PIPE] |89|  ; [ORIG 16-BIT INS]
     929                            .dwpsn  file "../UART.c",line 91,column 3,is_stmt,isa 1
     930                    ;----------------------------------------------------------------------
     931                    ;  91 | UART0_IM_R |= (UART_IM_RXIM|UART_IM_TXIM|UART_IM_RTIM);                
     932                    ;----------------------------------------------------------------------
     933 0000016e 499C              LDR       A2, $C$CON14          ; [DPU_3_PIPE] |91|  ; [ORIG 16-BIT INS]
     934 00000170 6808              LDR       A1, [A2, #0]          ; [DPU_3_PIPE] |91|  ; [ORIG 16-BIT INS]
     935 00000172 0070F040          ORR       A1, A1, #112          ; [DPU_3_PIPE] |91|  ; [KEEP 32-BIT INS]
TI ARM Assembler PC v5.2.4 Sat Feb 06 22:51:20 2016

Tools Copyright (c) 1996-2015 Texas Instruments Incorporated
UART.asm                                                             PAGE   18

     936 00000176 6008              STR       A1, [A2, #0]          ; [DPU_3_PIPE] |91|  ; [ORIG 16-BIT INS]
     937                            .dwpsn  file "../UART.c",line 92,column 3,is_stmt,isa 1
     938                    ;----------------------------------------------------------------------
     939                    ;  92 | UART0_CTL_R |= 0x301;                 // enable UART                   
     940                    ;----------------------------------------------------------------------
     941 00000178 4994              LDR       A2, $C$CON9           ; [DPU_3_PIPE] |92|  ; [ORIG 16-BIT INS]
     942 0000017a 680A              LDR       A3, [A2, #0]          ; [DPU_3_PIPE] |92|  ; [ORIG 16-BIT INS]
     943 0000017c 3001F240          MOV       A1, #769              ; [DPU_3_PIPE] |92|  ; [KEEP 32-BIT INS]
     944 00000180 4310              ORRS      A1, A1, A3            ; [DPU_3_PIPE] |92|  ; [ORIG 16-BIT INS]
     945 00000182 6008              STR       A1, [A2, #0]          ; [DPU_3_PIPE] |92|  ; [ORIG 16-BIT INS]
     946                            .dwpsn  file "../UART.c",line 93,column 3,is_stmt,isa 1
     947                    ;----------------------------------------------------------------------
     948                    ;  93 | GPIO_PORTA_AFSEL_R |= 0x03;           // enable alt funct on PA1-0     
     949                    ;----------------------------------------------------------------------
     950 00000184 4997              LDR       A2, $C$CON15          ; [DPU_3_PIPE] |93|  ; [ORIG 16-BIT INS]
     951 00000186 6808              LDR       A1, [A2, #0]          ; [DPU_3_PIPE] |93|  ; [ORIG 16-BIT INS]
     952 00000188 0003F040          ORR       A1, A1, #3            ; [DPU_3_PIPE] |93|  ; [KEEP 32-BIT INS]
     953 0000018c 6008              STR       A1, [A2, #0]          ; [DPU_3_PIPE] |93|  ; [ORIG 16-BIT INS]
     954                            .dwpsn  file "../UART.c",line 94,column 3,is_stmt,isa 1
     955                    ;----------------------------------------------------------------------
     956                    ;  94 | GPIO_PORTA_DEN_R |= 0x03;             // enable digital I/O on PA1-0   
     957                    ;  95 |                                       // configure PA1-0 as UART       
     958                    ;----------------------------------------------------------------------
     959 0000018e 4996              LDR       A2, $C$CON16          ; [DPU_3_PIPE] |94|  ; [ORIG 16-BIT INS]
     960 00000190 6808              LDR       A1, [A2, #0]          ; [DPU_3_PIPE] |94|  ; [ORIG 16-BIT INS]
     961 00000192 0003F040          ORR       A1, A1, #3            ; [DPU_3_PIPE] |94|  ; [KEEP 32-BIT INS]
     962 00000196 6008              STR       A1, [A2, #0]          ; [DPU_3_PIPE] |94|  ; [ORIG 16-BIT INS]
     963                            .dwpsn  file "../UART.c",line 96,column 3,is_stmt,isa 1
     964                    ;----------------------------------------------------------------------
     965                    ;  96 | GPIO_PORTA_PCTL_R = (GPIO_PORTA_PCTL_R&0xFFFFFF00)+0x00000011;         
     966                    ;----------------------------------------------------------------------
     967 00000198 4894              LDR       A1, $C$CON17          ; [DPU_3_PIPE] |96|  ; [ORIG 16-BIT INS]
     968 0000019a 4994              LDR       A2, $C$CON17          ; [DPU_3_PIPE] |96|  ; [ORIG 16-BIT INS]
     969 0000019c 6800              LDR       A1, [A1, #0]          ; [DPU_3_PIPE] |96|  ; [ORIG 16-BIT INS]
     970 0000019e 00FFF020          BIC       A1, A1, #255          ; [DPU_3_PIPE] |96|  ; [KEEP 32-BIT INS]
     971 000001a2 3011              ADDS      A1, A1, #17           ; [DPU_3_PIPE] |96|  ; [ORIG 16-BIT INS]
     972 000001a4 6008              STR       A1, [A2, #0]          ; [DPU_3_PIPE] |96|  ; [ORIG 16-BIT INS]
     973                            .dwpsn  file "../UART.c",line 97,column 3,is_stmt,isa 1
     974                    ;----------------------------------------------------------------------
     975                    ;  97 | GPIO_PORTA_AMSEL_R = 0;               // disable analog functionality o
     976                    ;     | n PA                                                                   
     977                    ;  98 |                                       // UART0=priority 2              
     978                    ;----------------------------------------------------------------------
     979 000001a6 4992              LDR       A2, $C$CON18          ; [DPU_3_PIPE] |97|  ; [ORIG 16-BIT INS]
     980 000001a8 2000              MOVS      A1, #0                ; [DPU_3_PIPE] |97|  ; [ORIG 16-BIT INS]
     981 000001aa 6008              STR       A1, [A2, #0]          ; [DPU_3_PIPE] |97|  ; [ORIG 16-BIT INS]
     982                            .dwpsn  file "../UART.c",line 99,column 3,is_stmt,isa 1
     983                    ;----------------------------------------------------------------------
     984                    ;  99 | NVIC_PRI1_R = (NVIC_PRI1_R&0xFFFF00FF)|0x00004000; // bits 13-15       
     985                    ;----------------------------------------------------------------------
     986 000001ac 4891              LDR       A1, $C$CON19          ; [DPU_3_PIPE] |99|  ; [ORIG 16-BIT INS]
     987 000001ae 4991              LDR       A2, $C$CON19          ; [DPU_3_PIPE] |99|  ; [ORIG 16-BIT INS]
     988 000001b0 6800              LDR       A1, [A1, #0]          ; [DPU_3_PIPE] |99|  ; [ORIG 16-BIT INS]
     989 000001b2 407FF420          BIC       A1, A1, #65280        ; [DPU_3_PIPE] |99|  ; [KEEP 32-BIT INS]
     990 000001b6 4080F440          ORR       A1, A1, #16384        ; [DPU_3_PIPE] |99|  ; [KEEP 32-BIT INS]
TI ARM Assembler PC v5.2.4 Sat Feb 06 22:51:20 2016

Tools Copyright (c) 1996-2015 Texas Instruments Incorporated
UART.asm                                                             PAGE   19

     991 000001ba 6008              STR       A1, [A2, #0]          ; [DPU_3_PIPE] |99|  ; [ORIG 16-BIT INS]
     992                            .dwpsn  file "../UART.c",line 100,column 3,is_stmt,isa 1
     993                    ;----------------------------------------------------------------------
     994                    ; 100 | NVIC_EN0_R = NVIC_EN0_INT5;           // enable interrupt 5 in NVIC    
     995                    ;----------------------------------------------------------------------
     996 000001bc 498E              LDR       A2, $C$CON20          ; [DPU_3_PIPE] |100|  ; [ORIG 16-BIT INS]
     997 000001be 2020              MOVS      A1, #32               ; [DPU_3_PIPE] |100|  ; [ORIG 16-BIT INS]
     998 000001c0 6008              STR       A1, [A2, #0]          ; [DPU_3_PIPE] |100|  ; [ORIG 16-BIT INS]
     999                            .dwpsn  file "../UART.c",line 101,column 1,is_stmt,isa 1
    1000                    $C$DW$66        .dwtag  DW_TAG_TI_branch
    1001                            .dwattr $C$DW$66, DW_AT_low_pc(0x00)
    1002                            .dwattr $C$DW$66, DW_AT_TI_return
    1003 000001c2 BD08              POP       {A4, PC}              ; [DPU_3_PIPE]  ; [ORIG 16-BIT INS]
    1004                            .dwcfi  cfa_offset, 0
    1005                            ; BRANCH OCCURS                  ; [] 
    1006                            .dwattr $C$DW$63, DW_AT_TI_end_file("../UART.c")
    1007                            .dwattr $C$DW$63, DW_AT_TI_end_line(0x65)
    1008                            .dwattr $C$DW$63, DW_AT_TI_end_column(0x01)
    1009                            .dwendentry
    1010                            .dwendtag $C$DW$63
    1011                    
    1012 000001c4                   .sect   ".text"
    1013                            .clink
    1014                            .thumbfunc copyHardwareToSoftware
    1015 000001c4                   .thumb
    1016                    
    1017                    $C$DW$67        .dwtag  DW_TAG_subprogram, DW_AT_name("copyHardwareToSoftware")
    1018                            .dwattr $C$DW$67, DW_AT_low_pc(copyHardwareToSoftware)
    1019                            .dwattr $C$DW$67, DW_AT_high_pc(0x00)
    1020                            .dwattr $C$DW$67, DW_AT_TI_symbol_name("copyHardwareToSoftware")
    1021                            .dwattr $C$DW$67, DW_AT_TI_begin_file("../UART.c")
    1022                            .dwattr $C$DW$67, DW_AT_TI_begin_line(0x68)
    1023                            .dwattr $C$DW$67, DW_AT_TI_begin_column(0x0d)
    1024                            .dwattr $C$DW$67, DW_AT_decl_file("../UART.c")
    1025                            .dwattr $C$DW$67, DW_AT_decl_line(0x68)
    1026                            .dwattr $C$DW$67, DW_AT_decl_column(0x0d)
    1027                            .dwattr $C$DW$67, DW_AT_TI_max_frame_size(0x08)
    1028                            .dwpsn  file "../UART.c",line 104,column 41,is_stmt,address copyHardwareToSoftware,isa 1
    1029                    
    1030                            .dwfde $C$DW$CIE, copyHardwareToSoftware
    1031                    ;----------------------------------------------------------------------
    1032                    ; 104 | void static copyHardwareToSoftware(void){                              
    1033                    ; 105 | char letter;                                                           
    1034                    ;----------------------------------------------------------------------
    1035                    
    1036                    ;*****************************************************************************
    1037                    ;* FUNCTION NAME: copyHardwareToSoftware                                     *
    1038                    ;*                                                                           *
    1039                    ;*   Regs Modified     : A1,A2,A3,A4,SP,LR,SR,FPEXC,FPSCR                    *
    1040                    ;*   Regs Used         : A1,A2,A3,A4,SP,LR,SR,FPEXC,FPSCR                    *
    1041                    ;*   Local Frame Size  : 0 Args + 4 Auto + 4 Save = 8 byte                   *
    1042                    ;*****************************************************************************
    1043 000001c4           copyHardwareToSoftware:
    1044                    ;* --------------------------------------------------------------------------*
    1045                            .dwcfi  cfa_offset, 0
TI ARM Assembler PC v5.2.4 Sat Feb 06 22:51:20 2016

Tools Copyright (c) 1996-2015 Texas Instruments Incorporated
UART.asm                                                             PAGE   20

    1046 000001c4 B508              PUSH      {A4, LR}              ; [DPU_3_PIPE]  ; [ORIG 16-BIT INS]
    1047                            .dwcfi  cfa_offset, 8
    1048                            .dwcfi  save_reg_to_mem, 14, -4
    1049                            .dwcfi  save_reg_to_mem, 3, -8
    1050                    $C$DW$68        .dwtag  DW_TAG_variable, DW_AT_name("letter")
    1051                            .dwattr $C$DW$68, DW_AT_TI_symbol_name("letter")
    1052                            .dwattr $C$DW$68, DW_AT_type(*$C$DW$T$6)
    1053                            .dwattr $C$DW$68, DW_AT_location[DW_OP_breg13 0]
    1054                            .dwpsn  file "../UART.c",line 106,column 3,is_stmt,isa 1
    1055                    ;----------------------------------------------------------------------
    1056                    ; 106 | while(((UART0_FR_R&UART_FR_RXFE) == 0) && (RxFifo_Size() < (FIFOSIZE -
    1057                    ;     | 1))){                                                                  
    1058                    ;----------------------------------------------------------------------
    1059 000001c6 E007              B         ||$C$L10||            ; [DPU_3_PIPE] |106|  ; [ORIG 16-BIT INS]
    1060                            ; BRANCH OCCURS {||$C$L10||}     ; [] |106| 
    1061                    ;* --------------------------------------------------------------------------*
    1062 000001c8           ||$C$L9||:    
    1063                            .dwpsn  file "../UART.c",line 107,column 5,is_stmt,isa 1
    1064                    ;----------------------------------------------------------------------
    1065                    ; 107 | letter = UART0_DR_R;                                                   
    1066                    ;----------------------------------------------------------------------
    1067 000001c8 488C              LDR       A1, $C$CON21          ; [DPU_3_PIPE] |107|  ; [ORIG 16-BIT INS]
    1068 000001ca 6800              LDR       A1, [A1, #0]          ; [DPU_3_PIPE] |107|  ; [ORIG 16-BIT INS]
    1069 000001cc 0000F88D          STRB      A1, [SP, #0]          ; [DPU_3_PIPE] |107|  ; [KEEP 32-BIT INS]
    1070                            .dwpsn  file "../UART.c",line 108,column 5,is_stmt,isa 1
    1071                    ;----------------------------------------------------------------------
    1072                    ; 108 | RxFifo_Put(letter);                                                    
    1073                    ;----------------------------------------------------------------------
    1074 000001d0 0000F89D          LDRB      A1, [SP, #0]          ; [DPU_3_PIPE] |108|  ; [KEEP 32-BIT INS]
    1075                    $C$DW$69        .dwtag  DW_TAG_TI_branch
    1076                            .dwattr $C$DW$69, DW_AT_low_pc(0x00)
    1077                            .dwattr $C$DW$69, DW_AT_name("RxFifo_Put")
    1078                            .dwattr $C$DW$69, DW_AT_TI_call
    1079 000001d4 FF21F7FF          BL        RxFifo_Put            ; [DPU_3_PIPE] |108|  ; [KEEP 32-BIT INS]
    1080                            ; CALL OCCURS {RxFifo_Put }      ; [] |108| 
    1081                    ;* --------------------------------------------------------------------------*
    1082                    ;*   BEGIN LOOP ||$C$L10||
    1083                    ;* --------------------------------------------------------------------------*
    1084 000001d8           ||$C$L10||:    
    1085                            .dwpsn  file "../UART.c",line 106,column 9,is_stmt,isa 1
    1086 000001d8 48BA              LDR       A1, $C$CON22          ; [DPU_3_PIPE] |106|  ; [ORIG 16-BIT INS]
    1087 000001da 6800              LDR       A1, [A1, #0]          ; [DPU_3_PIPE] |106|  ; [ORIG 16-BIT INS]
    1088 000001dc 0940              LSRS      A1, A1, #5            ; [DPU_3_PIPE] |106|  ; [ORIG 16-BIT INS]
    1089 000001de D205              BCS       ||$C$L11||            ; [DPU_3_PIPE] |106|  ; [ORIG 16-BIT INS]
    1090                            ; BRANCHCC OCCURS {||$C$L11||}   ; [] |106| 
    1091                    ;* --------------------------------------------------------------------------*
    1092                    $C$DW$70        .dwtag  DW_TAG_TI_branch
    1093                            .dwattr $C$DW$70, DW_AT_low_pc(0x00)
    1094                            .dwattr $C$DW$70, DW_AT_name("RxFifo_Size")
    1095                            .dwattr $C$DW$70, DW_AT_TI_call
    1096 000001e0 FF50F7FF          BL        RxFifo_Size           ; [DPU_3_PIPE] |106|  ; [KEEP 32-BIT INS]
    1097                            ; CALL OCCURS {RxFifo_Size }     ; [] |106| 
    1098 000001e4 31FFF240          MOV       A2, #1023             ; [DPU_3_PIPE] |106|  ; [KEEP 32-BIT INS]
    1099 000001e8 4281              CMP       A2, A1                ; [DPU_3_PIPE] |106|  ; [ORIG 16-BIT INS]
    1100 000001ea DCED              BGT       ||$C$L9||             ; [DPU_3_PIPE] |106|  ; [ORIG 16-BIT INS]
TI ARM Assembler PC v5.2.4 Sat Feb 06 22:51:20 2016

Tools Copyright (c) 1996-2015 Texas Instruments Incorporated
UART.asm                                                             PAGE   21

    1101                            ; BRANCHCC OCCURS {||$C$L9||}    ; [] |106| 
    1102                    ;* --------------------------------------------------------------------------*
    1103                            .dwpsn  file "../UART.c",line 110,column 1,is_stmt,isa 1
    1104                    ;* --------------------------------------------------------------------------*
    1105                    ||$C$L11||:    
    1106                    $C$DW$71        .dwtag  DW_TAG_TI_branch
    1107                            .dwattr $C$DW$71, DW_AT_low_pc(0x00)
    1108                            .dwattr $C$DW$71, DW_AT_TI_return
    1109 000001ec BD08              POP       {A4, PC}              ; [DPU_3_PIPE]  ; [ORIG 16-BIT INS]
    1110                            .dwcfi  cfa_offset, 0
    1111                            ; BRANCH OCCURS                  ; [] 
    1112                            .dwattr $C$DW$67, DW_AT_TI_end_file("../UART.c")
    1113                            .dwattr $C$DW$67, DW_AT_TI_end_line(0x6e)
    1114                            .dwattr $C$DW$67, DW_AT_TI_end_column(0x01)
    1115                            .dwendentry
    1116                            .dwendtag $C$DW$67
    1117                    
    1118 000001ee                   .sect   ".text"
    1119                            .clink
    1120                            .thumbfunc copySoftwareToHardware
    1121 000001ee                   .thumb
    1122                    
    1123                    $C$DW$72        .dwtag  DW_TAG_subprogram, DW_AT_name("copySoftwareToHardware")
    1124                            .dwattr $C$DW$72, DW_AT_low_pc(copySoftwareToHardware)
    1125                            .dwattr $C$DW$72, DW_AT_high_pc(0x00)
    1126                            .dwattr $C$DW$72, DW_AT_TI_symbol_name("copySoftwareToHardware")
    1127                            .dwattr $C$DW$72, DW_AT_TI_begin_file("../UART.c")
    1128                            .dwattr $C$DW$72, DW_AT_TI_begin_line(0x71)
    1129                            .dwattr $C$DW$72, DW_AT_TI_begin_column(0x0d)
    1130                            .dwattr $C$DW$72, DW_AT_decl_file("../UART.c")
    1131                            .dwattr $C$DW$72, DW_AT_decl_line(0x71)
    1132                            .dwattr $C$DW$72, DW_AT_decl_column(0x0d)
    1133                            .dwattr $C$DW$72, DW_AT_TI_max_frame_size(0x08)
    1134                            .dwpsn  file "../UART.c",line 113,column 41,is_stmt,address copySoftwareToHardware,isa 1
    1135                    
    1136                            .dwfde $C$DW$CIE, copySoftwareToHardware
    1137                    ;----------------------------------------------------------------------
    1138                    ; 113 | void static copySoftwareToHardware(void){                              
    1139                    ; 114 | char letter;                                                           
    1140                    ;----------------------------------------------------------------------
    1141                    
    1142                    ;*****************************************************************************
    1143                    ;* FUNCTION NAME: copySoftwareToHardware                                     *
    1144                    ;*                                                                           *
    1145                    ;*   Regs Modified     : A1,A2,A3,A4,SP,LR,SR,FPEXC,FPSCR                    *
    1146                    ;*   Regs Used         : A1,A2,A3,A4,SP,LR,SR,FPEXC,FPSCR                    *
    1147                    ;*   Local Frame Size  : 0 Args + 4 Auto + 4 Save = 8 byte                   *
    1148                    ;*****************************************************************************
    1149 000001ee           copySoftwareToHardware:
    1150                    ;* --------------------------------------------------------------------------*
    1151                            .dwcfi  cfa_offset, 0
    1152 000001ee B508              PUSH      {A4, LR}              ; [DPU_3_PIPE]  ; [ORIG 16-BIT INS]
    1153                            .dwcfi  cfa_offset, 8
    1154                            .dwcfi  save_reg_to_mem, 14, -4
    1155                            .dwcfi  save_reg_to_mem, 3, -8
TI ARM Assembler PC v5.2.4 Sat Feb 06 22:51:20 2016

Tools Copyright (c) 1996-2015 Texas Instruments Incorporated
UART.asm                                                             PAGE   22

    1156                    $C$DW$73        .dwtag  DW_TAG_variable, DW_AT_name("letter")
    1157                            .dwattr $C$DW$73, DW_AT_TI_symbol_name("letter")
    1158                            .dwattr $C$DW$73, DW_AT_type(*$C$DW$T$6)
    1159                            .dwattr $C$DW$73, DW_AT_location[DW_OP_breg13 0]
    1160                            .dwpsn  file "../UART.c",line 115,column 3,is_stmt,isa 1
    1161                    ;----------------------------------------------------------------------
    1162                    ; 115 | while(((UART0_FR_R&UART_FR_TXFF) == 0) && (TxFifo_Size() > 0)){        
    1163                    ;----------------------------------------------------------------------
    1164 000001f0 E006              B         ||$C$L13||            ; [DPU_3_PIPE] |115|  ; [ORIG 16-BIT INS]
    1165                            ; BRANCH OCCURS {||$C$L13||}     ; [] |115| 
    1166                    ;* --------------------------------------------------------------------------*
    1167 000001f2           ||$C$L12||:    
    1168                            .dwpsn  file "../UART.c",line 116,column 5,is_stmt,isa 1
    1169                    ;----------------------------------------------------------------------
    1170                    ; 116 | TxFifo_Get(&letter);                                                   
    1171                    ;----------------------------------------------------------------------
    1172 000001f2 4668              MOV       A1, SP                ; [DPU_3_PIPE] |116|  ; [ORIG 16-BIT INS]
    1173                    $C$DW$74        .dwtag  DW_TAG_TI_branch
    1174                            .dwattr $C$DW$74, DW_AT_low_pc(0x00)
    1175                            .dwattr $C$DW$74, DW_AT_name("TxFifo_Get")
    1176                            .dwattr $C$DW$74, DW_AT_TI_call
    1177 000001f4 FF75F7FF          BL        TxFifo_Get            ; [DPU_3_PIPE] |116|  ; [KEEP 32-BIT INS]
    1178                            ; CALL OCCURS {TxFifo_Get }      ; [] |116| 
    1179                            .dwpsn  file "../UART.c",line 117,column 5,is_stmt,isa 1
    1180                    ;----------------------------------------------------------------------
    1181                    ; 117 | UART0_DR_R = letter;                                                   
    1182                    ;----------------------------------------------------------------------
    1183 000001f8 0000F89D          LDRB      A1, [SP, #0]          ; [DPU_3_PIPE] |117|  ; [KEEP 32-BIT INS]
    1184 000001fc 497F              LDR       A2, $C$CON21          ; [DPU_3_PIPE] |117|  ; [ORIG 16-BIT INS]
    1185 000001fe 6008              STR       A1, [A2, #0]          ; [DPU_3_PIPE] |117|  ; [ORIG 16-BIT INS]
    1186                    ;* --------------------------------------------------------------------------*
    1187                    ;*   BEGIN LOOP ||$C$L13||
    1188                    ;* --------------------------------------------------------------------------*
    1189 00000200           ||$C$L13||:    
    1190                            .dwpsn  file "../UART.c",line 115,column 9,is_stmt,isa 1
    1191 00000200 48B0              LDR       A1, $C$CON22          ; [DPU_3_PIPE] |115|  ; [ORIG 16-BIT INS]
    1192 00000202 6800              LDR       A1, [A1, #0]          ; [DPU_3_PIPE] |115|  ; [ORIG 16-BIT INS]
    1193 00000204 0980              LSRS      A1, A1, #6            ; [DPU_3_PIPE] |115|  ; [ORIG 16-BIT INS]
    1194 00000206 D203              BCS       ||$C$L14||            ; [DPU_3_PIPE] |115|  ; [ORIG 16-BIT INS]
    1195                            ; BRANCHCC OCCURS {||$C$L14||}   ; [] |115| 
    1196                    ;* --------------------------------------------------------------------------*
    1197                    $C$DW$75        .dwtag  DW_TAG_TI_branch
    1198                            .dwattr $C$DW$75, DW_AT_low_pc(0x00)
    1199                            .dwattr $C$DW$75, DW_AT_name("TxFifo_Size")
    1200                            .dwattr $C$DW$75, DW_AT_TI_call
    1201 00000208 FF85F7FF          BL        TxFifo_Size           ; [DPU_3_PIPE] |115|  ; [KEEP 32-BIT INS]
    1202                            ; CALL OCCURS {TxFifo_Size }     ; [] |115| 
    1203 0000020c 2800              CMP       A1, #0                ; [DPU_3_PIPE] |115|  ; [ORIG 16-BIT INS]
    1204 0000020e DCF0              BGT       ||$C$L12||            ; [DPU_3_PIPE] |115|  ; [ORIG 16-BIT INS]
    1205                            ; BRANCHCC OCCURS {||$C$L12||}   ; [] |115| 
    1206                    ;* --------------------------------------------------------------------------*
    1207                            .dwpsn  file "../UART.c",line 119,column 1,is_stmt,isa 1
    1208                    ;* --------------------------------------------------------------------------*
    1209                    ||$C$L14||:    
    1210                    $C$DW$76        .dwtag  DW_TAG_TI_branch
TI ARM Assembler PC v5.2.4 Sat Feb 06 22:51:20 2016

Tools Copyright (c) 1996-2015 Texas Instruments Incorporated
UART.asm                                                             PAGE   23

    1211                            .dwattr $C$DW$76, DW_AT_low_pc(0x00)
    1212                            .dwattr $C$DW$76, DW_AT_TI_return
    1213 00000210 BD08              POP       {A4, PC}              ; [DPU_3_PIPE]  ; [ORIG 16-BIT INS]
    1214                            .dwcfi  cfa_offset, 0
    1215                            ; BRANCH OCCURS                  ; [] 
    1216                            .dwattr $C$DW$72, DW_AT_TI_end_file("../UART.c")
    1217                            .dwattr $C$DW$72, DW_AT_TI_end_line(0x77)
    1218                            .dwattr $C$DW$72, DW_AT_TI_end_column(0x01)
    1219                            .dwendentry
    1220                            .dwendtag $C$DW$72
    1221                    
    1222 00000212                   .sect   ".text"
    1223                            .clink
    1224                            .thumbfunc UART_InChar
    1225 00000212                   .thumb
    1226                            .global UART_InChar
    1227                    
    1228                    $C$DW$77        .dwtag  DW_TAG_subprogram, DW_AT_name("UART_InChar")
    1229                            .dwattr $C$DW$77, DW_AT_low_pc(UART_InChar)
    1230                            .dwattr $C$DW$77, DW_AT_high_pc(0x00)
    1231                            .dwattr $C$DW$77, DW_AT_TI_symbol_name("UART_InChar")
    1232                            .dwattr $C$DW$77, DW_AT_external
    1233                            .dwattr $C$DW$77, DW_AT_type(*$C$DW$T$6)
    1234                            .dwattr $C$DW$77, DW_AT_TI_begin_file("../UART.c")
    1235                            .dwattr $C$DW$77, DW_AT_TI_begin_line(0x7a)
    1236                            .dwattr $C$DW$77, DW_AT_TI_begin_column(0x06)
    1237                            .dwattr $C$DW$77, DW_AT_decl_file("../UART.c")
    1238                            .dwattr $C$DW$77, DW_AT_decl_line(0x7a)
    1239                            .dwattr $C$DW$77, DW_AT_decl_column(0x06)
    1240                            .dwattr $C$DW$77, DW_AT_TI_max_frame_size(0x08)
    1241                            .dwpsn  file "../UART.c",line 122,column 23,is_stmt,address UART_InChar,isa 1
    1242                    
    1243                            .dwfde $C$DW$CIE, UART_InChar
    1244                    ;----------------------------------------------------------------------
    1245                    ; 122 | char UART_InChar(void){                                                
    1246                    ; 123 | char letter;                                                           
    1247                    ;----------------------------------------------------------------------
    1248                    
    1249                    ;*****************************************************************************
    1250                    ;* FUNCTION NAME: UART_InChar                                                *
    1251                    ;*                                                                           *
    1252                    ;*   Regs Modified     : A1,A2,A3,A4,SP,LR,SR,FPEXC,FPSCR                    *
    1253                    ;*   Regs Used         : A1,A2,A3,A4,SP,LR,SR,FPEXC,FPSCR                    *
    1254                    ;*   Local Frame Size  : 0 Args + 4 Auto + 4 Save = 8 byte                   *
    1255                    ;*****************************************************************************
    1256 00000212           UART_InChar:
    1257                    ;* --------------------------------------------------------------------------*
    1258                            .dwcfi  cfa_offset, 0
    1259 00000212 B508              PUSH      {A4, LR}              ; [DPU_3_PIPE]  ; [ORIG 16-BIT INS]
    1260                            .dwcfi  cfa_offset, 8
    1261                            .dwcfi  save_reg_to_mem, 14, -4
    1262                            .dwcfi  save_reg_to_mem, 3, -8
    1263                    $C$DW$78        .dwtag  DW_TAG_variable, DW_AT_name("letter")
    1264                            .dwattr $C$DW$78, DW_AT_TI_symbol_name("letter")
    1265                            .dwattr $C$DW$78, DW_AT_type(*$C$DW$T$6)
TI ARM Assembler PC v5.2.4 Sat Feb 06 22:51:20 2016

Tools Copyright (c) 1996-2015 Texas Instruments Incorporated
UART.asm                                                             PAGE   24

    1266                            .dwattr $C$DW$78, DW_AT_location[DW_OP_breg13 0]
    1267                            .dwpsn  file "../UART.c",line 124,column 3,is_stmt,isa 1
    1268                    ;----------------------------------------------------------------------
    1269                    ; 124 | while(RxFifo_Get(&letter) == FIFOFAIL){};                              
    1270                    ;----------------------------------------------------------------------
    1271                    ;* --------------------------------------------------------------------------*
    1272                    ;*   BEGIN LOOP ||$C$L15||
    1273                    ;*
    1274                    ;*   Loop source line                : 124
    1275                    ;*   Loop closing brace source line  : 124
    1276                    ;*   Known Minimum Trip Count        : 1
    1277                    ;*   Known Maximum Trip Count        : 4294967295
    1278                    ;*   Known Max Trip Count Factor     : 1
    1279                    ;* --------------------------------------------------------------------------*
    1280 00000214           ||$C$L15||:    
    1281                            .dwpsn  file "../UART.c",line 124,column 9,is_stmt,isa 1
    1282 00000214 4668              MOV       A1, SP                ; [DPU_3_PIPE] |124|  ; [ORIG 16-BIT INS]
    1283                    $C$DW$79        .dwtag  DW_TAG_TI_branch
    1284                            .dwattr $C$DW$79, DW_AT_low_pc(0x00)
    1285                            .dwattr $C$DW$79, DW_AT_name("RxFifo_Get")
    1286                            .dwattr $C$DW$79, DW_AT_TI_call
    1287 00000216 FF1BF7FF          BL        RxFifo_Get            ; [DPU_3_PIPE] |124|  ; [KEEP 32-BIT INS]
    1288                            ; CALL OCCURS {RxFifo_Get }      ; [] |124| 
    1289 0000021a 2800              CMP       A1, #0                ; [DPU_3_PIPE] |124|  ; [ORIG 16-BIT INS]
    1290 0000021c D0FA              BEQ       ||$C$L15||            ; [DPU_3_PIPE] |124|  ; [ORIG 16-BIT INS]
    1291                            ; BRANCHCC OCCURS {||$C$L15||}   ; [] |124| 
    1292                    ;* --------------------------------------------------------------------------*
    1293                            .dwpsn  file "../UART.c",line 125,column 3,is_stmt,isa 1
    1294                    ;----------------------------------------------------------------------
    1295                    ; 125 | return(letter);                                                        
    1296                    ;----------------------------------------------------------------------
    1297 0000021e 0000F89D          LDRB      A1, [SP, #0]          ; [DPU_3_PIPE] |125|  ; [KEEP 32-BIT INS]
    1298                            .dwpsn  file "../UART.c",line 126,column 1,is_stmt,isa 1
    1299                    $C$DW$80        .dwtag  DW_TAG_TI_branch
    1300                            .dwattr $C$DW$80, DW_AT_low_pc(0x00)
    1301                            .dwattr $C$DW$80, DW_AT_TI_return
    1302 00000222 BD08              POP       {A4, PC}              ; [DPU_3_PIPE]  ; [ORIG 16-BIT INS]
    1303                            .dwcfi  cfa_offset, 0
    1304                            ; BRANCH OCCURS                  ; [] 
    1305                            .dwattr $C$DW$77, DW_AT_TI_end_file("../UART.c")
    1306                            .dwattr $C$DW$77, DW_AT_TI_end_line(0x7e)
    1307                            .dwattr $C$DW$77, DW_AT_TI_end_column(0x01)
    1308                            .dwendentry
    1309                            .dwendtag $C$DW$77
    1310                    
    1311 00000224                   .sect   ".text"
    1312                            .clink
    1313                            .thumbfunc UART_InCharNonBlock
    1314 00000224                   .thumb
    1315                            .global UART_InCharNonBlock
    1316                    
    1317                    $C$DW$81        .dwtag  DW_TAG_subprogram, DW_AT_name("UART_InCharNonBlock")
    1318                            .dwattr $C$DW$81, DW_AT_low_pc(UART_InCharNonBlock)
    1319                            .dwattr $C$DW$81, DW_AT_high_pc(0x00)
    1320                            .dwattr $C$DW$81, DW_AT_TI_symbol_name("UART_InCharNonBlock")
TI ARM Assembler PC v5.2.4 Sat Feb 06 22:51:20 2016

Tools Copyright (c) 1996-2015 Texas Instruments Incorporated
UART.asm                                                             PAGE   25

    1321                            .dwattr $C$DW$81, DW_AT_external
    1322                            .dwattr $C$DW$81, DW_AT_type(*$C$DW$T$6)
    1323                            .dwattr $C$DW$81, DW_AT_TI_begin_file("../UART.c")
    1324                            .dwattr $C$DW$81, DW_AT_TI_begin_line(0x84)
    1325                            .dwattr $C$DW$81, DW_AT_TI_begin_column(0x06)
    1326                            .dwattr $C$DW$81, DW_AT_decl_file("../UART.c")
    1327                            .dwattr $C$DW$81, DW_AT_decl_line(0x84)
    1328                            .dwattr $C$DW$81, DW_AT_decl_column(0x06)
    1329                            .dwattr $C$DW$81, DW_AT_TI_max_frame_size(0x08)
    1330                            .dwpsn  file "../UART.c",line 132,column 31,is_stmt,address UART_InCharNonBlock,isa 1
    1331                    
    1332                            .dwfde $C$DW$CIE, UART_InCharNonBlock
    1333                    ;----------------------------------------------------------------------
    1334                    ; 132 | char UART_InCharNonBlock(void){                                        
    1335                    ; 133 | char letter;                                                           
    1336                    ;----------------------------------------------------------------------
    1337                    
    1338                    ;*****************************************************************************
    1339                    ;* FUNCTION NAME: UART_InCharNonBlock                                        *
    1340                    ;*                                                                           *
    1341                    ;*   Regs Modified     : A1,A2,A3,A4,SP,LR,SR,FPEXC,FPSCR                    *
    1342                    ;*   Regs Used         : A1,A2,A3,A4,SP,LR,SR,FPEXC,FPSCR                    *
    1343                    ;*   Local Frame Size  : 0 Args + 4 Auto + 4 Save = 8 byte                   *
    1344                    ;*****************************************************************************
    1345 00000224           UART_InCharNonBlock:
    1346                    ;* --------------------------------------------------------------------------*
    1347                            .dwcfi  cfa_offset, 0
    1348 00000224 B508              PUSH      {A4, LR}              ; [DPU_3_PIPE]  ; [ORIG 16-BIT INS]
    1349                            .dwcfi  cfa_offset, 8
    1350                            .dwcfi  save_reg_to_mem, 14, -4
    1351                            .dwcfi  save_reg_to_mem, 3, -8
    1352                    $C$DW$82        .dwtag  DW_TAG_variable, DW_AT_name("letter")
    1353                            .dwattr $C$DW$82, DW_AT_TI_symbol_name("letter")
    1354                            .dwattr $C$DW$82, DW_AT_type(*$C$DW$T$6)
    1355                            .dwattr $C$DW$82, DW_AT_location[DW_OP_breg13 0]
    1356                            .dwpsn  file "../UART.c",line 134,column 3,is_stmt,isa 1
    1357                    ;----------------------------------------------------------------------
    1358                    ; 134 | if(RxFifo_Get(&letter) == FIFOFAIL){                                   
    1359                    ;----------------------------------------------------------------------
    1360 00000226 4668              MOV       A1, SP                ; [DPU_3_PIPE] |134|  ; [ORIG 16-BIT INS]
    1361                    $C$DW$83        .dwtag  DW_TAG_TI_branch
    1362                            .dwattr $C$DW$83, DW_AT_low_pc(0x00)
    1363                            .dwattr $C$DW$83, DW_AT_name("RxFifo_Get")
    1364                            .dwattr $C$DW$83, DW_AT_TI_call
    1365 00000228 FF12F7FF          BL        RxFifo_Get            ; [DPU_3_PIPE] |134|  ; [KEEP 32-BIT INS]
    1366                            ; CALL OCCURS {RxFifo_Get }      ; [] |134| 
    1367 0000022c B908              CBNZ      A1, ||$C$L16||        ; []  ; [ORIG 16-BIT INS]
    1368                            ; BRANCHCC OCCURS {||$C$L16||}   ; [] |134| 
    1369                    ;* --------------------------------------------------------------------------*
    1370                            .dwpsn  file "../UART.c",line 135,column 5,is_stmt,isa 1
    1371                    ;----------------------------------------------------------------------
    1372                    ; 135 | return 0;  // empty                                                    
    1373                    ; 136 | };                                                                     
    1374                    ;----------------------------------------------------------------------
    1375 0000022e 2000              MOVS      A1, #0                ; [DPU_3_PIPE] |135|  ; [ORIG 16-BIT INS]
TI ARM Assembler PC v5.2.4 Sat Feb 06 22:51:20 2016

Tools Copyright (c) 1996-2015 Texas Instruments Incorporated
UART.asm                                                             PAGE   26

    1376 00000230 E001              B         ||$C$L17||            ; [DPU_3_PIPE] |135|  ; [ORIG 16-BIT INS]
    1377                            ; BRANCH OCCURS {||$C$L17||}     ; [] |135| 
    1378                    ;* --------------------------------------------------------------------------*
    1379 00000232           ||$C$L16||:    
    1380                            .dwpsn  file "../UART.c",line 137,column 3,is_stmt,isa 1
    1381                    ;----------------------------------------------------------------------
    1382                    ; 137 | return(letter);                                                        
    1383                    ;----------------------------------------------------------------------
    1384 00000232 0000F89D          LDRB      A1, [SP, #0]          ; [DPU_3_PIPE] |137|  ; [KEEP 32-BIT INS]
    1385                    ;* --------------------------------------------------------------------------*
    1386 00000236           ||$C$L17||:    
    1387                            .dwpsn  file "../UART.c",line 138,column 1,is_stmt,isa 1
    1388                    $C$DW$84        .dwtag  DW_TAG_TI_branch
    1389                            .dwattr $C$DW$84, DW_AT_low_pc(0x00)
    1390                            .dwattr $C$DW$84, DW_AT_TI_return
    1391 00000236 BD08              POP       {A4, PC}              ; [DPU_3_PIPE]  ; [ORIG 16-BIT INS]
    1392                            .dwcfi  cfa_offset, 0
    1393                            ; BRANCH OCCURS                  ; [] 
    1394                            .dwattr $C$DW$81, DW_AT_TI_end_file("../UART.c")
    1395                            .dwattr $C$DW$81, DW_AT_TI_end_line(0x8a)
    1396                            .dwattr $C$DW$81, DW_AT_TI_end_column(0x01)
    1397                            .dwendentry
    1398                            .dwendtag $C$DW$81
    1399                    
    1400 00000238                   .sect   ".text"
    1401                            .clink
    1402                            .thumbfunc UART_OutChar
    1403 00000238                   .thumb
    1404                            .global UART_OutChar
    1405                    
    1406                    $C$DW$85        .dwtag  DW_TAG_subprogram, DW_AT_name("UART_OutChar")
    1407                            .dwattr $C$DW$85, DW_AT_low_pc(UART_OutChar)
    1408                            .dwattr $C$DW$85, DW_AT_high_pc(0x00)
    1409                            .dwattr $C$DW$85, DW_AT_TI_symbol_name("UART_OutChar")
    1410                            .dwattr $C$DW$85, DW_AT_external
    1411                            .dwattr $C$DW$85, DW_AT_TI_begin_file("../UART.c")
    1412                            .dwattr $C$DW$85, DW_AT_TI_begin_line(0x91)
    1413                            .dwattr $C$DW$85, DW_AT_TI_begin_column(0x06)
    1414                            .dwattr $C$DW$85, DW_AT_decl_file("../UART.c")
    1415                            .dwattr $C$DW$85, DW_AT_decl_line(0x91)
    1416                            .dwattr $C$DW$85, DW_AT_decl_column(0x06)
    1417                            .dwattr $C$DW$85, DW_AT_TI_max_frame_size(0x08)
    1418                            .dwpsn  file "../UART.c",line 145,column 29,is_stmt,address UART_OutChar,isa 1
    1419                    
    1420                            .dwfde $C$DW$CIE, UART_OutChar
    1421                    $C$DW$86        .dwtag  DW_TAG_formal_parameter, DW_AT_name("data")
    1422                            .dwattr $C$DW$86, DW_AT_TI_symbol_name("data")
    1423                            .dwattr $C$DW$86, DW_AT_type(*$C$DW$T$6)
    1424                            .dwattr $C$DW$86, DW_AT_location[DW_OP_reg0]
    1425                    
    1426                    ;*****************************************************************************
    1427                    ;* FUNCTION NAME: UART_OutChar                                               *
    1428                    ;*                                                                           *
    1429                    ;*   Regs Modified     : A1,A2,A3,A4,SP,LR,SR,FPEXC,FPSCR                    *
    1430                    ;*   Regs Used         : A1,A2,A3,A4,SP,LR,SR,FPEXC,FPSCR                    *
TI ARM Assembler PC v5.2.4 Sat Feb 06 22:51:20 2016

Tools Copyright (c) 1996-2015 Texas Instruments Incorporated
UART.asm                                                             PAGE   27

    1431                    ;*   Local Frame Size  : 0 Args + 4 Auto + 4 Save = 8 byte                   *
    1432                    ;*****************************************************************************
    1433 00000238           UART_OutChar:
    1434                    ;* --------------------------------------------------------------------------*
    1435                            .dwcfi  cfa_offset, 0
    1436 00000238 B508              PUSH      {A4, LR}              ; [DPU_3_PIPE]  ; [ORIG 16-BIT INS]
    1437                            .dwcfi  cfa_offset, 8
    1438                            .dwcfi  save_reg_to_mem, 14, -4
    1439                            .dwcfi  save_reg_to_mem, 3, -8
    1440                    $C$DW$87        .dwtag  DW_TAG_variable, DW_AT_name("data")
    1441                            .dwattr $C$DW$87, DW_AT_TI_symbol_name("data")
    1442                            .dwattr $C$DW$87, DW_AT_type(*$C$DW$T$6)
    1443                            .dwattr $C$DW$87, DW_AT_location[DW_OP_breg13 0]
    1444                    ;----------------------------------------------------------------------
    1445                    ; 145 | void UART_OutChar(char data){                                          
    1446                    ;----------------------------------------------------------------------
    1447 0000023a 0000F88D          STRB      A1, [SP, #0]          ; [DPU_3_PIPE] |145|  ; [KEEP 32-BIT INS]
    1448                            .dwpsn  file "../UART.c",line 146,column 3,is_stmt,isa 1
    1449                    ;----------------------------------------------------------------------
    1450                    ; 146 | while(TxFifo_Put(data) == FIFOFAIL){};                                 
    1451                    ;----------------------------------------------------------------------
    1452                    ;* --------------------------------------------------------------------------*
    1453                    ;*   BEGIN LOOP ||$C$L18||
    1454                    ;*
    1455                    ;*   Loop source line                : 146
    1456                    ;*   Loop closing brace source line  : 146
    1457                    ;*   Known Minimum Trip Count        : 1
    1458                    ;*   Known Maximum Trip Count        : 4294967295
    1459                    ;*   Known Max Trip Count Factor     : 1
    1460                    ;* --------------------------------------------------------------------------*
    1461 0000023e           ||$C$L18||:    
    1462                            .dwpsn  file "../UART.c",line 146,column 9,is_stmt,isa 1
    1463 0000023e 0000F89D          LDRB      A1, [SP, #0]          ; [DPU_3_PIPE] |146|  ; [KEEP 32-BIT INS]
    1464                    $C$DW$88        .dwtag  DW_TAG_TI_branch
    1465                            .dwattr $C$DW$88, DW_AT_low_pc(0x00)
    1466                            .dwattr $C$DW$88, DW_AT_name("TxFifo_Put")
    1467                            .dwattr $C$DW$88, DW_AT_TI_call
    1468 00000242 FF33F7FF          BL        TxFifo_Put            ; [DPU_3_PIPE] |146|  ; [KEEP 32-BIT INS]
    1469                            ; CALL OCCURS {TxFifo_Put }      ; [] |146| 
    1470 00000246 2800              CMP       A1, #0                ; [DPU_3_PIPE] |146|  ; [ORIG 16-BIT INS]
    1471 00000248 D0F9              BEQ       ||$C$L18||            ; [DPU_3_PIPE] |146|  ; [ORIG 16-BIT INS]
    1472                            ; BRANCHCC OCCURS {||$C$L18||}   ; [] |146| 
    1473                    ;* --------------------------------------------------------------------------*
    1474                            .dwpsn  file "../UART.c",line 147,column 3,is_stmt,isa 1
    1475                    ;----------------------------------------------------------------------
    1476                    ; 147 | UART0_IM_R &= ~UART_IM_TXIM;          // disable TX FIFO interrupt     
    1477                    ;----------------------------------------------------------------------
    1478 0000024a 4965              LDR       A2, $C$CON14          ; [DPU_3_PIPE] |147|  ; [ORIG 16-BIT INS]
    1479 0000024c 6808              LDR       A1, [A2, #0]          ; [DPU_3_PIPE] |147|  ; [ORIG 16-BIT INS]
    1480 0000024e 0020F020          BIC       A1, A1, #32           ; [DPU_3_PIPE] |147|  ; [KEEP 32-BIT INS]
    1481 00000252 6008              STR       A1, [A2, #0]          ; [DPU_3_PIPE] |147|  ; [ORIG 16-BIT INS]
    1482                            .dwpsn  file "../UART.c",line 148,column 3,is_stmt,isa 1
    1483                    ;----------------------------------------------------------------------
    1484                    ; 148 | copySoftwareToHardware();                                              
    1485                    ;----------------------------------------------------------------------
TI ARM Assembler PC v5.2.4 Sat Feb 06 22:51:20 2016

Tools Copyright (c) 1996-2015 Texas Instruments Incorporated
UART.asm                                                             PAGE   28

    1486                    $C$DW$89        .dwtag  DW_TAG_TI_branch
    1487                            .dwattr $C$DW$89, DW_AT_low_pc(0x00)
    1488                            .dwattr $C$DW$89, DW_AT_name("copySoftwareToHardware")
    1489                            .dwattr $C$DW$89, DW_AT_TI_call
    1490 00000254 FFCBF7FF          BL        copySoftwareToHardware ; [DPU_3_PIPE] |148|  ; [KEEP 32-BIT INS]
    1491                            ; CALL OCCURS {copySoftwareToHardware }  ; [] |148| 
    1492                            .dwpsn  file "../UART.c",line 149,column 3,is_stmt,isa 1
    1493                    ;----------------------------------------------------------------------
    1494                    ; 149 | UART0_IM_R |= UART_IM_TXIM;           // enable TX FIFO interrupt      
    1495                    ;----------------------------------------------------------------------
    1496 00000258 4961              LDR       A2, $C$CON14          ; [DPU_3_PIPE] |149|  ; [ORIG 16-BIT INS]
    1497 0000025a 6808              LDR       A1, [A2, #0]          ; [DPU_3_PIPE] |149|  ; [ORIG 16-BIT INS]
    1498 0000025c 0020F040          ORR       A1, A1, #32           ; [DPU_3_PIPE] |149|  ; [KEEP 32-BIT INS]
    1499 00000260 6008              STR       A1, [A2, #0]          ; [DPU_3_PIPE] |149|  ; [ORIG 16-BIT INS]
    1500                            .dwpsn  file "../UART.c",line 150,column 1,is_stmt,isa 1
    1501                    $C$DW$90        .dwtag  DW_TAG_TI_branch
    1502                            .dwattr $C$DW$90, DW_AT_low_pc(0x00)
    1503                            .dwattr $C$DW$90, DW_AT_TI_return
    1504 00000262 BD08              POP       {A4, PC}              ; [DPU_3_PIPE]  ; [ORIG 16-BIT INS]
    1505                            .dwcfi  cfa_offset, 0
    1506                            ; BRANCH OCCURS                  ; [] 
    1507                            .dwattr $C$DW$85, DW_AT_TI_end_file("../UART.c")
    1508                            .dwattr $C$DW$85, DW_AT_TI_end_line(0x96)
    1509                            .dwattr $C$DW$85, DW_AT_TI_end_column(0x01)
    1510                            .dwendentry
    1511                            .dwendtag $C$DW$85
    1512                    
    1513 00000264                   .sect   ".text"
    1514                            .clink
    1515                            .thumbfunc UART_OutCharNonBlock
    1516 00000264                   .thumb
    1517                            .global UART_OutCharNonBlock
    1518                    
    1519                    $C$DW$91        .dwtag  DW_TAG_subprogram, DW_AT_name("UART_OutCharNonBlock")
    1520                            .dwattr $C$DW$91, DW_AT_low_pc(UART_OutCharNonBlock)
    1521                            .dwattr $C$DW$91, DW_AT_high_pc(0x00)
    1522                            .dwattr $C$DW$91, DW_AT_TI_symbol_name("UART_OutCharNonBlock")
    1523                            .dwattr $C$DW$91, DW_AT_external
    1524                            .dwattr $C$DW$91, DW_AT_TI_begin_file("../UART.c")
    1525                            .dwattr $C$DW$91, DW_AT_TI_begin_line(0x9c)
    1526                            .dwattr $C$DW$91, DW_AT_TI_begin_column(0x06)
    1527                            .dwattr $C$DW$91, DW_AT_decl_file("../UART.c")
    1528                            .dwattr $C$DW$91, DW_AT_decl_line(0x9c)
    1529                            .dwattr $C$DW$91, DW_AT_decl_column(0x06)
    1530                            .dwattr $C$DW$91, DW_AT_TI_max_frame_size(0x08)
    1531                            .dwpsn  file "../UART.c",line 156,column 37,is_stmt,address UART_OutCharNonBlock,isa 1
    1532                    
    1533                            .dwfde $C$DW$CIE, UART_OutCharNonBlock
    1534                    $C$DW$92        .dwtag  DW_TAG_formal_parameter, DW_AT_name("data")
    1535                            .dwattr $C$DW$92, DW_AT_TI_symbol_name("data")
    1536                            .dwattr $C$DW$92, DW_AT_type(*$C$DW$T$6)
    1537                            .dwattr $C$DW$92, DW_AT_location[DW_OP_reg0]
    1538                    
    1539                    ;*****************************************************************************
    1540                    ;* FUNCTION NAME: UART_OutCharNonBlock                                       *
TI ARM Assembler PC v5.2.4 Sat Feb 06 22:51:20 2016

Tools Copyright (c) 1996-2015 Texas Instruments Incorporated
UART.asm                                                             PAGE   29

    1541                    ;*                                                                           *
    1542                    ;*   Regs Modified     : A1,A2,A3,A4,SP,LR,SR,FPEXC,FPSCR                    *
    1543                    ;*   Regs Used         : A1,A2,A3,A4,SP,LR,SR,FPEXC,FPSCR                    *
    1544                    ;*   Local Frame Size  : 0 Args + 4 Auto + 4 Save = 8 byte                   *
    1545                    ;*****************************************************************************
    1546 00000264           UART_OutCharNonBlock:
    1547                    ;* --------------------------------------------------------------------------*
    1548                            .dwcfi  cfa_offset, 0
    1549 00000264 B508              PUSH      {A4, LR}              ; [DPU_3_PIPE]  ; [ORIG 16-BIT INS]
    1550                            .dwcfi  cfa_offset, 8
    1551                            .dwcfi  save_reg_to_mem, 14, -4
    1552                            .dwcfi  save_reg_to_mem, 3, -8
    1553                    $C$DW$93        .dwtag  DW_TAG_variable, DW_AT_name("data")
    1554                            .dwattr $C$DW$93, DW_AT_TI_symbol_name("data")
    1555                            .dwattr $C$DW$93, DW_AT_type(*$C$DW$T$6)
    1556                            .dwattr $C$DW$93, DW_AT_location[DW_OP_breg13 0]
    1557                    ;----------------------------------------------------------------------
    1558                    ; 156 | void UART_OutCharNonBlock(char data){                                  
    1559                    ;----------------------------------------------------------------------
    1560 00000266 0000F88D          STRB      A1, [SP, #0]          ; [DPU_3_PIPE] |156|  ; [KEEP 32-BIT INS]
    1561                            .dwpsn  file "../UART.c",line 157,column 3,is_stmt,isa 1
    1562                    ;----------------------------------------------------------------------
    1563                    ; 157 | if(TxFifo_Put(data) == FIFOFAIL) return; // lost data                  
    1564                    ;----------------------------------------------------------------------
    1565 0000026a 0000F89D          LDRB      A1, [SP, #0]          ; [DPU_3_PIPE] |157|  ; [KEEP 32-BIT INS]
    1566                    $C$DW$94        .dwtag  DW_TAG_TI_branch
    1567                            .dwattr $C$DW$94, DW_AT_low_pc(0x00)
    1568                            .dwattr $C$DW$94, DW_AT_name("TxFifo_Put")
    1569                            .dwattr $C$DW$94, DW_AT_TI_call
    1570 0000026e FF1DF7FF          BL        TxFifo_Put            ; [DPU_3_PIPE] |157|  ; [KEEP 32-BIT INS]
    1571                            ; CALL OCCURS {TxFifo_Put }      ; [] |157| 
    1572 00000272 B158              CBZ       A1, ||$C$L19||        ; []  ; [ORIG 16-BIT INS]
    1573                            ; BRANCHCC OCCURS {||$C$L19||}   ; [] |157| 
    1574                    ;* --------------------------------------------------------------------------*
    1575                            .dwpsn  file "../UART.c",line 157,column 36,is_stmt,isa 1
    1576                            .dwpsn  file "../UART.c",line 158,column 3,is_stmt,isa 1
    1577                    ;----------------------------------------------------------------------
    1578                    ; 158 | UART0_IM_R &= ~UART_IM_TXIM;          // disable TX FIFO interrupt     
    1579                    ;----------------------------------------------------------------------
    1580 00000274 495A              LDR       A2, $C$CON14          ; [DPU_3_PIPE] |158|  ; [ORIG 16-BIT INS]
    1581 00000276 6808              LDR       A1, [A2, #0]          ; [DPU_3_PIPE] |158|  ; [ORIG 16-BIT INS]
    1582 00000278 0020F020          BIC       A1, A1, #32           ; [DPU_3_PIPE] |158|  ; [KEEP 32-BIT INS]
    1583 0000027c 6008              STR       A1, [A2, #0]          ; [DPU_3_PIPE] |158|  ; [ORIG 16-BIT INS]
    1584                            .dwpsn  file "../UART.c",line 159,column 3,is_stmt,isa 1
    1585                    ;----------------------------------------------------------------------
    1586                    ; 159 | copySoftwareToHardware();                                              
    1587                    ;----------------------------------------------------------------------
    1588                    $C$DW$95        .dwtag  DW_TAG_TI_branch
    1589                            .dwattr $C$DW$95, DW_AT_low_pc(0x00)
    1590                            .dwattr $C$DW$95, DW_AT_name("copySoftwareToHardware")
    1591                            .dwattr $C$DW$95, DW_AT_TI_call
    1592 0000027e FFB6F7FF          BL        copySoftwareToHardware ; [DPU_3_PIPE] |159|  ; [KEEP 32-BIT INS]
    1593                            ; CALL OCCURS {copySoftwareToHardware }  ; [] |159| 
    1594                            .dwpsn  file "../UART.c",line 160,column 3,is_stmt,isa 1
    1595                    ;----------------------------------------------------------------------
TI ARM Assembler PC v5.2.4 Sat Feb 06 22:51:20 2016

Tools Copyright (c) 1996-2015 Texas Instruments Incorporated
UART.asm                                                             PAGE   30

    1596                    ; 160 | UART0_IM_R |= UART_IM_TXIM;           // enable TX FIFO interrupt      
    1597                    ;----------------------------------------------------------------------
    1598 00000282 4957              LDR       A2, $C$CON14          ; [DPU_3_PIPE] |160|  ; [ORIG 16-BIT INS]
    1599 00000284 6808              LDR       A1, [A2, #0]          ; [DPU_3_PIPE] |160|  ; [ORIG 16-BIT INS]
    1600 00000286 0020F040          ORR       A1, A1, #32           ; [DPU_3_PIPE] |160|  ; [KEEP 32-BIT INS]
    1601 0000028a 6008              STR       A1, [A2, #0]          ; [DPU_3_PIPE] |160|  ; [ORIG 16-BIT INS]
    1602                            .dwpsn  file "../UART.c",line 161,column 1,is_stmt,isa 1
    1603                    ;* --------------------------------------------------------------------------*
    1604                    ||$C$L19||:    
    1605                    $C$DW$96        .dwtag  DW_TAG_TI_branch
    1606                            .dwattr $C$DW$96, DW_AT_low_pc(0x00)
    1607                            .dwattr $C$DW$96, DW_AT_TI_return
    1608 0000028c BD08              POP       {A4, PC}              ; [DPU_3_PIPE]  ; [ORIG 16-BIT INS]
    1609                            .dwcfi  cfa_offset, 0
    1610                            ; BRANCH OCCURS                  ; [] 
    1611                            .dwattr $C$DW$91, DW_AT_TI_end_file("../UART.c")
    1612                            .dwattr $C$DW$91, DW_AT_TI_end_line(0xa1)
    1613                            .dwattr $C$DW$91, DW_AT_TI_end_column(0x01)
    1614                            .dwendentry
    1615                            .dwendtag $C$DW$91
    1616                    
    1617 0000028e                   .sect   ".text"
    1618                            .clink
    1619                            .thumbfunc UART0_Handler
    1620 0000028e                   .thumb
    1621                            .global UART0_Handler
    1622                    
    1623                    $C$DW$97        .dwtag  DW_TAG_subprogram, DW_AT_name("UART0_Handler")
    1624                            .dwattr $C$DW$97, DW_AT_low_pc(UART0_Handler)
    1625                            .dwattr $C$DW$97, DW_AT_high_pc(0x00)
    1626                            .dwattr $C$DW$97, DW_AT_TI_symbol_name("UART0_Handler")
    1627                            .dwattr $C$DW$97, DW_AT_external
    1628                            .dwattr $C$DW$97, DW_AT_TI_begin_file("../UART.c")
    1629                            .dwattr $C$DW$97, DW_AT_TI_begin_line(0xa6)
    1630                            .dwattr $C$DW$97, DW_AT_TI_begin_column(0x06)
    1631                            .dwattr $C$DW$97, DW_AT_decl_file("../UART.c")
    1632                            .dwattr $C$DW$97, DW_AT_decl_line(0xa6)
    1633                            .dwattr $C$DW$97, DW_AT_decl_column(0x06)
    1634                            .dwattr $C$DW$97, DW_AT_TI_max_frame_size(0x08)
    1635                            .dwpsn  file "../UART.c",line 166,column 25,is_stmt,address UART0_Handler,isa 1
    1636                    
    1637                            .dwfde $C$DW$CIE, UART0_Handler
    1638                    ;----------------------------------------------------------------------
    1639                    ; 166 | void UART0_Handler(void){                                              
    1640                    ;----------------------------------------------------------------------
    1641                    
    1642                    ;*****************************************************************************
    1643                    ;* FUNCTION NAME: UART0_Handler                                              *
    1644                    ;*                                                                           *
    1645                    ;*   Regs Modified     : A1,A2,A3,A4,SP,LR,SR,FPEXC,FPSCR                    *
    1646                    ;*   Regs Used         : A1,A2,A3,A4,SP,LR,SR,FPEXC,FPSCR                    *
    1647                    ;*   Local Frame Size  : 0 Args + 0 Auto + 4 Save = 4 byte                   *
    1648                    ;*****************************************************************************
    1649 0000028e           UART0_Handler:
    1650                    ;* --------------------------------------------------------------------------*
TI ARM Assembler PC v5.2.4 Sat Feb 06 22:51:20 2016

Tools Copyright (c) 1996-2015 Texas Instruments Incorporated
UART.asm                                                             PAGE   31

    1651                            .dwcfi  cfa_offset, 0
    1652 0000028e B508              PUSH      {A4, LR}              ; [DPU_3_PIPE]  ; [ORIG 16-BIT INS]
    1653                            .dwcfi  cfa_offset, 8
    1654                            .dwcfi  save_reg_to_mem, 14, -4
    1655                            .dwcfi  save_reg_to_mem, 3, -8
    1656                            .dwpsn  file "../UART.c",line 167,column 3,is_stmt,isa 1
    1657                    ;----------------------------------------------------------------------
    1658                    ; 167 | if(UART0_RIS_R&UART_RIS_TXRIS){       // hardware TX FIFO <= 2 items   
    1659                    ;----------------------------------------------------------------------
    1660 00000290 489C              LDR       A1, $C$CON23          ; [DPU_3_PIPE] |167|  ; [ORIG 16-BIT INS]
    1661 00000292 6800              LDR       A1, [A1, #0]          ; [DPU_3_PIPE] |167|  ; [ORIG 16-BIT INS]
    1662 00000294 0980              LSRS      A1, A1, #6            ; [DPU_3_PIPE] |167|  ; [ORIG 16-BIT INS]
    1663 00000296 D30C              BCC       ||$C$L20||            ; [DPU_3_PIPE] |167|  ; [ORIG 16-BIT INS]
    1664                            ; BRANCHCC OCCURS {||$C$L20||}   ; [] |167| 
    1665                    ;* --------------------------------------------------------------------------*
    1666                            .dwpsn  file "../UART.c",line 168,column 5,is_stmt,isa 1
    1667                    ;----------------------------------------------------------------------
    1668                    ; 168 | UART0_ICR_R = UART_ICR_TXIC;        // acknowledge TX FIFO             
    1669                    ; 169 | // copy from software TX FIFO to hardware TX FIFO                      
    1670                    ;----------------------------------------------------------------------
    1671 00000298 499B              LDR       A2, $C$CON24          ; [DPU_3_PIPE] |168|  ; [ORIG 16-BIT INS]
    1672 0000029a 2020              MOVS      A1, #32               ; [DPU_3_PIPE] |168|  ; [ORIG 16-BIT INS]
    1673 0000029c 6008              STR       A1, [A2, #0]          ; [DPU_3_PIPE] |168|  ; [ORIG 16-BIT INS]
    1674                            .dwpsn  file "../UART.c",line 170,column 5,is_stmt,isa 1
    1675                    ;----------------------------------------------------------------------
    1676                    ; 170 | copySoftwareToHardware();                                              
    1677                    ;----------------------------------------------------------------------
    1678                    $C$DW$98        .dwtag  DW_TAG_TI_branch
    1679                            .dwattr $C$DW$98, DW_AT_low_pc(0x00)
    1680                            .dwattr $C$DW$98, DW_AT_name("copySoftwareToHardware")
    1681                            .dwattr $C$DW$98, DW_AT_TI_call
    1682 0000029e FFA6F7FF          BL        copySoftwareToHardware ; [DPU_3_PIPE] |170|  ; [KEEP 32-BIT INS]
    1683                            ; CALL OCCURS {copySoftwareToHardware }  ; [] |170| 
    1684                            .dwpsn  file "../UART.c",line 171,column 5,is_stmt,isa 1
    1685                    ;----------------------------------------------------------------------
    1686                    ; 171 | if(TxFifo_Size() == 0){             // software TX FIFO is empty       
    1687                    ;----------------------------------------------------------------------
    1688                    $C$DW$99        .dwtag  DW_TAG_TI_branch
    1689                            .dwattr $C$DW$99, DW_AT_low_pc(0x00)
    1690                            .dwattr $C$DW$99, DW_AT_name("TxFifo_Size")
    1691                            .dwattr $C$DW$99, DW_AT_TI_call
    1692 000002a2 FF38F7FF          BL        TxFifo_Size           ; [DPU_3_PIPE] |171|  ; [KEEP 32-BIT INS]
    1693                            ; CALL OCCURS {TxFifo_Size }     ; [] |171| 
    1694 000002a6 B920              CBNZ      A1, ||$C$L20||        ; []  ; [ORIG 16-BIT INS]
    1695                            ; BRANCHCC OCCURS {||$C$L20||}   ; [] |171| 
    1696                    ;* --------------------------------------------------------------------------*
    1697                            .dwpsn  file "../UART.c",line 172,column 7,is_stmt,isa 1
    1698                    ;----------------------------------------------------------------------
    1699                    ; 172 | UART0_IM_R &= ~UART_IM_TXIM;      // disable TX FIFO interrupt         
    1700                    ;----------------------------------------------------------------------
    1701 000002a8 494D              LDR       A2, $C$CON14          ; [DPU_3_PIPE] |172|  ; [ORIG 16-BIT INS]
    1702 000002aa 6808              LDR       A1, [A2, #0]          ; [DPU_3_PIPE] |172|  ; [ORIG 16-BIT INS]
    1703 000002ac 0020F020          BIC       A1, A1, #32           ; [DPU_3_PIPE] |172|  ; [KEEP 32-BIT INS]
    1704 000002b0 6008              STR       A1, [A2, #0]          ; [DPU_3_PIPE] |172|  ; [ORIG 16-BIT INS]
    1705                    ;* --------------------------------------------------------------------------*
TI ARM Assembler PC v5.2.4 Sat Feb 06 22:51:20 2016

Tools Copyright (c) 1996-2015 Texas Instruments Incorporated
UART.asm                                                             PAGE   32

    1706 000002b2           ||$C$L20||:    
    1707                            .dwpsn  file "../UART.c",line 175,column 3,is_stmt,isa 1
    1708                    ;----------------------------------------------------------------------
    1709                    ; 175 | if(UART0_RIS_R&UART_RIS_RXRIS){       // hardware RX FIFO >= 2 items   
    1710                    ;----------------------------------------------------------------------
    1711 000002b2 4894              LDR       A1, $C$CON23          ; [DPU_3_PIPE] |175|  ; [ORIG 16-BIT INS]
    1712 000002b4 6800              LDR       A1, [A1, #0]          ; [DPU_3_PIPE] |175|  ; [ORIG 16-BIT INS]
    1713 000002b6 0940              LSRS      A1, A1, #5            ; [DPU_3_PIPE] |175|  ; [ORIG 16-BIT INS]
    1714 000002b8 D304              BCC       ||$C$L21||            ; [DPU_3_PIPE] |175|  ; [ORIG 16-BIT INS]
    1715                            ; BRANCHCC OCCURS {||$C$L21||}   ; [] |175| 
    1716                    ;* --------------------------------------------------------------------------*
    1717                            .dwpsn  file "../UART.c",line 176,column 5,is_stmt,isa 1
    1718                    ;----------------------------------------------------------------------
    1719                    ; 176 | UART0_ICR_R = UART_ICR_RXIC;        // acknowledge RX FIFO             
    1720                    ; 177 | // copy from hardware RX FIFO to software RX FIFO                      
    1721                    ;----------------------------------------------------------------------
    1722 000002ba 4993              LDR       A2, $C$CON24          ; [DPU_3_PIPE] |176|  ; [ORIG 16-BIT INS]
    1723 000002bc 2010              MOVS      A1, #16               ; [DPU_3_PIPE] |176|  ; [ORIG 16-BIT INS]
    1724 000002be 6008              STR       A1, [A2, #0]          ; [DPU_3_PIPE] |176|  ; [ORIG 16-BIT INS]
    1725                            .dwpsn  file "../UART.c",line 178,column 5,is_stmt,isa 1
    1726                    ;----------------------------------------------------------------------
    1727                    ; 178 | copyHardwareToSoftware();                                              
    1728                    ;----------------------------------------------------------------------
    1729                    $C$DW$100       .dwtag  DW_TAG_TI_branch
    1730                            .dwattr $C$DW$100, DW_AT_low_pc(0x00)
    1731                            .dwattr $C$DW$100, DW_AT_name("copyHardwareToSoftware")
    1732                            .dwattr $C$DW$100, DW_AT_TI_call
    1733 000002c0 FF80F7FF          BL        copyHardwareToSoftware ; [DPU_3_PIPE] |178|  ; [KEEP 32-BIT INS]
    1734                            ; CALL OCCURS {copyHardwareToSoftware }  ; [] |178| 
    1735                    ;* --------------------------------------------------------------------------*
    1736 000002c4           ||$C$L21||:    
    1737                            .dwpsn  file "../UART.c",line 180,column 3,is_stmt,isa 1
    1738                    ;----------------------------------------------------------------------
    1739                    ; 180 | if(UART0_RIS_R&UART_RIS_RTRIS){       // receiver timed out            
    1740                    ;----------------------------------------------------------------------
    1741 000002c4 488F              LDR       A1, $C$CON23          ; [DPU_3_PIPE] |180|  ; [ORIG 16-BIT INS]
    1742 000002c6 6800              LDR       A1, [A1, #0]          ; [DPU_3_PIPE] |180|  ; [ORIG 16-BIT INS]
    1743 000002c8 09C0              LSRS      A1, A1, #7            ; [DPU_3_PIPE] |180|  ; [ORIG 16-BIT INS]
    1744 000002ca D304              BCC       ||$C$L22||            ; [DPU_3_PIPE] |180|  ; [ORIG 16-BIT INS]
    1745                            ; BRANCHCC OCCURS {||$C$L22||}   ; [] |180| 
    1746                    ;* --------------------------------------------------------------------------*
    1747                            .dwpsn  file "../UART.c",line 181,column 5,is_stmt,isa 1
    1748                    ;----------------------------------------------------------------------
    1749                    ; 181 | UART0_ICR_R = UART_ICR_RTIC;        // acknowledge receiver time out   
    1750                    ; 182 | // copy from hardware RX FIFO to software RX FIFO                      
    1751                    ;----------------------------------------------------------------------
    1752 000002cc 498E              LDR       A2, $C$CON24          ; [DPU_3_PIPE] |181|  ; [ORIG 16-BIT INS]
    1753 000002ce 2040              MOVS      A1, #64               ; [DPU_3_PIPE] |181|  ; [ORIG 16-BIT INS]
    1754 000002d0 6008              STR       A1, [A2, #0]          ; [DPU_3_PIPE] |181|  ; [ORIG 16-BIT INS]
    1755                            .dwpsn  file "../UART.c",line 183,column 5,is_stmt,isa 1
    1756                    ;----------------------------------------------------------------------
    1757                    ; 183 | copyHardwareToSoftware();                                              
    1758                    ;----------------------------------------------------------------------
    1759                    $C$DW$101       .dwtag  DW_TAG_TI_branch
    1760                            .dwattr $C$DW$101, DW_AT_low_pc(0x00)
TI ARM Assembler PC v5.2.4 Sat Feb 06 22:51:20 2016

Tools Copyright (c) 1996-2015 Texas Instruments Incorporated
UART.asm                                                             PAGE   33

    1761                            .dwattr $C$DW$101, DW_AT_name("copyHardwareToSoftware")
    1762                            .dwattr $C$DW$101, DW_AT_TI_call
    1763 000002d2 FF77F7FF          BL        copyHardwareToSoftware ; [DPU_3_PIPE] |183|  ; [KEEP 32-BIT INS]
    1764                            ; CALL OCCURS {copyHardwareToSoftware }  ; [] |183| 
    1765                            .dwpsn  file "../UART.c",line 185,column 1,is_stmt,isa 1
    1766                    ;* --------------------------------------------------------------------------*
    1767                    ||$C$L22||:    
    1768                    $C$DW$102       .dwtag  DW_TAG_TI_branch
    1769                            .dwattr $C$DW$102, DW_AT_low_pc(0x00)
    1770                            .dwattr $C$DW$102, DW_AT_TI_return
    1771 000002d6 BD08              POP       {A4, PC}              ; [DPU_3_PIPE]  ; [ORIG 16-BIT INS]
    1772                            .dwcfi  cfa_offset, 0
    1773                            ; BRANCH OCCURS                  ; [] 
    1774                            .dwattr $C$DW$97, DW_AT_TI_end_file("../UART.c")
    1775                            .dwattr $C$DW$97, DW_AT_TI_end_line(0xb9)
    1776                            .dwattr $C$DW$97, DW_AT_TI_end_column(0x01)
    1777                            .dwendentry
    1778                            .dwendtag $C$DW$97
    1779                    
    1780 000002d8                   .sect   ".text"
    1781                            .clink
    1782                            .thumbfunc UART_OutString
    1783 000002d8                   .thumb
    1784                            .global UART_OutString
    1785                    
    1786                    $C$DW$103       .dwtag  DW_TAG_subprogram, DW_AT_name("UART_OutString")
    1787                            .dwattr $C$DW$103, DW_AT_low_pc(UART_OutString)
    1788                            .dwattr $C$DW$103, DW_AT_high_pc(0x00)
    1789                            .dwattr $C$DW$103, DW_AT_TI_symbol_name("UART_OutString")
    1790                            .dwattr $C$DW$103, DW_AT_external
    1791                            .dwattr $C$DW$103, DW_AT_TI_begin_file("../UART.c")
    1792                            .dwattr $C$DW$103, DW_AT_TI_begin_line(0xbf)
    1793                            .dwattr $C$DW$103, DW_AT_TI_begin_column(0x06)
    1794                            .dwattr $C$DW$103, DW_AT_decl_file("../UART.c")
    1795                            .dwattr $C$DW$103, DW_AT_decl_line(0xbf)
    1796                            .dwattr $C$DW$103, DW_AT_decl_column(0x06)
    1797                            .dwattr $C$DW$103, DW_AT_TI_max_frame_size(0x08)
    1798                            .dwpsn  file "../UART.c",line 191,column 30,is_stmt,address UART_OutString,isa 1
    1799                    
    1800                            .dwfde $C$DW$CIE, UART_OutString
    1801                    $C$DW$104       .dwtag  DW_TAG_formal_parameter, DW_AT_name("pt")
    1802                            .dwattr $C$DW$104, DW_AT_TI_symbol_name("pt")
    1803                            .dwattr $C$DW$104, DW_AT_type(*$C$DW$T$38)
    1804                            .dwattr $C$DW$104, DW_AT_location[DW_OP_reg0]
    1805                    
    1806                    ;*****************************************************************************
    1807                    ;* FUNCTION NAME: UART_OutString                                             *
    1808                    ;*                                                                           *
    1809                    ;*   Regs Modified     : A1,A2,A3,A4,SP,LR,SR,FPEXC,FPSCR                    *
    1810                    ;*   Regs Used         : A1,A2,A3,A4,SP,LR,SR,FPEXC,FPSCR                    *
    1811                    ;*   Local Frame Size  : 0 Args + 4 Auto + 4 Save = 8 byte                   *
    1812                    ;*****************************************************************************
    1813 000002d8           UART_OutString:
    1814                    ;* --------------------------------------------------------------------------*
    1815                            .dwcfi  cfa_offset, 0
TI ARM Assembler PC v5.2.4 Sat Feb 06 22:51:20 2016

Tools Copyright (c) 1996-2015 Texas Instruments Incorporated
UART.asm                                                             PAGE   34

    1816 000002d8 B508              PUSH      {A4, LR}              ; [DPU_3_PIPE]  ; [ORIG 16-BIT INS]
    1817                            .dwcfi  cfa_offset, 8
    1818                            .dwcfi  save_reg_to_mem, 14, -4
    1819                            .dwcfi  save_reg_to_mem, 3, -8
    1820                    $C$DW$105       .dwtag  DW_TAG_variable, DW_AT_name("pt")
    1821                            .dwattr $C$DW$105, DW_AT_TI_symbol_name("pt")
    1822                            .dwattr $C$DW$105, DW_AT_type(*$C$DW$T$38)
    1823                            .dwattr $C$DW$105, DW_AT_location[DW_OP_breg13 0]
    1824                    ;----------------------------------------------------------------------
    1825                    ; 191 | void UART_OutString(char *pt){                                         
    1826                    ;----------------------------------------------------------------------
    1827 000002da 9000              STR       A1, [SP, #0]          ; [DPU_3_PIPE] |191|  ; [ORIG 16-BIT INS]
    1828                            .dwpsn  file "../UART.c",line 192,column 3,is_stmt,isa 1
    1829                    ;----------------------------------------------------------------------
    1830                    ; 192 | while(*pt){                                                            
    1831                    ;----------------------------------------------------------------------
    1832 000002dc E006              B         ||$C$L24||            ; [DPU_3_PIPE] |192|  ; [ORIG 16-BIT INS]
    1833                            ; BRANCH OCCURS {||$C$L24||}     ; [] |192| 
    1834                    ;* --------------------------------------------------------------------------*
    1835 000002de           ||$C$L23||:    
    1836                            .dwpsn  file "../UART.c",line 193,column 5,is_stmt,isa 1
    1837                    ;----------------------------------------------------------------------
    1838                    ; 193 | UART_OutChar(*pt);                                                     
    1839                    ;----------------------------------------------------------------------
    1840 000002de 9800              LDR       A1, [SP, #0]          ; [DPU_3_PIPE] |193|  ; [ORIG 16-BIT INS]
    1841 000002e0 7800              LDRB      A1, [A1, #0]          ; [DPU_3_PIPE] |193|  ; [ORIG 16-BIT INS]
    1842                    $C$DW$106       .dwtag  DW_TAG_TI_branch
    1843                            .dwattr $C$DW$106, DW_AT_low_pc(0x00)
    1844                            .dwattr $C$DW$106, DW_AT_name("UART_OutChar")
    1845                            .dwattr $C$DW$106, DW_AT_TI_call
    1846 000002e2 FFA9F7FF          BL        UART_OutChar          ; [DPU_3_PIPE] |193|  ; [KEEP 32-BIT INS]
    1847                            ; CALL OCCURS {UART_OutChar }    ; [] |193| 
    1848                            .dwpsn  file "../UART.c",line 194,column 5,is_stmt,isa 1
    1849                    ;----------------------------------------------------------------------
    1850                    ; 194 | pt++;                                                                  
    1851                    ;----------------------------------------------------------------------
    1852 000002e6 9800              LDR       A1, [SP, #0]          ; [DPU_3_PIPE] |194|  ; [ORIG 16-BIT INS]
    1853 000002e8 1C40              ADDS      A1, A1, #1            ; [DPU_3_PIPE] |194|  ; [ORIG 16-BIT INS]
    1854 000002ea 9000              STR       A1, [SP, #0]          ; [DPU_3_PIPE] |194|  ; [ORIG 16-BIT INS]
    1855                    ;* --------------------------------------------------------------------------*
    1856                    ;*   BEGIN LOOP ||$C$L24||
    1857                    ;* --------------------------------------------------------------------------*
    1858 000002ec           ||$C$L24||:    
    1859                            .dwpsn  file "../UART.c",line 192,column 3,is_stmt,isa 1
    1860 000002ec 9800              LDR       A1, [SP, #0]          ; [DPU_3_PIPE] |192|  ; [ORIG 16-BIT INS]
    1861 000002ee 7800              LDRB      A1, [A1, #0]          ; [DPU_3_PIPE] |192|  ; [ORIG 16-BIT INS]
    1862 000002f0 2800              CMP       A1, #0                ; [DPU_3_PIPE] |192|  ; [ORIG 16-BIT INS]
    1863 000002f2 D1F4              BNE       ||$C$L23||            ; [DPU_3_PIPE] |192|  ; [ORIG 16-BIT INS]
    1864                            ; BRANCHCC OCCURS {||$C$L23||}   ; [] |192| 
    1865                    ;* --------------------------------------------------------------------------*
    1866                            .dwpsn  file "../UART.c",line 196,column 1,is_stmt,isa 1
    1867                    $C$DW$107       .dwtag  DW_TAG_TI_branch
    1868                            .dwattr $C$DW$107, DW_AT_low_pc(0x00)
    1869                            .dwattr $C$DW$107, DW_AT_TI_return
    1870 000002f4 BD08              POP       {A4, PC}              ; [DPU_3_PIPE]  ; [ORIG 16-BIT INS]
TI ARM Assembler PC v5.2.4 Sat Feb 06 22:51:20 2016

Tools Copyright (c) 1996-2015 Texas Instruments Incorporated
UART.asm                                                             PAGE   35

    1871                            .dwcfi  cfa_offset, 0
    1872                            ; BRANCH OCCURS                  ; [] 
    1873                            .dwattr $C$DW$103, DW_AT_TI_end_file("../UART.c")
    1874                            .dwattr $C$DW$103, DW_AT_TI_end_line(0xc4)
    1875                            .dwattr $C$DW$103, DW_AT_TI_end_column(0x01)
    1876                            .dwendentry
    1877                            .dwendtag $C$DW$103
    1878                    
    1879                    ;******************************************************************************
    1880                    ;* CONSTANT TABLE                                                             *
    1881                    ;******************************************************************************
    1882 000002f6                   .sect   ".text"
    1883                            .align  4
    1884 000002f6 000046C0! ||$C$CON1||:    .bits   RxPutI,32
         000002fa 00000000 
    1885                            .align  4
    1886 000002fa 00000000! ||$C$CON2||:    .bits   RxGetI,32
         000002fe 00000000 
    1887                            .align  4
    1888 000002fe 00000000! ||$C$CON3||:    .bits   RxFifo,32
         00000302 00000000 
    1889 00000304                   .sect   ".text"
    1890                            .clink
    1891                            .thumbfunc UART_InUDec
    1892 00000304                   .thumb
    1893                            .global UART_InUDec
    1894                    
    1895                    $C$DW$108       .dwtag  DW_TAG_subprogram, DW_AT_name("UART_InUDec")
    1896                            .dwattr $C$DW$108, DW_AT_low_pc(UART_InUDec)
    1897                            .dwattr $C$DW$108, DW_AT_high_pc(0x00)
    1898                            .dwattr $C$DW$108, DW_AT_TI_symbol_name("UART_InUDec")
    1899                            .dwattr $C$DW$108, DW_AT_external
    1900                            .dwattr $C$DW$108, DW_AT_type(*$C$DW$T$40)
    1901                            .dwattr $C$DW$108, DW_AT_TI_begin_file("../UART.c")
    1902                            .dwattr $C$DW$108, DW_AT_TI_begin_line(0xce)
    1903                            .dwattr $C$DW$108, DW_AT_TI_begin_column(0x0a)
    1904                            .dwattr $C$DW$108, DW_AT_decl_file("../UART.c")
    1905                            .dwattr $C$DW$108, DW_AT_decl_line(0xce)
    1906                            .dwattr $C$DW$108, DW_AT_decl_column(0x0a)
    1907                            .dwattr $C$DW$108, DW_AT_TI_max_frame_size(0x10)
    1908                            .dwpsn  file "../UART.c",line 206,column 27,is_stmt,address UART_InUDec,isa 1
    1909                    
    1910                            .dwfde $C$DW$CIE, UART_InUDec
    1911                    ;----------------------------------------------------------------------
    1912                    ; 206 | uint32_t UART_InUDec(void){                                            
    1913                    ;----------------------------------------------------------------------
    1914                    
    1915                    ;*****************************************************************************
    1916                    ;* FUNCTION NAME: UART_InUDec                                                *
    1917                    ;*                                                                           *
    1918                    ;*   Regs Modified     : A1,A2,A3,A4,SP,LR,SR,FPEXC,FPSCR                    *
    1919                    ;*   Regs Used         : A1,A2,A3,A4,SP,LR,SR,FPEXC,FPSCR                    *
    1920                    ;*   Local Frame Size  : 0 Args + 12 Auto + 4 Save = 16 byte                 *
    1921                    ;*****************************************************************************
    1922 00000304           UART_InUDec:
TI ARM Assembler PC v5.2.4 Sat Feb 06 22:51:20 2016

Tools Copyright (c) 1996-2015 Texas Instruments Incorporated
UART.asm                                                             PAGE   36

    1923                    ;* --------------------------------------------------------------------------*
    1924                            .dwcfi  cfa_offset, 0
    1925 00000304 B50E              PUSH      {A2, A3, A4, LR}      ; [DPU_3_PIPE]  ; [ORIG 16-BIT INS]
    1926                            .dwcfi  cfa_offset, 16
    1927                            .dwcfi  save_reg_to_mem, 14, -4
    1928                            .dwcfi  save_reg_to_mem, 3, -8
    1929                            .dwcfi  save_reg_to_mem, 2, -12
    1930                            .dwcfi  save_reg_to_mem, 1, -16
    1931                    $C$DW$109       .dwtag  DW_TAG_variable, DW_AT_name("number")
    1932                            .dwattr $C$DW$109, DW_AT_TI_symbol_name("number")
    1933                            .dwattr $C$DW$109, DW_AT_type(*$C$DW$T$40)
    1934                            .dwattr $C$DW$109, DW_AT_location[DW_OP_breg13 0]
    1935                    $C$DW$110       .dwtag  DW_TAG_variable, DW_AT_name("length")
    1936                            .dwattr $C$DW$110, DW_AT_TI_symbol_name("length")
    1937                            .dwattr $C$DW$110, DW_AT_type(*$C$DW$T$40)
    1938                            .dwattr $C$DW$110, DW_AT_location[DW_OP_breg13 4]
    1939                    $C$DW$111       .dwtag  DW_TAG_variable, DW_AT_name("character")
    1940                            .dwattr $C$DW$111, DW_AT_TI_symbol_name("character")
    1941                            .dwattr $C$DW$111, DW_AT_type(*$C$DW$T$6)
    1942                            .dwattr $C$DW$111, DW_AT_location[DW_OP_breg13 8]
    1943                            .dwpsn  file "../UART.c",line 207,column 16,is_stmt,isa 1
    1944                    ;----------------------------------------------------------------------
    1945                    ; 207 | uint32_t number=0, length=0;                                           
    1946                    ;----------------------------------------------------------------------
    1947 00000306 2000              MOVS      A1, #0                ; [DPU_3_PIPE] |207|  ; [ORIG 16-BIT INS]
    1948 00000308 9000              STR       A1, [SP, #0]          ; [DPU_3_PIPE] |207|  ; [ORIG 16-BIT INS]
    1949                            .dwpsn  file "../UART.c",line 207,column 26,is_stmt,isa 1
    1950                    ;----------------------------------------------------------------------
    1951                    ; 208 | char character;                                                        
    1952                    ;----------------------------------------------------------------------
    1953 0000030a 2000              MOVS      A1, #0                ; [DPU_3_PIPE] |207|  ; [ORIG 16-BIT INS]
    1954 0000030c 9001              STR       A1, [SP, #4]          ; [DPU_3_PIPE] |207|  ; [ORIG 16-BIT INS]
    1955                            .dwpsn  file "../UART.c",line 209,column 3,is_stmt,isa 1
    1956                    ;----------------------------------------------------------------------
    1957                    ; 209 | character = UART_InChar();                                             
    1958                    ;----------------------------------------------------------------------
    1959                    $C$DW$112       .dwtag  DW_TAG_TI_branch
    1960                            .dwattr $C$DW$112, DW_AT_low_pc(0x00)
    1961                            .dwattr $C$DW$112, DW_AT_name("UART_InChar")
    1962                            .dwattr $C$DW$112, DW_AT_TI_call
    1963 0000030e FF80F7FF          BL        UART_InChar           ; [DPU_3_PIPE] |209|  ; [KEEP 32-BIT INS]
    1964                            ; CALL OCCURS {UART_InChar }     ; [] |209| 
    1965 00000312 0008F88D          STRB      A1, [SP, #8]          ; [DPU_3_PIPE] |209|  ; [KEEP 32-BIT INS]
    1966                            .dwpsn  file "../UART.c",line 210,column 9,is_stmt,isa 1
    1967                    ;----------------------------------------------------------------------
    1968                    ; 210 | while(character != CR){ // accepts until <enter> is typed              
    1969                    ; 211 | // The next line checks that the input is a digit, 0-9.                
    1970                    ; 212 | // If the character is not 0-9, it is ignored and not echoed           
    1971                    ;----------------------------------------------------------------------
    1972 00000316 0008F89D          LDRB      A1, [SP, #8]          ; [DPU_3_PIPE] |210|  ; [KEEP 32-BIT INS]
    1973 0000031a 280D              CMP       A1, #13               ; [DPU_3_PIPE] |210|  ; [ORIG 16-BIT INS]
    1974 0000031c D032              BEQ       ||$C$L28||            ; [DPU_3_PIPE] |210|  ; [ORIG 16-BIT INS]
    1975                            ; BRANCHCC OCCURS {||$C$L28||}   ; [] |210| 
    1976                    ;* --------------------------------------------------------------------------*
    1977                    ;*   BEGIN LOOP ||$C$L25||
TI ARM Assembler PC v5.2.4 Sat Feb 06 22:51:20 2016

Tools Copyright (c) 1996-2015 Texas Instruments Incorporated
UART.asm                                                             PAGE   37

    1978                    ;*
    1979                    ;*   Loop source line                : 210
    1980                    ;*   Loop closing brace source line  : 226
    1981                    ;*   Known Minimum Trip Count        : 1
    1982                    ;*   Known Maximum Trip Count        : 4294967295
    1983                    ;*   Known Max Trip Count Factor     : 1
    1984                    ;* --------------------------------------------------------------------------*
    1985 0000031e           ||$C$L25||:    
    1986                            .dwpsn  file "../UART.c",line 213,column 5,is_stmt,isa 1
    1987                    ;----------------------------------------------------------------------
    1988                    ; 213 | if((character>='0') && (character<='9')) {                             
    1989                    ;----------------------------------------------------------------------
    1990 0000031e 0008F89D          LDRB      A1, [SP, #8]          ; [DPU_3_PIPE] |213|  ; [KEEP 32-BIT INS]
    1991 00000322 2830              CMP       A1, #48               ; [DPU_3_PIPE] |213|  ; [ORIG 16-BIT INS]
    1992 00000324 DB14              BLT       ||$C$L26||            ; [DPU_3_PIPE] |213|  ; [ORIG 16-BIT INS]
    1993                            ; BRANCHCC OCCURS {||$C$L26||}   ; [] |213| 
    1994                    ;* --------------------------------------------------------------------------*
    1995 00000326 0008F89D          LDRB      A1, [SP, #8]          ; [DPU_3_PIPE] |213|  ; [KEEP 32-BIT INS]
    1996 0000032a 2839              CMP       A1, #57               ; [DPU_3_PIPE] |213|  ; [ORIG 16-BIT INS]
    1997 0000032c DC10              BGT       ||$C$L26||            ; [DPU_3_PIPE] |213|  ; [ORIG 16-BIT INS]
    1998                            ; BRANCHCC OCCURS {||$C$L26||}   ; [] |213| 
    1999                    ;* --------------------------------------------------------------------------*
    2000                            .dwpsn  file "../UART.c",line 214,column 7,is_stmt,isa 1
    2001                    ;----------------------------------------------------------------------
    2002                    ; 214 | number = 10*number+(character-'0');   // this line overflows if above 4
    2003                    ;     | 294967295                                                              
    2004                    ;----------------------------------------------------------------------
    2005 0000032e 9A00              LDR       A3, [SP, #0]          ; [DPU_3_PIPE] |214|  ; [ORIG 16-BIT INS]
    2006 00000330 0008F89D          LDRB      A1, [SP, #8]          ; [DPU_3_PIPE] |214|  ; [KEEP 32-BIT INS]
    2007 00000334 0051              LSLS      A2, A3, #1            ; [DPU_3_PIPE] |214|  ; [ORIG 16-BIT INS]
    2008 00000336 3830              SUBS      A1, A1, #48           ; [DPU_3_PIPE] |214|  ; [ORIG 16-BIT INS]
    2009 00000338 01C2EB01          ADD       A2, A2, A3, LSL #3    ; [DPU_3_PIPE] |214|  ; [KEEP 32-BIT INS]
    2010 0000033c 1809              ADDS      A2, A2, A1            ; [DPU_3_PIPE] |214|  ; [ORIG 16-BIT INS]
    2011 0000033e 9100              STR       A2, [SP, #0]          ; [DPU_3_PIPE] |214|  ; [ORIG 16-BIT INS]
    2012                            .dwpsn  file "../UART.c",line 215,column 7,is_stmt,isa 1
    2013                    ;----------------------------------------------------------------------
    2014                    ; 215 | length++;                                                              
    2015                    ;----------------------------------------------------------------------
    2016 00000340 9801              LDR       A1, [SP, #4]          ; [DPU_3_PIPE] |215|  ; [ORIG 16-BIT INS]
    2017 00000342 1C40              ADDS      A1, A1, #1            ; [DPU_3_PIPE] |215|  ; [ORIG 16-BIT INS]
    2018 00000344 9001              STR       A1, [SP, #4]          ; [DPU_3_PIPE] |215|  ; [ORIG 16-BIT INS]
    2019                            .dwpsn  file "../UART.c",line 216,column 7,is_stmt,isa 1
    2020                    ;----------------------------------------------------------------------
    2021                    ; 216 | UART_OutChar(character);                                               
    2022                    ;----------------------------------------------------------------------
    2023 00000346 0008F89D          LDRB      A1, [SP, #8]          ; [DPU_3_PIPE] |216|  ; [KEEP 32-BIT INS]
    2024                    $C$DW$113       .dwtag  DW_TAG_TI_branch
    2025                            .dwattr $C$DW$113, DW_AT_low_pc(0x00)
    2026                            .dwattr $C$DW$113, DW_AT_name("UART_OutChar")
    2027                            .dwattr $C$DW$113, DW_AT_TI_call
    2028 0000034a FF75F7FF          BL        UART_OutChar          ; [DPU_3_PIPE] |216|  ; [KEEP 32-BIT INS]
    2029                            ; CALL OCCURS {UART_OutChar }    ; [] |216| 
    2030                            .dwpsn  file "../UART.c",line 217,column 5,is_stmt,isa 1
    2031                    ;----------------------------------------------------------------------
    2032                    ; 218 | // If the input is a backspace, then the return number is              
TI ARM Assembler PC v5.2.4 Sat Feb 06 22:51:20 2016

Tools Copyright (c) 1996-2015 Texas Instruments Incorporated
UART.asm                                                             PAGE   38

    2033                    ; 219 | // changed and a backspace is outputted to the screen                  
    2034                    ;----------------------------------------------------------------------
    2035 0000034e E011              B         ||$C$L27||            ; [DPU_3_PIPE] |217|  ; [ORIG 16-BIT INS]
    2036                            ; BRANCH OCCURS {||$C$L27||}     ; [] |217| 
    2037                    ;* --------------------------------------------------------------------------*
    2038 00000350           ||$C$L26||:    
    2039                            .dwpsn  file "../UART.c",line 220,column 10,is_stmt,isa 1
    2040                    ;----------------------------------------------------------------------
    2041                    ; 220 | else if((character==BS) && length){                                    
    2042                    ;----------------------------------------------------------------------
    2043 00000350 0008F89D          LDRB      A1, [SP, #8]          ; [DPU_3_PIPE] |220|  ; [KEEP 32-BIT INS]
    2044 00000354 2808              CMP       A1, #8                ; [DPU_3_PIPE] |220|  ; [ORIG 16-BIT INS]
    2045 00000356 D10D              BNE       ||$C$L27||            ; [DPU_3_PIPE] |220|  ; [ORIG 16-BIT INS]
    2046                            ; BRANCHCC OCCURS {||$C$L27||}   ; [] |220| 
    2047                    ;* --------------------------------------------------------------------------*
    2048 00000358 9801              LDR       A1, [SP, #4]          ; [DPU_3_PIPE] |220|  ; [ORIG 16-BIT INS]
    2049 0000035a B158              CBZ       A1, ||$C$L27||        ; []  ; [ORIG 16-BIT INS]
    2050                            ; BRANCHCC OCCURS {||$C$L27||}   ; [] |220| 
    2051                    ;* --------------------------------------------------------------------------*
    2052                            .dwpsn  file "../UART.c",line 221,column 7,is_stmt,isa 1
    2053                    ;----------------------------------------------------------------------
    2054                    ; 221 | number /= 10;                                                          
    2055                    ;----------------------------------------------------------------------
    2056 0000035c 9900              LDR       A2, [SP, #0]          ; [DPU_3_PIPE] |221|  ; [ORIG 16-BIT INS]
    2057 0000035e 200A              MOVS      A1, #10               ; [DPU_3_PIPE] |221|  ; [ORIG 16-BIT INS]
    2058 00000360 F0F0FBB1          UDIV      A1, A2, A1            ; [DPU_3_PIPE] |221|  ; [KEEP 32-BIT INS]
    2059 00000364 9000              STR       A1, [SP, #0]          ; [DPU_3_PIPE] |221|  ; [ORIG 16-BIT INS]
    2060                            .dwpsn  file "../UART.c",line 222,column 7,is_stmt,isa 1
    2061                    ;----------------------------------------------------------------------
    2062                    ; 222 | length--;                                                              
    2063                    ;----------------------------------------------------------------------
    2064 00000366 9801              LDR       A1, [SP, #4]          ; [DPU_3_PIPE] |222|  ; [ORIG 16-BIT INS]
    2065 00000368 1E40              SUBS      A1, A1, #1            ; [DPU_3_PIPE] |222|  ; [ORIG 16-BIT INS]
    2066 0000036a 9001              STR       A1, [SP, #4]          ; [DPU_3_PIPE] |222|  ; [ORIG 16-BIT INS]
    2067                            .dwpsn  file "../UART.c",line 223,column 7,is_stmt,isa 1
    2068                    ;----------------------------------------------------------------------
    2069                    ; 223 | UART_OutChar(character);                                               
    2070                    ;----------------------------------------------------------------------
    2071 0000036c 0008F89D          LDRB      A1, [SP, #8]          ; [DPU_3_PIPE] |223|  ; [KEEP 32-BIT INS]
    2072                    $C$DW$114       .dwtag  DW_TAG_TI_branch
    2073                            .dwattr $C$DW$114, DW_AT_low_pc(0x00)
    2074                            .dwattr $C$DW$114, DW_AT_name("UART_OutChar")
    2075                            .dwattr $C$DW$114, DW_AT_TI_call
    2076 00000370 FF62F7FF          BL        UART_OutChar          ; [DPU_3_PIPE] |223|  ; [KEEP 32-BIT INS]
    2077                            ; CALL OCCURS {UART_OutChar }    ; [] |223| 
    2078                    ;* --------------------------------------------------------------------------*
    2079 00000374           ||$C$L27||:    
    2080                            .dwpsn  file "../UART.c",line 225,column 5,is_stmt,isa 1
    2081                    ;----------------------------------------------------------------------
    2082                    ; 225 | character = UART_InChar();                                             
    2083                    ;----------------------------------------------------------------------
    2084                    $C$DW$115       .dwtag  DW_TAG_TI_branch
    2085                            .dwattr $C$DW$115, DW_AT_low_pc(0x00)
    2086                            .dwattr $C$DW$115, DW_AT_name("UART_InChar")
    2087                            .dwattr $C$DW$115, DW_AT_TI_call
TI ARM Assembler PC v5.2.4 Sat Feb 06 22:51:20 2016

Tools Copyright (c) 1996-2015 Texas Instruments Incorporated
UART.asm                                                             PAGE   39

    2088 00000374 FF4DF7FF          BL        UART_InChar           ; [DPU_3_PIPE] |225|  ; [KEEP 32-BIT INS]
    2089                            ; CALL OCCURS {UART_InChar }     ; [] |225| 
    2090 00000378 0008F88D          STRB      A1, [SP, #8]          ; [DPU_3_PIPE] |225|  ; [KEEP 32-BIT INS]
    2091                            .dwpsn  file "../UART.c",line 210,column 9,is_stmt,isa 1
    2092 0000037c 0008F89D          LDRB      A1, [SP, #8]          ; [DPU_3_PIPE] |210|  ; [KEEP 32-BIT INS]
    2093 00000380 280D              CMP       A1, #13               ; [DPU_3_PIPE] |210|  ; [ORIG 16-BIT INS]
    2094 00000382 D1CC              BNE       ||$C$L25||            ; [DPU_3_PIPE] |210|  ; [ORIG 16-BIT INS]
    2095                            ; BRANCHCC OCCURS {||$C$L25||}   ; [] |210| 
    2096                    ;* --------------------------------------------------------------------------*
    2097 00000384           ||$C$L28||:    
    2098                            .dwpsn  file "../UART.c",line 227,column 3,is_stmt,isa 1
    2099                    ;----------------------------------------------------------------------
    2100                    ; 227 | return number;                                                         
    2101                    ;----------------------------------------------------------------------
    2102 00000384 9800              LDR       A1, [SP, #0]          ; [DPU_3_PIPE] |227|  ; [ORIG 16-BIT INS]
    2103                            .dwpsn  file "../UART.c",line 228,column 1,is_stmt,isa 1
    2104                    $C$DW$116       .dwtag  DW_TAG_TI_branch
    2105                            .dwattr $C$DW$116, DW_AT_low_pc(0x00)
    2106                            .dwattr $C$DW$116, DW_AT_TI_return
    2107 00000386 BD0E              POP       {A2, A3, A4, PC}      ; [DPU_3_PIPE]  ; [ORIG 16-BIT INS]
    2108                            .dwcfi  cfa_offset, 0
    2109                            ; BRANCH OCCURS                  ; [] 
    2110                            .dwattr $C$DW$108, DW_AT_TI_end_file("../UART.c")
    2111                            .dwattr $C$DW$108, DW_AT_TI_end_line(0xe4)
    2112                            .dwattr $C$DW$108, DW_AT_TI_end_column(0x01)
    2113                            .dwendentry
    2114                            .dwendtag $C$DW$108
    2115                    
    2116                    ;******************************************************************************
    2117                    ;* CONSTANT TABLE                                                             *
    2118                    ;******************************************************************************
    2119 00000388                   .sect   ".text"
    2120                            .align  4
    2121 00000388 00000000! ||$C$CON4||:    .bits   TxPutI,32
    2122                            .align  4
    2123 0000038c 00000000! ||$C$CON5||:    .bits   TxGetI,32
    2124 00000390                   .sect   ".text"
    2125                            .clink
    2126                            .thumbfunc UART_OutUDec
    2127 00000390                   .thumb
    2128                            .global UART_OutUDec
    2129                    
    2130                    $C$DW$117       .dwtag  DW_TAG_subprogram, DW_AT_name("UART_OutUDec")
    2131                            .dwattr $C$DW$117, DW_AT_low_pc(UART_OutUDec)
    2132                            .dwattr $C$DW$117, DW_AT_high_pc(0x00)
    2133                            .dwattr $C$DW$117, DW_AT_TI_symbol_name("UART_OutUDec")
    2134                            .dwattr $C$DW$117, DW_AT_external
    2135                            .dwattr $C$DW$117, DW_AT_TI_begin_file("../UART.c")
    2136                            .dwattr $C$DW$117, DW_AT_TI_begin_line(0xeb)
    2137                            .dwattr $C$DW$117, DW_AT_TI_begin_column(0x06)
    2138                            .dwattr $C$DW$117, DW_AT_decl_file("../UART.c")
    2139                            .dwattr $C$DW$117, DW_AT_decl_line(0xeb)
    2140                            .dwattr $C$DW$117, DW_AT_decl_column(0x06)
    2141                            .dwattr $C$DW$117, DW_AT_TI_max_frame_size(0x08)
    2142                            .dwpsn  file "../UART.c",line 235,column 30,is_stmt,address UART_OutUDec,isa 1
TI ARM Assembler PC v5.2.4 Sat Feb 06 22:51:20 2016

Tools Copyright (c) 1996-2015 Texas Instruments Incorporated
UART.asm                                                             PAGE   40

    2143                    
    2144                            .dwfde $C$DW$CIE, UART_OutUDec
    2145                    $C$DW$118       .dwtag  DW_TAG_formal_parameter, DW_AT_name("n")
    2146                            .dwattr $C$DW$118, DW_AT_TI_symbol_name("n")
    2147                            .dwattr $C$DW$118, DW_AT_type(*$C$DW$T$40)
    2148                            .dwattr $C$DW$118, DW_AT_location[DW_OP_reg0]
    2149                    
    2150                    ;*****************************************************************************
    2151                    ;* FUNCTION NAME: UART_OutUDec                                               *
    2152                    ;*                                                                           *
    2153                    ;*   Regs Modified     : A1,A2,A3,A4,V9,SP,LR,SR,D0,D0_hi,D1,D1_hi,D2,D2_hi, *
    2154                    ;*                           D3,D3_hi,D4,D4_hi,D5,D5_hi,D6,D6_hi,D7,D7_hi,   *
    2155                    ;*                           FPEXC,FPSCR                                     *
    2156                    ;*   Regs Used         : A1,A2,A3,A4,V9,SP,LR,SR,D0,D0_hi,D1,D1_hi,D2,D2_hi, *
    2157                    ;*                           D3,D3_hi,D4,D4_hi,D5,D5_hi,D6,D6_hi,D7,D7_hi,   *
    2158                    ;*                           FPEXC,FPSCR                                     *
    2159                    ;*   Local Frame Size  : 0 Args + 4 Auto + 4 Save = 8 byte                   *
    2160                    ;*****************************************************************************
    2161 00000390           UART_OutUDec:
    2162                    ;* --------------------------------------------------------------------------*
    2163                            .dwcfi  cfa_offset, 0
    2164 00000390 B508              PUSH      {A4, LR}              ; [DPU_3_PIPE]  ; [ORIG 16-BIT INS]
    2165                            .dwcfi  cfa_offset, 8
    2166                            .dwcfi  save_reg_to_mem, 14, -4
    2167                            .dwcfi  save_reg_to_mem, 3, -8
    2168                    $C$DW$119       .dwtag  DW_TAG_variable, DW_AT_name("n")
    2169                            .dwattr $C$DW$119, DW_AT_TI_symbol_name("n")
    2170                            .dwattr $C$DW$119, DW_AT_type(*$C$DW$T$40)
    2171                            .dwattr $C$DW$119, DW_AT_location[DW_OP_breg13 0]
    2172                    ;----------------------------------------------------------------------
    2173                    ; 235 | void UART_OutUDec(uint32_t n){                                         
    2174                    ; 236 | // This function uses recursion to convert decimal number              
    2175                    ; 237 | //   of unspecified length as an ASCII string                          
    2176                    ;----------------------------------------------------------------------
    2177 00000392 9000              STR       A1, [SP, #0]          ; [DPU_3_PIPE] |235|  ; [ORIG 16-BIT INS]
    2178                            .dwpsn  file "../UART.c",line 238,column 3,is_stmt,isa 1
    2179                    ;----------------------------------------------------------------------
    2180                    ; 238 | if(n >= 10){                                                           
    2181                    ;----------------------------------------------------------------------
    2182 00000394 9800              LDR       A1, [SP, #0]          ; [DPU_3_PIPE] |238|  ; [ORIG 16-BIT INS]
    2183 00000396 280A              CMP       A1, #10               ; [DPU_3_PIPE] |238|  ; [ORIG 16-BIT INS]
    2184 00000398 D30C              BCC       ||$C$L29||            ; [DPU_3_PIPE] |238|  ; [ORIG 16-BIT INS]
    2185                            ; BRANCHCC OCCURS {||$C$L29||}   ; [] |238| 
    2186                    ;* --------------------------------------------------------------------------*
    2187                            .dwpsn  file "../UART.c",line 239,column 5,is_stmt,isa 1
    2188                    ;----------------------------------------------------------------------
    2189                    ; 239 | UART_OutUDec(n/10);                                                    
    2190                    ;----------------------------------------------------------------------
    2191 0000039a 9900              LDR       A2, [SP, #0]          ; [DPU_3_PIPE] |239|  ; [ORIG 16-BIT INS]
    2192 0000039c 200A              MOVS      A1, #10               ; [DPU_3_PIPE] |239|  ; [ORIG 16-BIT INS]
    2193 0000039e F0F0FBB1          UDIV      A1, A2, A1            ; [DPU_3_PIPE] |239|  ; [KEEP 32-BIT INS]
    2194                    $C$DW$120       .dwtag  DW_TAG_TI_branch
    2195                            .dwattr $C$DW$120, DW_AT_low_pc(0x00)
    2196                            .dwattr $C$DW$120, DW_AT_name("UART_OutUDec")
    2197                            .dwattr $C$DW$120, DW_AT_TI_call
TI ARM Assembler PC v5.2.4 Sat Feb 06 22:51:20 2016

Tools Copyright (c) 1996-2015 Texas Instruments Incorporated
UART.asm                                                             PAGE   41

    2198 000003a2 FFF5F7FF          BL        UART_OutUDec          ; [DPU_3_PIPE] |239|  ; [KEEP 32-BIT INS]
    2199                            ; CALL OCCURS {UART_OutUDec }    ; [] |239| 
    2200                            .dwpsn  file "../UART.c",line 240,column 5,is_stmt,isa 1
    2201                    ;----------------------------------------------------------------------
    2202                    ; 240 | n = n%10;                                                              
    2203                    ;----------------------------------------------------------------------
    2204 000003a6 9800              LDR       A1, [SP, #0]          ; [DPU_3_PIPE] |240|  ; [ORIG 16-BIT INS]
    2205 000003a8 220A              MOVS      A3, #10               ; [DPU_3_PIPE] |240|  ; [ORIG 16-BIT INS]
    2206 000003aa F1F2FBB0          UDIV      A2, A1, A3            ; [DPU_3_PIPE] |240|  ; [KEEP 32-BIT INS]
    2207 000003ae 4351              MULS      A2, A2, A3            ; [DPU_3_PIPE] |240|  ; [ORIG 16-BIT INS]
    2208 000003b0 1A40              SUBS      A1, A1, A2            ; [DPU_3_PIPE] |240|  ; [ORIG 16-BIT INS]
    2209 000003b2 9000              STR       A1, [SP, #0]          ; [DPU_3_PIPE] |240|  ; [ORIG 16-BIT INS]
    2210                    ;* --------------------------------------------------------------------------*
    2211 000003b4           ||$C$L29||:    
    2212                            .dwpsn  file "../UART.c",line 242,column 3,is_stmt,isa 1
    2213                    ;----------------------------------------------------------------------
    2214                    ; 242 | UART_OutChar(n+'0'); /* n is between 0 and 9 */                        
    2215                    ;----------------------------------------------------------------------
    2216 000003b4 9800              LDR       A1, [SP, #0]          ; [DPU_3_PIPE] |242|  ; [ORIG 16-BIT INS]
    2217 000003b6 3030              ADDS      A1, A1, #48           ; [DPU_3_PIPE] |242|  ; [ORIG 16-BIT INS]
    2218 000003b8 B2C0              UXTB      A1, A1                ; [DPU_3_PIPE] |242|  ; [ORIG 16-BIT INS]
    2219                    $C$DW$121       .dwtag  DW_TAG_TI_branch
    2220                            .dwattr $C$DW$121, DW_AT_low_pc(0x00)
    2221                            .dwattr $C$DW$121, DW_AT_name("UART_OutChar")
    2222                            .dwattr $C$DW$121, DW_AT_TI_call
    2223 000003ba FF3DF7FF          BL        UART_OutChar          ; [DPU_3_PIPE] |242|  ; [KEEP 32-BIT INS]
    2224                            ; CALL OCCURS {UART_OutChar }    ; [] |242| 
    2225                            .dwpsn  file "../UART.c",line 243,column 1,is_stmt,isa 1
    2226                    $C$DW$122       .dwtag  DW_TAG_TI_branch
    2227                            .dwattr $C$DW$122, DW_AT_low_pc(0x00)
    2228                            .dwattr $C$DW$122, DW_AT_TI_return
    2229 000003be BD08              POP       {A4, PC}              ; [DPU_3_PIPE]  ; [ORIG 16-BIT INS]
    2230                            .dwcfi  cfa_offset, 0
    2231                            ; BRANCH OCCURS                  ; [] 
    2232                            .dwattr $C$DW$117, DW_AT_TI_end_file("../UART.c")
    2233                            .dwattr $C$DW$117, DW_AT_TI_end_line(0xf3)
    2234                            .dwattr $C$DW$117, DW_AT_TI_end_column(0x01)
    2235                            .dwendentry
    2236                            .dwendtag $C$DW$117
    2237                    
    2238                    ;******************************************************************************
    2239                    ;* CONSTANT TABLE                                                             *
    2240                    ;******************************************************************************
    2241 000003c0                   .sect   ".text"
    2242                            .align  4
    2243 000003c0 00000000! ||$C$CON6||:    .bits   TxFifo,32
    2244                            .align  4
    2245 000003c4 400FE618  ||$C$CON7||:    .bits   1074783768,32
    2246                            .align  4
    2247 000003c8 400FE608  ||$C$CON8||:    .bits   1074783752,32
    2248                            .align  4
    2249 000003cc 4000C030  ||$C$CON9||:    .bits   1073791024,32
    2250                            .align  4
    2251 000003d0 4000C024  ||$C$CON10||:   .bits   1073791012,32
    2252                            .align  4
TI ARM Assembler PC v5.2.4 Sat Feb 06 22:51:20 2016

Tools Copyright (c) 1996-2015 Texas Instruments Incorporated
UART.asm                                                             PAGE   42

    2253 000003d4 4000C028  ||$C$CON11||:   .bits   1073791016,32
    2254                            .align  4
    2255 000003d8 4000C02C  ||$C$CON12||:   .bits   1073791020,32
    2256                            .align  4
    2257 000003dc 4000C034  ||$C$CON13||:   .bits   1073791028,32
    2258                            .align  4
    2259 000003e0 4000C038  ||$C$CON14||:   .bits   1073791032,32
    2260                            .align  4
    2261 000003e4 40004420  ||$C$CON15||:   .bits   1073759264,32
    2262                            .align  4
    2263 000003e8 4000451C  ||$C$CON16||:   .bits   1073759516,32
    2264                            .align  4
    2265 000003ec 4000452C  ||$C$CON17||:   .bits   1073759532,32
    2266                            .align  4
    2267 000003f0 40004528  ||$C$CON18||:   .bits   1073759528,32
    2268                            .align  4
    2269 000003f4 E000E404  ||$C$CON19||:   .bits   -536812540,32
    2270                            .align  4
    2271 000003f8 E000E100  ||$C$CON20||:   .bits   -536813312,32
    2272                            .align  4
    2273 000003fc 4000C000  ||$C$CON21||:   .bits   1073790976,32
    2274 00000400                   .sect   ".text"
    2275                            .clink
    2276                            .thumbfunc UART_InUHex
    2277 00000400                   .thumb
    2278                            .global UART_InUHex
    2279                    
    2280                    $C$DW$123       .dwtag  DW_TAG_subprogram, DW_AT_name("UART_InUHex")
    2281                            .dwattr $C$DW$123, DW_AT_low_pc(UART_InUHex)
    2282                            .dwattr $C$DW$123, DW_AT_high_pc(0x00)
    2283                            .dwattr $C$DW$123, DW_AT_TI_symbol_name("UART_InUHex")
    2284                            .dwattr $C$DW$123, DW_AT_external
    2285                            .dwattr $C$DW$123, DW_AT_type(*$C$DW$T$40)
    2286                            .dwattr $C$DW$123, DW_AT_TI_begin_file("../UART.c")
    2287                            .dwattr $C$DW$123, DW_AT_TI_begin_line(0xff)
    2288                            .dwattr $C$DW$123, DW_AT_TI_begin_column(0x0a)
    2289                            .dwattr $C$DW$123, DW_AT_decl_file("../UART.c")
    2290                            .dwattr $C$DW$123, DW_AT_decl_line(0xff)
    2291                            .dwattr $C$DW$123, DW_AT_decl_column(0x0a)
    2292                            .dwattr $C$DW$123, DW_AT_TI_max_frame_size(0x18)
    2293                            .dwpsn  file "../UART.c",line 255,column 27,is_stmt,address UART_InUHex,isa 1
    2294                    
    2295                            .dwfde $C$DW$CIE, UART_InUHex
    2296                    ;----------------------------------------------------------------------
    2297                    ; 255 | uint32_t UART_InUHex(void){                                            
    2298                    ;----------------------------------------------------------------------
    2299                    
    2300                    ;*****************************************************************************
    2301                    ;* FUNCTION NAME: UART_InUHex                                                *
    2302                    ;*                                                                           *
    2303                    ;*   Regs Modified     : A1,A2,A3,A4,SP,LR,SR,FPEXC,FPSCR                    *
    2304                    ;*   Regs Used         : A1,A2,A3,A4,SP,LR,SR,FPEXC,FPSCR                    *
    2305                    ;*   Local Frame Size  : 0 Args + 16 Auto + 4 Save = 20 byte                 *
    2306                    ;*****************************************************************************
    2307 00000400           UART_InUHex:
TI ARM Assembler PC v5.2.4 Sat Feb 06 22:51:20 2016

Tools Copyright (c) 1996-2015 Texas Instruments Incorporated
UART.asm                                                             PAGE   43

    2308                    ;* --------------------------------------------------------------------------*
    2309                            .dwcfi  cfa_offset, 0
    2310 00000400 B500              PUSH      {LR}                  ; [DPU_3_PIPE]  ; [ORIG 16-BIT INS]
    2311                            .dwcfi  cfa_offset, 4
    2312                            .dwcfi  save_reg_to_mem, 14, -4
    2313 00000402 0D14F1AD          SUB       SP, SP, #20           ; [DPU_3_PIPE]  ; [KEEP 32-BIT INS]
    2314                            .dwcfi  cfa_offset, 24
    2315                    $C$DW$124       .dwtag  DW_TAG_variable, DW_AT_name("number")
    2316                            .dwattr $C$DW$124, DW_AT_TI_symbol_name("number")
    2317                            .dwattr $C$DW$124, DW_AT_type(*$C$DW$T$40)
    2318                            .dwattr $C$DW$124, DW_AT_location[DW_OP_breg13 0]
    2319                    $C$DW$125       .dwtag  DW_TAG_variable, DW_AT_name("digit")
    2320                            .dwattr $C$DW$125, DW_AT_TI_symbol_name("digit")
    2321                            .dwattr $C$DW$125, DW_AT_type(*$C$DW$T$40)
    2322                            .dwattr $C$DW$125, DW_AT_location[DW_OP_breg13 4]
    2323                    $C$DW$126       .dwtag  DW_TAG_variable, DW_AT_name("length")
    2324                            .dwattr $C$DW$126, DW_AT_TI_symbol_name("length")
    2325                            .dwattr $C$DW$126, DW_AT_type(*$C$DW$T$40)
    2326                            .dwattr $C$DW$126, DW_AT_location[DW_OP_breg13 8]
    2327                    $C$DW$127       .dwtag  DW_TAG_variable, DW_AT_name("character")
    2328                            .dwattr $C$DW$127, DW_AT_TI_symbol_name("character")
    2329                            .dwattr $C$DW$127, DW_AT_type(*$C$DW$T$6)
    2330                            .dwattr $C$DW$127, DW_AT_location[DW_OP_breg13 12]
    2331                            .dwpsn  file "../UART.c",line 256,column 16,is_stmt,isa 1
    2332                    ;----------------------------------------------------------------------
    2333                    ; 256 | uint32_t number=0, digit, length=0;                                    
    2334                    ;----------------------------------------------------------------------
    2335 00000406 2000              MOVS      A1, #0                ; [DPU_3_PIPE] |256|  ; [ORIG 16-BIT INS]
    2336 00000408 9000              STR       A1, [SP, #0]          ; [DPU_3_PIPE] |256|  ; [ORIG 16-BIT INS]
    2337                            .dwpsn  file "../UART.c",line 256,column 33,is_stmt,isa 1
    2338                    ;----------------------------------------------------------------------
    2339                    ; 257 | char character;                                                        
    2340                    ;----------------------------------------------------------------------
    2341 0000040a 2000              MOVS      A1, #0                ; [DPU_3_PIPE] |256|  ; [ORIG 16-BIT INS]
    2342 0000040c 9002              STR       A1, [SP, #8]          ; [DPU_3_PIPE] |256|  ; [ORIG 16-BIT INS]
    2343                            .dwpsn  file "../UART.c",line 258,column 3,is_stmt,isa 1
    2344                    ;----------------------------------------------------------------------
    2345                    ; 258 | character = UART_InChar();                                             
    2346                    ;----------------------------------------------------------------------
    2347                    $C$DW$128       .dwtag  DW_TAG_TI_branch
    2348                            .dwattr $C$DW$128, DW_AT_low_pc(0x00)
    2349                            .dwattr $C$DW$128, DW_AT_name("UART_InChar")
    2350                            .dwattr $C$DW$128, DW_AT_TI_call
    2351 0000040e FF00F7FF          BL        UART_InChar           ; [DPU_3_PIPE] |258|  ; [KEEP 32-BIT INS]
    2352                            ; CALL OCCURS {UART_InChar }     ; [] |258| 
    2353 00000412 000CF88D          STRB      A1, [SP, #12]         ; [DPU_3_PIPE] |258|  ; [KEEP 32-BIT INS]
    2354                            .dwpsn  file "../UART.c",line 259,column 9,is_stmt,isa 1
    2355                    ;----------------------------------------------------------------------
    2356                    ; 259 | while(character != CR){                                                
    2357                    ;----------------------------------------------------------------------
    2358 00000416 000CF89D          LDRB      A1, [SP, #12]         ; [DPU_3_PIPE] |259|  ; [KEEP 32-BIT INS]
    2359 0000041a 280D              CMP       A1, #13               ; [DPU_3_PIPE] |259|  ; [ORIG 16-BIT INS]
    2360 0000041c D04F              BEQ       ||$C$L36||            ; [DPU_3_PIPE] |259|  ; [ORIG 16-BIT INS]
    2361                            ; BRANCHCC OCCURS {||$C$L36||}   ; [] |259| 
    2362                    ;* --------------------------------------------------------------------------*
TI ARM Assembler PC v5.2.4 Sat Feb 06 22:51:20 2016

Tools Copyright (c) 1996-2015 Texas Instruments Incorporated
UART.asm                                                             PAGE   44

    2363                    ;*   BEGIN LOOP ||$C$L30||
    2364                    ;*
    2365                    ;*   Loop source line                : 259
    2366                    ;*   Loop closing brace source line  : 283
    2367                    ;*   Known Minimum Trip Count        : 1
    2368                    ;*   Known Maximum Trip Count        : 4294967295
    2369                    ;*   Known Max Trip Count Factor     : 1
    2370                    ;* --------------------------------------------------------------------------*
    2371 0000041e           ||$C$L30||:    
    2372                            .dwpsn  file "../UART.c",line 260,column 5,is_stmt,isa 1
    2373                    ;----------------------------------------------------------------------
    2374                    ; 260 | digit = 0x10; // assume bad                                            
    2375                    ;----------------------------------------------------------------------
    2376 0000041e 2010              MOVS      A1, #16               ; [DPU_3_PIPE] |260|  ; [ORIG 16-BIT INS]
    2377 00000420 9001              STR       A1, [SP, #4]          ; [DPU_3_PIPE] |260|  ; [ORIG 16-BIT INS]
    2378                            .dwpsn  file "../UART.c",line 261,column 5,is_stmt,isa 1
    2379                    ;----------------------------------------------------------------------
    2380                    ; 261 | if((character>='0') && (character<='9')){                              
    2381                    ;----------------------------------------------------------------------
    2382 00000422 000CF89D          LDRB      A1, [SP, #12]         ; [DPU_3_PIPE] |261|  ; [KEEP 32-BIT INS]
    2383 00000426 2830              CMP       A1, #48               ; [DPU_3_PIPE] |261|  ; [ORIG 16-BIT INS]
    2384 00000428 DB08              BLT       ||$C$L31||            ; [DPU_3_PIPE] |261|  ; [ORIG 16-BIT INS]
    2385                            ; BRANCHCC OCCURS {||$C$L31||}   ; [] |261| 
    2386                    ;* --------------------------------------------------------------------------*
    2387 0000042a 000CF89D          LDRB      A1, [SP, #12]         ; [DPU_3_PIPE] |261|  ; [KEEP 32-BIT INS]
    2388 0000042e 2839              CMP       A1, #57               ; [DPU_3_PIPE] |261|  ; [ORIG 16-BIT INS]
    2389 00000430 DC04              BGT       ||$C$L31||            ; [DPU_3_PIPE] |261|  ; [ORIG 16-BIT INS]
    2390                            ; BRANCHCC OCCURS {||$C$L31||}   ; [] |261| 
    2391                    ;* --------------------------------------------------------------------------*
    2392                            .dwpsn  file "../UART.c",line 262,column 7,is_stmt,isa 1
    2393                    ;----------------------------------------------------------------------
    2394                    ; 262 | digit = character-'0';                                                 
    2395                    ;----------------------------------------------------------------------
    2396 00000432 000CF89D          LDRB      A1, [SP, #12]         ; [DPU_3_PIPE] |262|  ; [KEEP 32-BIT INS]
    2397 00000436 3830              SUBS      A1, A1, #48           ; [DPU_3_PIPE] |262|  ; [ORIG 16-BIT INS]
    2398 00000438 9001              STR       A1, [SP, #4]          ; [DPU_3_PIPE] |262|  ; [ORIG 16-BIT INS]
    2399                            .dwpsn  file "../UART.c",line 263,column 5,is_stmt,isa 1
    2400 0000043a E018              B         ||$C$L33||            ; [DPU_3_PIPE] |263|  ; [ORIG 16-BIT INS]
    2401                            ; BRANCH OCCURS {||$C$L33||}     ; [] |263| 
    2402                    ;* --------------------------------------------------------------------------*
    2403 0000043c           ||$C$L31||:    
    2404                            .dwpsn  file "../UART.c",line 264,column 10,is_stmt,isa 1
    2405                    ;----------------------------------------------------------------------
    2406                    ; 264 | else if((character>='A') && (character<='F')){                         
    2407                    ;----------------------------------------------------------------------
    2408 0000043c 000CF89D          LDRB      A1, [SP, #12]         ; [DPU_3_PIPE] |264|  ; [KEEP 32-BIT INS]
    2409 00000440 2841              CMP       A1, #65               ; [DPU_3_PIPE] |264|  ; [ORIG 16-BIT INS]
    2410 00000442 DB08              BLT       ||$C$L32||            ; [DPU_3_PIPE] |264|  ; [ORIG 16-BIT INS]
    2411                            ; BRANCHCC OCCURS {||$C$L32||}   ; [] |264| 
    2412                    ;* --------------------------------------------------------------------------*
    2413 00000444 000CF89D          LDRB      A1, [SP, #12]         ; [DPU_3_PIPE] |264|  ; [KEEP 32-BIT INS]
    2414 00000448 2846              CMP       A1, #70               ; [DPU_3_PIPE] |264|  ; [ORIG 16-BIT INS]
    2415 0000044a DC04              BGT       ||$C$L32||            ; [DPU_3_PIPE] |264|  ; [ORIG 16-BIT INS]
    2416                            ; BRANCHCC OCCURS {||$C$L32||}   ; [] |264| 
    2417                    ;* --------------------------------------------------------------------------*
TI ARM Assembler PC v5.2.4 Sat Feb 06 22:51:20 2016

Tools Copyright (c) 1996-2015 Texas Instruments Incorporated
UART.asm                                                             PAGE   45

    2418                            .dwpsn  file "../UART.c",line 265,column 7,is_stmt,isa 1
    2419                    ;----------------------------------------------------------------------
    2420                    ; 265 | digit = (character-'A')+0xA;                                           
    2421                    ;----------------------------------------------------------------------
    2422 0000044c 000CF89D          LDRB      A1, [SP, #12]         ; [DPU_3_PIPE] |265|  ; [KEEP 32-BIT INS]
    2423 00000450 3837              SUBS      A1, A1, #55           ; [DPU_3_PIPE] |265|  ; [ORIG 16-BIT INS]
    2424 00000452 9001              STR       A1, [SP, #4]          ; [DPU_3_PIPE] |265|  ; [ORIG 16-BIT INS]
    2425                            .dwpsn  file "../UART.c",line 266,column 5,is_stmt,isa 1
    2426 00000454 E00B              B         ||$C$L33||            ; [DPU_3_PIPE] |266|  ; [ORIG 16-BIT INS]
    2427                            ; BRANCH OCCURS {||$C$L33||}     ; [] |266| 
    2428                    ;* --------------------------------------------------------------------------*
    2429 00000456           ||$C$L32||:    
    2430                            .dwpsn  file "../UART.c",line 267,column 10,is_stmt,isa 1
    2431                    ;----------------------------------------------------------------------
    2432                    ; 267 | else if((character>='a') && (character<='f')){                         
    2433                    ;----------------------------------------------------------------------
    2434 00000456 000CF89D          LDRB      A1, [SP, #12]         ; [DPU_3_PIPE] |267|  ; [KEEP 32-BIT INS]
    2435 0000045a 2861              CMP       A1, #97               ; [DPU_3_PIPE] |267|  ; [ORIG 16-BIT INS]
    2436 0000045c DB07              BLT       ||$C$L33||            ; [DPU_3_PIPE] |267|  ; [ORIG 16-BIT INS]
    2437                            ; BRANCHCC OCCURS {||$C$L33||}   ; [] |267| 
    2438                    ;* --------------------------------------------------------------------------*
    2439 0000045e 000CF89D          LDRB      A1, [SP, #12]         ; [DPU_3_PIPE] |267|  ; [KEEP 32-BIT INS]
    2440 00000462 2866              CMP       A1, #102              ; [DPU_3_PIPE] |267|  ; [ORIG 16-BIT INS]
    2441 00000464 DC03              BGT       ||$C$L33||            ; [DPU_3_PIPE] |267|  ; [ORIG 16-BIT INS]
    2442                            ; BRANCHCC OCCURS {||$C$L33||}   ; [] |267| 
    2443                    ;* --------------------------------------------------------------------------*
    2444                            .dwpsn  file "../UART.c",line 268,column 7,is_stmt,isa 1
    2445                    ;----------------------------------------------------------------------
    2446                    ; 268 | digit = (character-'a')+0xA;                                           
    2447                    ; 270 | // If the character is not 0-9 or A-F, it is ignored and not echoed    
    2448                    ;----------------------------------------------------------------------
    2449 00000466 000CF89D          LDRB      A1, [SP, #12]         ; [DPU_3_PIPE] |268|  ; [KEEP 32-BIT INS]
    2450 0000046a 3857              SUBS      A1, A1, #87           ; [DPU_3_PIPE] |268|  ; [ORIG 16-BIT INS]
    2451 0000046c 9001              STR       A1, [SP, #4]          ; [DPU_3_PIPE] |268|  ; [ORIG 16-BIT INS]
    2452                    ;* --------------------------------------------------------------------------*
    2453 0000046e           ||$C$L33||:    
    2454                            .dwpsn  file "../UART.c",line 271,column 5,is_stmt,isa 1
    2455                    ;----------------------------------------------------------------------
    2456                    ; 271 | if(digit <= 0xF){                                                      
    2457                    ;----------------------------------------------------------------------
    2458 0000046e 9801              LDR       A1, [SP, #4]          ; [DPU_3_PIPE] |271|  ; [ORIG 16-BIT INS]
    2459 00000470 280F              CMP       A1, #15               ; [DPU_3_PIPE] |271|  ; [ORIG 16-BIT INS]
    2460 00000472 D80C              BHI       ||$C$L34||            ; [DPU_3_PIPE] |271|  ; [ORIG 16-BIT INS]
    2461                            ; BRANCHCC OCCURS {||$C$L34||}   ; [] |271| 
    2462                    ;* --------------------------------------------------------------------------*
    2463                            .dwpsn  file "../UART.c",line 272,column 7,is_stmt,isa 1
    2464                    ;----------------------------------------------------------------------
    2465                    ; 272 | number = number*0x10+digit;                                            
    2466                    ;----------------------------------------------------------------------
    2467 00000474 9900              LDR       A2, [SP, #0]          ; [DPU_3_PIPE] |272|  ; [ORIG 16-BIT INS]
    2468 00000476 9801              LDR       A1, [SP, #4]          ; [DPU_3_PIPE] |272|  ; [ORIG 16-BIT INS]
    2469 00000478 1001EB00          ADD       A1, A1, A2, LSL #4    ; [DPU_3_PIPE] |272|  ; [KEEP 32-BIT INS]
    2470 0000047c 9000              STR       A1, [SP, #0]          ; [DPU_3_PIPE] |272|  ; [ORIG 16-BIT INS]
    2471                            .dwpsn  file "../UART.c",line 273,column 7,is_stmt,isa 1
    2472                    ;----------------------------------------------------------------------
TI ARM Assembler PC v5.2.4 Sat Feb 06 22:51:20 2016

Tools Copyright (c) 1996-2015 Texas Instruments Incorporated
UART.asm                                                             PAGE   46

    2473                    ; 273 | length++;                                                              
    2474                    ;----------------------------------------------------------------------
    2475 0000047e 9802              LDR       A1, [SP, #8]          ; [DPU_3_PIPE] |273|  ; [ORIG 16-BIT INS]
    2476 00000480 1C40              ADDS      A1, A1, #1            ; [DPU_3_PIPE] |273|  ; [ORIG 16-BIT INS]
    2477 00000482 9002              STR       A1, [SP, #8]          ; [DPU_3_PIPE] |273|  ; [ORIG 16-BIT INS]
    2478                            .dwpsn  file "../UART.c",line 274,column 7,is_stmt,isa 1
    2479                    ;----------------------------------------------------------------------
    2480                    ; 274 | UART_OutChar(character);                                               
    2481                    ;----------------------------------------------------------------------
    2482 00000484 000CF89D          LDRB      A1, [SP, #12]         ; [DPU_3_PIPE] |274|  ; [KEEP 32-BIT INS]
    2483                    $C$DW$129       .dwtag  DW_TAG_TI_branch
    2484                            .dwattr $C$DW$129, DW_AT_low_pc(0x00)
    2485                            .dwattr $C$DW$129, DW_AT_name("UART_OutChar")
    2486                            .dwattr $C$DW$129, DW_AT_TI_call
    2487 00000488 FED6F7FF          BL        UART_OutChar          ; [DPU_3_PIPE] |274|  ; [KEEP 32-BIT INS]
    2488                            ; CALL OCCURS {UART_OutChar }    ; [] |274| 
    2489                            .dwpsn  file "../UART.c",line 275,column 5,is_stmt,isa 1
    2490                    ;----------------------------------------------------------------------
    2491                    ; 276 | // Backspace outputted and return value changed if a backspace is input
    2492                    ;     | ted                                                                    
    2493                    ;----------------------------------------------------------------------
    2494 0000048c E00F              B         ||$C$L35||            ; [DPU_3_PIPE] |275|  ; [ORIG 16-BIT INS]
    2495                            ; BRANCH OCCURS {||$C$L35||}     ; [] |275| 
    2496                    ;* --------------------------------------------------------------------------*
    2497 0000048e           ||$C$L34||:    
    2498                            .dwpsn  file "../UART.c",line 277,column 10,is_stmt,isa 1
    2499                    ;----------------------------------------------------------------------
    2500                    ; 277 | else if((character==BS) && length){                                    
    2501                    ;----------------------------------------------------------------------
    2502 0000048e 000CF89D          LDRB      A1, [SP, #12]         ; [DPU_3_PIPE] |277|  ; [KEEP 32-BIT INS]
    2503 00000492 2808              CMP       A1, #8                ; [DPU_3_PIPE] |277|  ; [ORIG 16-BIT INS]
    2504 00000494 D10B              BNE       ||$C$L35||            ; [DPU_3_PIPE] |277|  ; [ORIG 16-BIT INS]
    2505                            ; BRANCHCC OCCURS {||$C$L35||}   ; [] |277| 
    2506                    ;* --------------------------------------------------------------------------*
    2507 00000496 9802              LDR       A1, [SP, #8]          ; [DPU_3_PIPE] |277|  ; [ORIG 16-BIT INS]
    2508 00000498 B148              CBZ       A1, ||$C$L35||        ; []  ; [ORIG 16-BIT INS]
    2509                            ; BRANCHCC OCCURS {||$C$L35||}   ; [] |277| 
    2510                    ;* --------------------------------------------------------------------------*
    2511                            .dwpsn  file "../UART.c",line 278,column 7,is_stmt,isa 1
    2512                    ;----------------------------------------------------------------------
    2513                    ; 278 | number /= 0x10;                                                        
    2514                    ;----------------------------------------------------------------------
    2515 0000049a 9800              LDR       A1, [SP, #0]          ; [DPU_3_PIPE] |278|  ; [ORIG 16-BIT INS]
    2516 0000049c 0900              LSRS      A1, A1, #4            ; [DPU_3_PIPE] |278|  ; [ORIG 16-BIT INS]
    2517 0000049e 9000              STR       A1, [SP, #0]          ; [DPU_3_PIPE] |278|  ; [ORIG 16-BIT INS]
    2518                            .dwpsn  file "../UART.c",line 279,column 7,is_stmt,isa 1
    2519                    ;----------------------------------------------------------------------
    2520                    ; 279 | length--;                                                              
    2521                    ;----------------------------------------------------------------------
    2522 000004a0 9802              LDR       A1, [SP, #8]          ; [DPU_3_PIPE] |279|  ; [ORIG 16-BIT INS]
    2523 000004a2 1E40              SUBS      A1, A1, #1            ; [DPU_3_PIPE] |279|  ; [ORIG 16-BIT INS]
    2524 000004a4 9002              STR       A1, [SP, #8]          ; [DPU_3_PIPE] |279|  ; [ORIG 16-BIT INS]
    2525                            .dwpsn  file "../UART.c",line 280,column 7,is_stmt,isa 1
    2526                    ;----------------------------------------------------------------------
    2527                    ; 280 | UART_OutChar(character);                                               
TI ARM Assembler PC v5.2.4 Sat Feb 06 22:51:20 2016

Tools Copyright (c) 1996-2015 Texas Instruments Incorporated
UART.asm                                                             PAGE   47

    2528                    ;----------------------------------------------------------------------
    2529 000004a6 000CF89D          LDRB      A1, [SP, #12]         ; [DPU_3_PIPE] |280|  ; [KEEP 32-BIT INS]
    2530                    $C$DW$130       .dwtag  DW_TAG_TI_branch
    2531                            .dwattr $C$DW$130, DW_AT_low_pc(0x00)
    2532                            .dwattr $C$DW$130, DW_AT_name("UART_OutChar")
    2533                            .dwattr $C$DW$130, DW_AT_TI_call
    2534 000004aa FEC5F7FF          BL        UART_OutChar          ; [DPU_3_PIPE] |280|  ; [KEEP 32-BIT INS]
    2535                            ; CALL OCCURS {UART_OutChar }    ; [] |280| 
    2536                    ;* --------------------------------------------------------------------------*
    2537 000004ae           ||$C$L35||:    
    2538                            .dwpsn  file "../UART.c",line 282,column 5,is_stmt,isa 1
    2539                    ;----------------------------------------------------------------------
    2540                    ; 282 | character = UART_InChar();                                             
    2541                    ;----------------------------------------------------------------------
    2542                    $C$DW$131       .dwtag  DW_TAG_TI_branch
    2543                            .dwattr $C$DW$131, DW_AT_low_pc(0x00)
    2544                            .dwattr $C$DW$131, DW_AT_name("UART_InChar")
    2545                            .dwattr $C$DW$131, DW_AT_TI_call
    2546 000004ae FEB0F7FF          BL        UART_InChar           ; [DPU_3_PIPE] |282|  ; [KEEP 32-BIT INS]
    2547                            ; CALL OCCURS {UART_InChar }     ; [] |282| 
    2548 000004b2 000CF88D          STRB      A1, [SP, #12]         ; [DPU_3_PIPE] |282|  ; [KEEP 32-BIT INS]
    2549                            .dwpsn  file "../UART.c",line 259,column 9,is_stmt,isa 1
    2550 000004b6 000CF89D          LDRB      A1, [SP, #12]         ; [DPU_3_PIPE] |259|  ; [KEEP 32-BIT INS]
    2551 000004ba 280D              CMP       A1, #13               ; [DPU_3_PIPE] |259|  ; [ORIG 16-BIT INS]
    2552 000004bc D1AF              BNE       ||$C$L30||            ; [DPU_3_PIPE] |259|  ; [ORIG 16-BIT INS]
    2553                            ; BRANCHCC OCCURS {||$C$L30||}   ; [] |259| 
    2554                    ;* --------------------------------------------------------------------------*
    2555 000004be           ||$C$L36||:    
    2556                            .dwpsn  file "../UART.c",line 284,column 3,is_stmt,isa 1
    2557                    ;----------------------------------------------------------------------
    2558                    ; 284 | return number;                                                         
    2559                    ;----------------------------------------------------------------------
    2560 000004be 9800              LDR       A1, [SP, #0]          ; [DPU_3_PIPE] |284|  ; [ORIG 16-BIT INS]
    2561                            .dwpsn  file "../UART.c",line 285,column 1,is_stmt,isa 1
    2562 000004c0 B005              ADD       SP, SP, #20           ; [DPU_3_PIPE]  ; [ORIG 16-BIT INS]
    2563                            .dwcfi  cfa_offset, 4
    2564                    $C$DW$132       .dwtag  DW_TAG_TI_branch
    2565                            .dwattr $C$DW$132, DW_AT_low_pc(0x00)
    2566                            .dwattr $C$DW$132, DW_AT_TI_return
    2567 000004c2 BD00              POP       {PC}                  ; [DPU_3_PIPE]  ; [ORIG 16-BIT INS]
    2568                            .dwcfi  cfa_offset, 0
    2569                            ; BRANCH OCCURS                  ; [] 
    2570                            .dwattr $C$DW$123, DW_AT_TI_end_file("../UART.c")
    2571                            .dwattr $C$DW$123, DW_AT_TI_end_line(0x11d)
    2572                            .dwattr $C$DW$123, DW_AT_TI_end_column(0x01)
    2573                            .dwendentry
    2574                            .dwendtag $C$DW$123
    2575                    
    2576                    ;******************************************************************************
    2577                    ;* CONSTANT TABLE                                                             *
    2578                    ;******************************************************************************
    2579 000004c4                   .sect   ".text"
    2580                            .align  4
    2581 000004c4 4000C018  ||$C$CON22||:   .bits   1073791000,32
    2582 000004c8                   .sect   ".text"
TI ARM Assembler PC v5.2.4 Sat Feb 06 22:51:20 2016

Tools Copyright (c) 1996-2015 Texas Instruments Incorporated
UART.asm                                                             PAGE   48

    2583                            .clink
    2584                            .thumbfunc UART_OutUHex
    2585 000004c8                   .thumb
    2586                            .global UART_OutUHex
    2587                    
    2588                    $C$DW$133       .dwtag  DW_TAG_subprogram, DW_AT_name("UART_OutUHex")
    2589                            .dwattr $C$DW$133, DW_AT_low_pc(UART_OutUHex)
    2590                            .dwattr $C$DW$133, DW_AT_high_pc(0x00)
    2591                            .dwattr $C$DW$133, DW_AT_TI_symbol_name("UART_OutUHex")
    2592                            .dwattr $C$DW$133, DW_AT_external
    2593                            .dwattr $C$DW$133, DW_AT_TI_begin_file("../UART.c")
    2594                            .dwattr $C$DW$133, DW_AT_TI_begin_line(0x124)
    2595                            .dwattr $C$DW$133, DW_AT_TI_begin_column(0x06)
    2596                            .dwattr $C$DW$133, DW_AT_decl_file("../UART.c")
    2597                            .dwattr $C$DW$133, DW_AT_decl_line(0x124)
    2598                            .dwattr $C$DW$133, DW_AT_decl_column(0x06)
    2599                            .dwattr $C$DW$133, DW_AT_TI_max_frame_size(0x08)
    2600                            .dwpsn  file "../UART.c",line 292,column 35,is_stmt,address UART_OutUHex,isa 1
    2601                    
    2602                            .dwfde $C$DW$CIE, UART_OutUHex
    2603                    $C$DW$134       .dwtag  DW_TAG_formal_parameter, DW_AT_name("number")
    2604                            .dwattr $C$DW$134, DW_AT_TI_symbol_name("number")
    2605                            .dwattr $C$DW$134, DW_AT_type(*$C$DW$T$40)
    2606                            .dwattr $C$DW$134, DW_AT_location[DW_OP_reg0]
    2607                    
    2608                    ;*****************************************************************************
    2609                    ;* FUNCTION NAME: UART_OutUHex                                               *
    2610                    ;*                                                                           *
    2611                    ;*   Regs Modified     : A1,A2,A3,A4,V9,SP,LR,SR,D0,D0_hi,D1,D1_hi,D2,D2_hi, *
    2612                    ;*                           D3,D3_hi,D4,D4_hi,D5,D5_hi,D6,D6_hi,D7,D7_hi,   *
    2613                    ;*                           FPEXC,FPSCR                                     *
    2614                    ;*   Regs Used         : A1,A2,A3,A4,V9,SP,LR,SR,D0,D0_hi,D1,D1_hi,D2,D2_hi, *
    2615                    ;*                           D3,D3_hi,D4,D4_hi,D5,D5_hi,D6,D6_hi,D7,D7_hi,   *
    2616                    ;*                           FPEXC,FPSCR                                     *
    2617                    ;*   Local Frame Size  : 0 Args + 4 Auto + 4 Save = 8 byte                   *
    2618                    ;*****************************************************************************
    2619 000004c8           UART_OutUHex:
    2620                    ;* --------------------------------------------------------------------------*
    2621                            .dwcfi  cfa_offset, 0
    2622 000004c8 B508              PUSH      {A4, LR}              ; [DPU_3_PIPE]  ; [ORIG 16-BIT INS]
    2623                            .dwcfi  cfa_offset, 8
    2624                            .dwcfi  save_reg_to_mem, 14, -4
    2625                            .dwcfi  save_reg_to_mem, 3, -8
    2626                    $C$DW$135       .dwtag  DW_TAG_variable, DW_AT_name("number")
    2627                            .dwattr $C$DW$135, DW_AT_TI_symbol_name("number")
    2628                            .dwattr $C$DW$135, DW_AT_type(*$C$DW$T$40)
    2629                            .dwattr $C$DW$135, DW_AT_location[DW_OP_breg13 0]
    2630                    ;----------------------------------------------------------------------
    2631                    ; 292 | void UART_OutUHex(uint32_t number){                                    
    2632                    ; 293 | // This function uses recursion to convert the number of               
    2633                    ; 294 | //   unspecified length as an ASCII string                             
    2634                    ;----------------------------------------------------------------------
    2635 000004ca 9000              STR       A1, [SP, #0]          ; [DPU_3_PIPE] |292|  ; [ORIG 16-BIT INS]
    2636                            .dwpsn  file "../UART.c",line 295,column 3,is_stmt,isa 1
    2637                    ;----------------------------------------------------------------------
TI ARM Assembler PC v5.2.4 Sat Feb 06 22:51:20 2016

Tools Copyright (c) 1996-2015 Texas Instruments Incorporated
UART.asm                                                             PAGE   49

    2638                    ; 295 | if(number >= 0x10){                                                    
    2639                    ;----------------------------------------------------------------------
    2640 000004cc 9800              LDR       A1, [SP, #0]          ; [DPU_3_PIPE] |295|  ; [ORIG 16-BIT INS]
    2641 000004ce 2810              CMP       A1, #16               ; [DPU_3_PIPE] |295|  ; [ORIG 16-BIT INS]
    2642 000004d0 D309              BCC       ||$C$L37||            ; [DPU_3_PIPE] |295|  ; [ORIG 16-BIT INS]
    2643                            ; BRANCHCC OCCURS {||$C$L37||}   ; [] |295| 
    2644                    ;* --------------------------------------------------------------------------*
    2645                            .dwpsn  file "../UART.c",line 296,column 5,is_stmt,isa 1
    2646                    ;----------------------------------------------------------------------
    2647                    ; 296 | UART_OutUHex(number/0x10);                                             
    2648                    ;----------------------------------------------------------------------
    2649 000004d2 9800              LDR       A1, [SP, #0]          ; [DPU_3_PIPE] |296|  ; [ORIG 16-BIT INS]
    2650 000004d4 0900              LSRS      A1, A1, #4            ; [DPU_3_PIPE] |296|  ; [ORIG 16-BIT INS]
    2651                    $C$DW$136       .dwtag  DW_TAG_TI_branch
    2652                            .dwattr $C$DW$136, DW_AT_low_pc(0x00)
    2653                            .dwattr $C$DW$136, DW_AT_name("UART_OutUHex")
    2654                            .dwattr $C$DW$136, DW_AT_TI_call
    2655 000004d6 FFF7F7FF          BL        UART_OutUHex          ; [DPU_3_PIPE] |296|  ; [KEEP 32-BIT INS]
    2656                            ; CALL OCCURS {UART_OutUHex }    ; [] |296| 
    2657                            .dwpsn  file "../UART.c",line 297,column 5,is_stmt,isa 1
    2658                    ;----------------------------------------------------------------------
    2659                    ; 297 | UART_OutUHex(number%0x10);                                             
    2660                    ;----------------------------------------------------------------------
    2661 000004da 9800              LDR       A1, [SP, #0]          ; [DPU_3_PIPE] |297|  ; [ORIG 16-BIT INS]
    2662 000004dc 000FF000          AND       A1, A1, #15           ; [DPU_3_PIPE] |297|  ; [KEEP 32-BIT INS]
    2663                    $C$DW$137       .dwtag  DW_TAG_TI_branch
    2664                            .dwattr $C$DW$137, DW_AT_low_pc(0x00)
    2665                            .dwattr $C$DW$137, DW_AT_name("UART_OutUHex")
    2666                            .dwattr $C$DW$137, DW_AT_TI_call
    2667 000004e0 FFF2F7FF          BL        UART_OutUHex          ; [DPU_3_PIPE] |297|  ; [KEEP 32-BIT INS]
    2668                            ; CALL OCCURS {UART_OutUHex }    ; [] |297| 
    2669                            .dwpsn  file "../UART.c",line 298,column 3,is_stmt,isa 1
    2670                    ;----------------------------------------------------------------------
    2671                    ; 299 | else{                                                                  
    2672                    ;----------------------------------------------------------------------
    2673 000004e4 E00D              B         ||$C$L39||            ; [DPU_3_PIPE] |298|  ; [ORIG 16-BIT INS]
    2674                            ; BRANCH OCCURS {||$C$L39||}     ; [] |298| 
    2675                    ;* --------------------------------------------------------------------------*
    2676 000004e6           ||$C$L37||:    
    2677                            .dwpsn  file "../UART.c",line 300,column 5,is_stmt,isa 1
    2678                    ;----------------------------------------------------------------------
    2679                    ; 300 | if(number < 0xA){                                                      
    2680                    ;----------------------------------------------------------------------
    2681 000004e6 9800              LDR       A1, [SP, #0]          ; [DPU_3_PIPE] |300|  ; [ORIG 16-BIT INS]
    2682 000004e8 280A              CMP       A1, #10               ; [DPU_3_PIPE] |300|  ; [ORIG 16-BIT INS]
    2683 000004ea D205              BCS       ||$C$L38||            ; [DPU_3_PIPE] |300|  ; [ORIG 16-BIT INS]
    2684                            ; BRANCHCC OCCURS {||$C$L38||}   ; [] |300| 
    2685                    ;* --------------------------------------------------------------------------*
    2686                            .dwpsn  file "../UART.c",line 301,column 7,is_stmt,isa 1
    2687                    ;----------------------------------------------------------------------
    2688                    ; 301 | UART_OutChar(number+'0');                                              
    2689                    ;----------------------------------------------------------------------
    2690 000004ec 9800              LDR       A1, [SP, #0]          ; [DPU_3_PIPE] |301|  ; [ORIG 16-BIT INS]
    2691 000004ee 3030              ADDS      A1, A1, #48           ; [DPU_3_PIPE] |301|  ; [ORIG 16-BIT INS]
    2692 000004f0 B2C0              UXTB      A1, A1                ; [DPU_3_PIPE] |301|  ; [ORIG 16-BIT INS]
TI ARM Assembler PC v5.2.4 Sat Feb 06 22:51:20 2016

Tools Copyright (c) 1996-2015 Texas Instruments Incorporated
UART.asm                                                             PAGE   50

    2693                    $C$DW$138       .dwtag  DW_TAG_TI_branch
    2694                            .dwattr $C$DW$138, DW_AT_low_pc(0x00)
    2695                            .dwattr $C$DW$138, DW_AT_name("UART_OutChar")
    2696                            .dwattr $C$DW$138, DW_AT_TI_call
    2697 000004f2 FEA1F7FF          BL        UART_OutChar          ; [DPU_3_PIPE] |301|  ; [KEEP 32-BIT INS]
    2698                            ; CALL OCCURS {UART_OutChar }    ; [] |301| 
    2699                            .dwpsn  file "../UART.c",line 302,column 6,is_stmt,isa 1
    2700                    ;----------------------------------------------------------------------
    2701                    ; 303 | else{                                                                  
    2702                    ;----------------------------------------------------------------------
    2703 000004f6 E004              B         ||$C$L39||            ; [DPU_3_PIPE] |302|  ; [ORIG 16-BIT INS]
    2704                            ; BRANCH OCCURS {||$C$L39||}     ; [] |302| 
    2705                    ;* --------------------------------------------------------------------------*
    2706 000004f8           ||$C$L38||:    
    2707                            .dwpsn  file "../UART.c",line 304,column 7,is_stmt,isa 1
    2708                    ;----------------------------------------------------------------------
    2709                    ; 304 | UART_OutChar((number-0x0A)+'A');                                       
    2710                    ;----------------------------------------------------------------------
    2711 000004f8 9800              LDR       A1, [SP, #0]          ; [DPU_3_PIPE] |304|  ; [ORIG 16-BIT INS]
    2712 000004fa 3037              ADDS      A1, A1, #55           ; [DPU_3_PIPE] |304|  ; [ORIG 16-BIT INS]
    2713 000004fc B2C0              UXTB      A1, A1                ; [DPU_3_PIPE] |304|  ; [ORIG 16-BIT INS]
    2714                    $C$DW$139       .dwtag  DW_TAG_TI_branch
    2715                            .dwattr $C$DW$139, DW_AT_low_pc(0x00)
    2716                            .dwattr $C$DW$139, DW_AT_name("UART_OutChar")
    2717                            .dwattr $C$DW$139, DW_AT_TI_call
    2718 000004fe FE9BF7FF          BL        UART_OutChar          ; [DPU_3_PIPE] |304|  ; [KEEP 32-BIT INS]
    2719                            ; CALL OCCURS {UART_OutChar }    ; [] |304| 
    2720                            .dwpsn  file "../UART.c",line 307,column 1,is_stmt,isa 1
    2721                    ;* --------------------------------------------------------------------------*
    2722                    ||$C$L39||:    
    2723                    $C$DW$140       .dwtag  DW_TAG_TI_branch
    2724                            .dwattr $C$DW$140, DW_AT_low_pc(0x00)
    2725                            .dwattr $C$DW$140, DW_AT_TI_return
    2726 00000502 BD08              POP       {A4, PC}              ; [DPU_3_PIPE]  ; [ORIG 16-BIT INS]
    2727                            .dwcfi  cfa_offset, 0
    2728                            ; BRANCH OCCURS                  ; [] 
    2729                            .dwattr $C$DW$133, DW_AT_TI_end_file("../UART.c")
    2730                            .dwattr $C$DW$133, DW_AT_TI_end_line(0x133)
    2731                            .dwattr $C$DW$133, DW_AT_TI_end_column(0x01)
    2732                            .dwendentry
    2733                            .dwendtag $C$DW$133
    2734                    
    2735                    ;******************************************************************************
    2736                    ;* CONSTANT TABLE                                                             *
    2737                    ;******************************************************************************
    2738 00000504                   .sect   ".text"
    2739                            .align  4
    2740 00000504 4000C03C  ||$C$CON23||:   .bits   1073791036,32
    2741                            .align  4
    2742 00000508 4000C044  ||$C$CON24||:   .bits   1073791044,32
    2743 0000050c                   .sect   ".text"
    2744                            .clink
    2745                            .thumbfunc UART_InString
    2746 0000050c                   .thumb
    2747                            .global UART_InString
TI ARM Assembler PC v5.2.4 Sat Feb 06 22:51:20 2016

Tools Copyright (c) 1996-2015 Texas Instruments Incorporated
UART.asm                                                             PAGE   51

    2748                    
    2749                    $C$DW$141       .dwtag  DW_TAG_subprogram, DW_AT_name("UART_InString")
    2750                            .dwattr $C$DW$141, DW_AT_low_pc(UART_InString)
    2751                            .dwattr $C$DW$141, DW_AT_high_pc(0x00)
    2752                            .dwattr $C$DW$141, DW_AT_TI_symbol_name("UART_InString")
    2753                            .dwattr $C$DW$141, DW_AT_external
    2754                            .dwattr $C$DW$141, DW_AT_TI_begin_file("../UART.c")
    2755                            .dwattr $C$DW$141, DW_AT_TI_begin_line(0x141)
    2756                            .dwattr $C$DW$141, DW_AT_TI_begin_column(0x06)
    2757                            .dwattr $C$DW$141, DW_AT_decl_file("../UART.c")
    2758                            .dwattr $C$DW$141, DW_AT_decl_line(0x141)
    2759                            .dwattr $C$DW$141, DW_AT_decl_column(0x06)
    2760                            .dwattr $C$DW$141, DW_AT_TI_max_frame_size(0x18)
    2761                            .dwpsn  file "../UART.c",line 321,column 47,is_stmt,address UART_InString,isa 1
    2762                    
    2763                            .dwfde $C$DW$CIE, UART_InString
    2764                    $C$DW$142       .dwtag  DW_TAG_formal_parameter, DW_AT_name("bufPt")
    2765                            .dwattr $C$DW$142, DW_AT_TI_symbol_name("bufPt")
    2766                            .dwattr $C$DW$142, DW_AT_type(*$C$DW$T$38)
    2767                            .dwattr $C$DW$142, DW_AT_location[DW_OP_reg0]
    2768                    $C$DW$143       .dwtag  DW_TAG_formal_parameter, DW_AT_name("max")
    2769                            .dwattr $C$DW$143, DW_AT_TI_symbol_name("max")
    2770                            .dwattr $C$DW$143, DW_AT_type(*$C$DW$T$43)
    2771                            .dwattr $C$DW$143, DW_AT_location[DW_OP_reg1]
    2772                    
    2773                    ;*****************************************************************************
    2774                    ;* FUNCTION NAME: UART_InString                                              *
    2775                    ;*                                                                           *
    2776                    ;*   Regs Modified     : A1,A2,A3,A4,SP,LR,SR,FPEXC,FPSCR                    *
    2777                    ;*   Regs Used         : A1,A2,A3,A4,SP,LR,SR,FPEXC,FPSCR                    *
